
Praca dyplomowa.elf:     file format elf32-avr

Sections:
Idx Name          Size      VMA       LMA       File off  Algn
  0 .text         00003db0  00000000  00000000  00000094  2**1
                  CONTENTS, ALLOC, LOAD, READONLY, CODE
  1 .data         000002ee  00800060  00003db0  00003e44  2**0
                  CONTENTS, ALLOC, LOAD, DATA
  2 .bss          000004ae  0080034e  0080034e  00004132  2**0
                  ALLOC
  3 .comment      0000005c  00000000  00000000  00004132  2**0
                  CONTENTS, READONLY
  4 .note.gnu.avr.deviceinfo 0000003c  00000000  00000000  00004190  2**2
                  CONTENTS, READONLY
  5 .debug_aranges 00000520  00000000  00000000  000041cc  2**0
                  CONTENTS, READONLY, DEBUGGING
  6 .debug_info   00006836  00000000  00000000  000046ec  2**0
                  CONTENTS, READONLY, DEBUGGING
  7 .debug_abbrev 0000172e  00000000  00000000  0000af22  2**0
                  CONTENTS, READONLY, DEBUGGING
  8 .debug_line   00003912  00000000  00000000  0000c650  2**0
                  CONTENTS, READONLY, DEBUGGING
  9 .debug_frame  00001000  00000000  00000000  0000ff64  2**2
                  CONTENTS, READONLY, DEBUGGING
 10 .debug_str    00001265  00000000  00000000  00010f64  2**0
                  CONTENTS, READONLY, DEBUGGING
 11 .debug_loc    00005276  00000000  00000000  000121c9  2**0
                  CONTENTS, READONLY, DEBUGGING
 12 .debug_ranges 00000480  00000000  00000000  0001743f  2**0
                  CONTENTS, READONLY, DEBUGGING

Disassembly of section .text:

00000000 <__vectors>:
       0:	0c 94 6c 02 	jmp	0x4d8	; 0x4d8 <__ctors_end>
       4:	0c 94 0e 07 	jmp	0xe1c	; 0xe1c <__vector_1>
       8:	0c 94 89 02 	jmp	0x512	; 0x512 <__bad_interrupt>
       c:	0c 94 89 02 	jmp	0x512	; 0x512 <__bad_interrupt>
      10:	0c 94 1d 07 	jmp	0xe3a	; 0xe3a <__vector_4>
      14:	0c 94 89 02 	jmp	0x512	; 0x512 <__bad_interrupt>
      18:	0c 94 d3 05 	jmp	0xba6	; 0xba6 <__vector_6>
      1c:	0c 94 89 02 	jmp	0x512	; 0x512 <__bad_interrupt>
      20:	0c 94 89 02 	jmp	0x512	; 0x512 <__bad_interrupt>
      24:	0c 94 89 02 	jmp	0x512	; 0x512 <__bad_interrupt>
      28:	0c 94 da 04 	jmp	0x9b4	; 0x9b4 <__vector_10>
      2c:	0c 94 89 02 	jmp	0x512	; 0x512 <__bad_interrupt>
      30:	0c 94 89 02 	jmp	0x512	; 0x512 <__bad_interrupt>
      34:	0c 94 7f 0f 	jmp	0x1efe	; 0x1efe <__vector_13>
      38:	0c 94 41 0f 	jmp	0x1e82	; 0x1e82 <__vector_14>
      3c:	0c 94 89 02 	jmp	0x512	; 0x512 <__bad_interrupt>
      40:	0c 94 89 02 	jmp	0x512	; 0x512 <__bad_interrupt>
      44:	0c 94 89 02 	jmp	0x512	; 0x512 <__bad_interrupt>
      48:	0c 94 89 02 	jmp	0x512	; 0x512 <__bad_interrupt>
      4c:	0c 94 89 02 	jmp	0x512	; 0x512 <__bad_interrupt>
      50:	0c 94 89 02 	jmp	0x512	; 0x512 <__bad_interrupt>
      54:	4b 08       	sbc	r4, r11
      56:	50 08       	sbc	r5, r0
      58:	55 08       	sbc	r5, r5
      5a:	5a 08       	sbc	r5, r10
      5c:	5f 08       	sbc	r5, r15
      5e:	64 08       	sbc	r6, r4
      60:	69 08       	sbc	r6, r9
      62:	78 08       	sbc	r7, r8
      64:	7d 08       	sbc	r7, r13
      66:	82 08       	sbc	r8, r2
      68:	87 08       	sbc	r8, r7
      6a:	8c 08       	sbc	r8, r12
      6c:	91 08       	sbc	r9, r1
      6e:	96 08       	sbc	r9, r6

00000070 <__trampolines_end>:
      70:	c0 f9       	bld	r28, 0
      72:	a4 b0       	in	r10, 0x04	; 4
      74:	99 92       	st	Y+, r9
      76:	82 d8       	rcall	.-3836   	; 0xfffff17c <__eeprom_end+0xff7ef17c>
      78:	80 90 ff 7f 	lds	r8, 0x7FFF	; 0x807fff <__bss_end+0x7803>
      7c:	00 00       	nop
	...

0000007f <__c.2941>:
      7f:	44 41 54 41 20 64 6f 6e 27 74 20 73 65 6e 64 00     DATA don't send.

0000008f <__c.2936>:
      8f:	44 41 54 41 20 73 65 6e 64 20 20 20 20 20 20 00     DATA send      .

0000009f <__c.2931>:
      9f:	44 41 54 41 20 64 6f 6e 27 74 20 73 65 6e 64 00     DATA don't send.

000000af <__c.2926>:
      af:	44 41 54 41 20 73 65 6e 64 20 20 20 20 20 20 00     DATA send      .

000000bf <__c.2900>:
      bf:	44 41 54 41 20 64 6f 6e 27 74 20 73 65 6e 64 00     DATA don't send.

000000cf <__c.2898>:
      cf:	44 41 54 41 20 73 65 6e 64 20 20 20 20 20 20 00     DATA send      .

000000df <__c.2896>:
      df:	44 41 54 41 20 64 6f 6e 27 74 20 73 65 6e 64 00     DATA don't send.

000000ef <__c.2894>:
      ef:	44 41 54 41 20 73 65 6e 64 20 20 20 20 20 20 00     DATA send      .

000000ff <__c.2892>:
      ff:	49 52 63 6f 6e 00                                   IRcon.

00000105 <__c.2890>:
     105:	20 20 20 20 20 00                                        .

0000010b <__c.2885>:
     10b:	44 41 54 41 20 64 6f 6e 27 74 20 73 65 6e 64 00     DATA don't send.

0000011b <__c.2883>:
     11b:	44 41 54 41 20 73 65 6e 64 20 20 20 20 20 20 00     DATA send      .

0000012b <__c.2881>:
     12b:	44 41 54 41 20 64 6f 6e 27 74 20 73 65 6e 64 00     DATA don't send.

0000013b <__c.2879>:
     13b:	44 41 54 41 20 73 65 6e 64 20 20 20 20 20 20 00     DATA send      .

0000014b <__c.2863>:
     14b:	53 75 00                                            Su.

0000014e <__c.2860>:
     14e:	53 61 00                                            Sa.

00000151 <__c.2857>:
     151:	46 72 00                                            Fr.

00000154 <__c.2854>:
     154:	54 68 00                                            Th.

00000157 <__c.2851>:
     157:	57 65 00                                            We.

0000015a <__c.2848>:
     15a:	54 75 00                                            Tu.

0000015d <__c.2844>:
     15d:	4d 6f 00                                            Mo.

00000160 <__c.2838>:
     160:	b0 43 00                                            .C.

00000163 <__c.2836>:
     163:	2e 00                                               ..

00000165 <__c.2834>:
     165:	20 00                                                .

00000167 <__c.2832>:
     167:	20 20 00                                              .

0000016a <__c.2830>:
     16a:	2d 00                                               -.

0000016c <__c.2828>:
     16c:	20 2d 00                                             -.

0000016f <__c.2826>:
     16f:	44 53 31 38 42 32 30 20 73 65 6e 2e 54 3a 20 00     DS18B20 sen.T: .

0000017f <__c.2791>:
     17f:	44 41 54 41 20 64 6f 6e 27 74 20 73 65 6e 64 00     DATA don't send.

0000018f <__c.2789>:
     18f:	20 25 00                                             %.

00000192 <__c.2787>:
     192:	30 00                                               0.

00000194 <__c.2785>:
     194:	2e 00                                               ..

00000196 <__c.2783>:
     196:	48 75 6d 69 64 69 74 79 3a 20 00                    Humidity: .

000001a1 <__c.2781>:
     1a1:	20 68 50 61 00                                       hPa.

000001a6 <__c.2779>:
     1a6:	30 00                                               0.

000001a8 <__c.2777>:
     1a8:	2e 00                                               ..

000001aa <__c.2775>:
     1aa:	50 72 65 73 73 75 72 65 3a 20 20 20 00              Pressure:   .

000001b7 <__c.2773>:
     1b7:	b0 43 00                                            .C.

000001ba <__c.2771>:
     1ba:	30 00                                               0.

000001bc <__c.2769>:
     1bc:	2e 00                                               ..

000001be <__c.2767>:
     1be:	54 65 6d 70 65 72 61 74 75 72 65 3a 20 20 20 20     Temperature:    
	...

000001cf <__c.2765>:
     1cf:	54 65 6d 70 65 72 61 74 75 72 65 3a 20 20 00        Temperature:  .

000001de <__c.2763>:
     1de:	54 65 6d 70 65 72 61 74 75 72 65 3a 20 20 2d 00     Temperature:  -.

000001ee <__c.2761>:
     1ee:	2d 2d 2d 2d 42 4d 45 32 38 30 20 73 65 6e 73 6f     ----BME280 senso
     1fe:	72 2d 2d 2d 2d 00                                   r----.

00000204 <__c.2759>:
     204:	20 20 00                                              .

00000207 <__c.2757>:
     207:	32 30 00                                            20.

0000020a <__c.2755>:
     20a:	2f 00                                               /.

0000020c <__c.2753>:
     20c:	2f 00                                               /.

0000020e <__c.2751>:
     20e:	2f 00                                               /.

00000210 <__c.2749>:
     210:	44 61 74 65 3a 20 00                                Date: .

00000217 <__c.2747>:
     217:	30 00                                               0.

00000219 <__c.2745>:
     219:	3a 00                                               :.

0000021b <__c.2743>:
     21b:	30 00                                               0.

0000021d <__c.2741>:
     21d:	3a 00                                               :.

0000021f <__c.2739>:
     21f:	30 00                                               0.

00000221 <__c.2737>:
     221:	54 69 6d 65 3a 20 00                                Time: .

00000228 <special_char>:
     228:	bc 5f 9c 60 a4 61 84 62 b6 63 96 64 b0 65 9f 66     ._.`.a.b.c.d.e.f
     238:	b5 67 89 68 a9 69 ff ff                             .g.h.i..

00000240 <ssd1306oled_font>:
	...
     248:	00 2f 00 00 00 00 07 00 07 00 00 14 7f 14 7f 14     ./..............
     258:	00 24 2a 7f 2a 12 00 62 64 08 13 23 00 36 49 55     .$*.*..bd..#.6IU
     268:	22 50 00 00 05 03 00 00 00 00 1c 22 41 00 00 00     "P........."A...
     278:	41 22 1c 00 00 14 08 3e 08 14 00 08 08 3e 08 08     A".....>.....>..
     288:	00 00 00 a0 60 00 00 08 08 08 08 08 00 00 60 60     ....`.........``
     298:	00 00 00 20 10 08 04 02 00 3e 51 49 45 3e 00 00     ... .....>QIE>..
     2a8:	42 7f 40 00 00 42 61 51 49 46 00 21 41 45 4b 31     B.@..BaQIF.!AEK1
     2b8:	00 18 14 12 7f 10 00 27 45 45 45 39 00 3c 4a 49     .......'EEE9.<JI
     2c8:	49 30 00 01 71 09 05 03 00 36 49 49 49 36 00 06     I0..q....6III6..
     2d8:	49 49 29 1e 00 00 36 36 00 00 00 00 56 36 00 00     II)...66....V6..
     2e8:	00 08 14 22 41 00 00 14 14 14 14 14 00 00 41 22     ..."A.........A"
     2f8:	14 08 00 02 01 51 09 06 00 32 49 59 51 3e 00 7c     .....Q...2IYQ>.|
     308:	12 11 12 7c 00 7f 49 49 49 36 00 3e 41 41 41 22     ...|..III6.>AAA"
     318:	00 7f 41 41 22 1c 00 7f 49 49 49 41 00 7f 09 09     ..AA"...IIIA....
     328:	09 01 00 3e 41 49 49 7a 00 7f 08 08 08 7f 00 00     ...>AIIz........
     338:	41 7f 41 00 00 20 40 41 3f 01 00 7f 08 14 22 41     A.A.. @A?....."A
     348:	00 7f 40 40 40 40 00 7f 02 0c 02 7f 00 7f 04 08     ..@@@@..........
     358:	10 7f 00 3e 41 41 41 3e 00 7f 09 09 09 06 00 3e     ...>AAA>.......>
     368:	41 51 21 5e 00 7f 09 19 29 46 00 46 49 49 49 31     AQ!^....)F.FIII1
     378:	00 01 01 7f 01 01 00 3f 40 40 40 3f 00 1f 20 40     .......?@@@?.. @
     388:	20 1f 00 3f 40 38 40 3f 00 63 14 08 14 63 00 07      ..?@8@?.c...c..
     398:	08 70 08 07 00 61 51 49 45 43 00 00 7f 41 41 00     .p...aQIEC...AA.
     3a8:	00 55 2a 55 2a 55 00 00 41 41 7f 00 00 04 02 01     .U*U*U..AA......
     3b8:	02 04 00 40 40 40 40 40 00 00 01 02 04 00 00 20     ...@@@@@....... 
     3c8:	54 54 54 78 00 7f 48 44 44 38 00 38 44 44 44 20     TTTx..HDD8.8DDD 
     3d8:	00 38 44 44 48 7f 00 38 54 54 54 18 00 08 7e 09     .8DDH..8TTT...~.
     3e8:	01 02 00 18 a4 a4 a4 7c 00 7f 08 04 04 78 00 00     .......|.....x..
     3f8:	44 7d 40 00 00 40 80 84 7d 00 00 7f 10 28 44 00     D}@..@..}....(D.
     408:	00 00 41 7f 40 00 00 7c 04 18 04 78 00 7c 08 04     ..A.@..|...x.|..
     418:	04 78 00 38 44 44 44 38 00 fc 24 24 24 18 00 18     .x.8DDD8..$$$...
     428:	24 24 18 fc 00 7c 08 04 04 08 00 48 54 54 54 20     $$...|.....HTTT 
     438:	00 04 3f 44 40 20 00 3c 40 40 20 7c 00 1c 20 40     ..?D@ .<@@ |.. @
     448:	20 1c 00 3c 40 30 40 3c 00 44 28 10 28 44 00 1c      ..<@0@<.D(.(D..
     458:	a0 a0 a0 7c 00 44 64 54 4c 44 00 00 08 77 41 00     ...|.DdTLD...wA.
     468:	00 00 00 63 00 00 00 00 41 77 08 00 00 08 04 08     ...c....Aw......
     478:	08 04 00 3a 40 40 20 7a 00 3d 40 40 40 3d 00 21     ...:@@ z.=@@@=.!
     488:	54 54 54 79 00 7d 12 11 12 7d 00 39 44 44 44 39     TTTy.}...}.9DDD9
     498:	00 3d 42 42 42 3d 00 02 05 02 00 00 00 7e 01 49     .=BBB=.......~.I
     4a8:	55 73 00 7c 10 10 08 1c 00 30 48 20 48 30 00 5c     Us.|.....0H H0.\
     4b8:	62 02 62 5c                                         b.b\

000004bc <init_sequence>:
     4bc:	ae 20 00 b0 c8 00 10 40 81 3f a1 a6 a8 3f a4 d3     . .....@.?...?..
     4cc:	00 d5 f0 d9 22 da 12 db 20 8d 14 00                 ...."... ...

000004d8 <__ctors_end>:
     4d8:	11 24       	eor	r1, r1
     4da:	1f be       	out	0x3f, r1	; 63
     4dc:	cf e5       	ldi	r28, 0x5F	; 95
     4de:	d8 e0       	ldi	r29, 0x08	; 8
     4e0:	de bf       	out	0x3e, r29	; 62
     4e2:	cd bf       	out	0x3d, r28	; 61

000004e4 <__do_copy_data>:
     4e4:	13 e0       	ldi	r17, 0x03	; 3
     4e6:	a0 e6       	ldi	r26, 0x60	; 96
     4e8:	b0 e0       	ldi	r27, 0x00	; 0
     4ea:	e0 eb       	ldi	r30, 0xB0	; 176
     4ec:	fd e3       	ldi	r31, 0x3D	; 61
     4ee:	02 c0       	rjmp	.+4      	; 0x4f4 <__do_copy_data+0x10>
     4f0:	05 90       	lpm	r0, Z+
     4f2:	0d 92       	st	X+, r0
     4f4:	ae 34       	cpi	r26, 0x4E	; 78
     4f6:	b1 07       	cpc	r27, r17
     4f8:	d9 f7       	brne	.-10     	; 0x4f0 <__do_copy_data+0xc>

000004fa <__do_clear_bss>:
     4fa:	27 e0       	ldi	r18, 0x07	; 7
     4fc:	ae e4       	ldi	r26, 0x4E	; 78
     4fe:	b3 e0       	ldi	r27, 0x03	; 3
     500:	01 c0       	rjmp	.+2      	; 0x504 <.do_clear_bss_start>

00000502 <.do_clear_bss_loop>:
     502:	1d 92       	st	X+, r1

00000504 <.do_clear_bss_start>:
     504:	ac 3f       	cpi	r26, 0xFC	; 252
     506:	b2 07       	cpc	r27, r18
     508:	e1 f7       	brne	.-8      	; 0x502 <.do_clear_bss_loop>
     50a:	0e 94 ff 0b 	call	0x17fe	; 0x17fe <main>
     50e:	0c 94 d6 1e 	jmp	0x3dac	; 0x3dac <_exit>

00000512 <__bad_interrupt>:
     512:	0c 94 00 00 	jmp	0	; 0x0 <__vectors>

00000516 <crc8>:

#define CRC8INIT	0x00
#define CRC8POLY	0x18              //0X18 = X^8+X^5+X^4+X^0

uint8_t	crc8 ( uint8_t *data_in, uint16_t number_of_bytes_to_read )
{
     516:	cf 93       	push	r28
     518:	df 93       	push	r29
     51a:	ec 01       	movw	r28, r24
	uint8_t  data;
	uint8_t  feedback_bit;

	crc = CRC8INIT;

	for (loop_count = 0; loop_count != number_of_bytes_to_read; loop_count++)
     51c:	e0 e0       	ldi	r30, 0x00	; 0
     51e:	f0 e0       	ldi	r31, 0x00	; 0
	uint16_t loop_count;
	uint8_t  bit_counter;
	uint8_t  data;
	uint8_t  feedback_bit;

	crc = CRC8INIT;
     520:	80 e0       	ldi	r24, 0x00	; 0

	for (loop_count = 0; loop_count != number_of_bytes_to_read; loop_count++)
     522:	15 c0       	rjmp	.+42     	; 0x54e <crc8+0x38>
	{
		data = data_in[loop_count];
     524:	de 01       	movw	r26, r28
     526:	ae 0f       	add	r26, r30
     528:	bf 1f       	adc	r27, r31
     52a:	2c 91       	ld	r18, X

		bit_counter = 8;
     52c:	98 e0       	ldi	r25, 0x08	; 8
		do {
			feedback_bit = (crc ^ data) & 0x01;
     52e:	38 2f       	mov	r19, r24
     530:	32 27       	eor	r19, r18

			if ( feedback_bit == 0x01 ) {
     532:	43 2f       	mov	r20, r19
     534:	41 70       	andi	r20, 0x01	; 1
     536:	30 ff       	sbrs	r19, 0
     538:	02 c0       	rjmp	.+4      	; 0x53e <crc8+0x28>
				crc = crc ^ CRC8POLY;
     53a:	38 e1       	ldi	r19, 0x18	; 24
     53c:	83 27       	eor	r24, r19
			}
			crc = (crc >> 1) & 0x7F;
     53e:	86 95       	lsr	r24
			if ( feedback_bit == 0x01 ) {
     540:	41 30       	cpi	r20, 0x01	; 1
     542:	09 f4       	brne	.+2      	; 0x546 <crc8+0x30>
				crc = crc | 0x80;
     544:	80 68       	ori	r24, 0x80	; 128
			}

			data = data >> 1;
     546:	26 95       	lsr	r18
			bit_counter--;
     548:	91 50       	subi	r25, 0x01	; 1

		} while (bit_counter > 0);
     54a:	89 f7       	brne	.-30     	; 0x52e <crc8+0x18>
	uint8_t  data;
	uint8_t  feedback_bit;

	crc = CRC8INIT;

	for (loop_count = 0; loop_count != number_of_bytes_to_read; loop_count++)
     54c:	31 96       	adiw	r30, 0x01	; 1
     54e:	e6 17       	cp	r30, r22
     550:	f7 07       	cpc	r31, r23
     552:	41 f7       	brne	.-48     	; 0x524 <crc8+0xe>

		} while (bit_counter > 0);
	}

	return crc;
}
     554:	df 91       	pop	r29
     556:	cf 91       	pop	r28
     558:	08 95       	ret

0000055a <DS18X20_meas_to_cel>:
	if( ow_reset() ) return DS18X20_ERROR;
    ow_command(DS18X20_READ_POWER_SUPPLY, id);
    pstat=ow_bit_io(1); // pstat 0=is parasite/ !=0 ext. powered
    ow_reset();
	return (pstat) ? DS18X20_POWER_EXTERN:DS18X20_POWER_PARASITE;
}
     55a:	0f 93       	push	r16
     55c:	1f 93       	push	r17
     55e:	cf 93       	push	r28
     560:	df 93       	push	r29
     562:	cd b7       	in	r28, 0x3d	; 61
     564:	de b7       	in	r29, 0x3e	; 62
     566:	60 97       	sbiw	r28, 0x10	; 16
     568:	0f b6       	in	r0, 0x3f	; 63
     56a:	f8 94       	cli
     56c:	de bf       	out	0x3e, r29	; 62
     56e:	0f be       	out	0x3f, r0	; 63
     570:	cd bf       	out	0x3d, r28	; 61
     572:	90 e1       	ldi	r25, 0x10	; 16
     574:	e6 e6       	ldi	r30, 0x66	; 102
     576:	f0 e0       	ldi	r31, 0x00	; 0
     578:	de 01       	movw	r26, r28
     57a:	11 96       	adiw	r26, 0x01	; 1
     57c:	01 90       	ld	r0, Z+
     57e:	0d 92       	st	X+, r0
     580:	9a 95       	dec	r25
     582:	e1 f7       	brne	.-8      	; 0x57c <DS18X20_meas_to_cel+0x22>
     584:	db 01       	movw	r26, r22
     586:	9c 91       	ld	r25, X
     588:	11 96       	adiw	r26, 0x01	; 1
     58a:	ec 91       	ld	r30, X
     58c:	11 97       	sbiw	r26, 0x01	; 1
     58e:	f0 e0       	ldi	r31, 0x00	; 0
     590:	fe 2f       	mov	r31, r30
     592:	ee 27       	eor	r30, r30
     594:	e9 2b       	or	r30, r25
     596:	80 31       	cpi	r24, 0x10	; 16
     598:	61 f4       	brne	.+24     	; 0x5b2 <DS18X20_meas_to_cel+0x58>
     59a:	ee 7f       	andi	r30, 0xFE	; 254
     59c:	ee 0f       	add	r30, r30
     59e:	ff 1f       	adc	r31, r31
     5a0:	ee 0f       	add	r30, r30
     5a2:	ff 1f       	adc	r31, r31
     5a4:	ee 0f       	add	r30, r30
     5a6:	ff 1f       	adc	r31, r31
     5a8:	16 96       	adiw	r26, 0x06	; 6
     5aa:	9c 91       	ld	r25, X
     5ac:	e9 1b       	sub	r30, r25
     5ae:	f1 09       	sbc	r31, r1
     5b0:	3c 96       	adiw	r30, 0x0c	; 12
     5b2:	ff 23       	and	r31, r31
     5b4:	3c f4       	brge	.+14     	; 0x5c4 <DS18X20_meas_to_cel+0x6a>
     5b6:	91 e0       	ldi	r25, 0x01	; 1
     5b8:	da 01       	movw	r26, r20
     5ba:	9c 93       	st	X, r25
     5bc:	f1 95       	neg	r31
     5be:	e1 95       	neg	r30
     5c0:	f1 09       	sbc	r31, r1
     5c2:	02 c0       	rjmp	.+4      	; 0x5c8 <DS18X20_meas_to_cel+0x6e>
     5c4:	da 01       	movw	r26, r20
     5c6:	1c 92       	st	X, r1
     5c8:	88 32       	cpi	r24, 0x28	; 40
     5ca:	81 f4       	brne	.+32     	; 0x5ec <DS18X20_meas_to_cel+0x92>
     5cc:	db 01       	movw	r26, r22
     5ce:	14 96       	adiw	r26, 0x04	; 4
     5d0:	8c 91       	ld	r24, X
     5d2:	98 2f       	mov	r25, r24
     5d4:	90 76       	andi	r25, 0x60	; 96
     5d6:	90 36       	cpi	r25, 0x60	; 96
     5d8:	49 f0       	breq	.+18     	; 0x5ec <DS18X20_meas_to_cel+0x92>
     5da:	86 ff       	sbrs	r24, 6
     5dc:	02 c0       	rjmp	.+4      	; 0x5e2 <DS18X20_meas_to_cel+0x88>
     5de:	ee 7f       	andi	r30, 0xFE	; 254
     5e0:	05 c0       	rjmp	.+10     	; 0x5ec <DS18X20_meas_to_cel+0x92>
     5e2:	85 ff       	sbrs	r24, 5
     5e4:	02 c0       	rjmp	.+4      	; 0x5ea <DS18X20_meas_to_cel+0x90>
     5e6:	ec 7f       	andi	r30, 0xFC	; 252
     5e8:	01 c0       	rjmp	.+2      	; 0x5ec <DS18X20_meas_to_cel+0x92>
     5ea:	e8 7f       	andi	r30, 0xF8	; 248
     5ec:	cf 01       	movw	r24, r30
     5ee:	92 95       	swap	r25
     5f0:	82 95       	swap	r24
     5f2:	8f 70       	andi	r24, 0x0F	; 15
     5f4:	89 27       	eor	r24, r25
     5f6:	9f 70       	andi	r25, 0x0F	; 15
     5f8:	89 27       	eor	r24, r25
     5fa:	d9 01       	movw	r26, r18
     5fc:	8c 93       	st	X, r24
     5fe:	ef 70       	andi	r30, 0x0F	; 15
     600:	ff 27       	eor	r31, r31
     602:	81 e0       	ldi	r24, 0x01	; 1
     604:	90 e0       	ldi	r25, 0x00	; 0
     606:	8c 0f       	add	r24, r28
     608:	9d 1f       	adc	r25, r29
     60a:	e8 0f       	add	r30, r24
     60c:	f9 1f       	adc	r31, r25
     60e:	80 81       	ld	r24, Z
     610:	d8 01       	movw	r26, r16
     612:	8c 93       	st	X, r24
     614:	80 e0       	ldi	r24, 0x00	; 0
     616:	60 96       	adiw	r28, 0x10	; 16
     618:	0f b6       	in	r0, 0x3f	; 63
     61a:	f8 94       	cli
     61c:	de bf       	out	0x3e, r29	; 62
     61e:	0f be       	out	0x3f, r0	; 63
     620:	cd bf       	out	0x3d, r28	; 61
     622:	df 91       	pop	r29
     624:	cf 91       	pop	r28
     626:	1f 91       	pop	r17
     628:	0f 91       	pop	r16
     62a:	08 95       	ret

0000062c <DS18X20_find_sensor>:
     62c:	0f 93       	push	r16
     62e:	1f 93       	push	r17
     630:	cf 93       	push	r28
     632:	df 93       	push	r29
     634:	ec 01       	movw	r28, r24
     636:	8b 01       	movw	r16, r22
     638:	b8 01       	movw	r22, r16
     63a:	88 81       	ld	r24, Y
     63c:	0e 94 53 04 	call	0x8a6	; 0x8a6 <ow_rom_search>
     640:	88 83       	st	Y, r24
     642:	81 50       	subi	r24, 0x01	; 1
     644:	8d 3f       	cpi	r24, 0xFD	; 253
     646:	30 f4       	brcc	.+12     	; 0x654 <DS18X20_find_sensor+0x28>
     648:	f8 01       	movw	r30, r16
     64a:	80 81       	ld	r24, Z
     64c:	88 32       	cpi	r24, 0x28	; 40
     64e:	11 f0       	breq	.+4      	; 0x654 <DS18X20_find_sensor+0x28>
     650:	80 31       	cpi	r24, 0x10	; 16
     652:	91 f7       	brne	.-28     	; 0x638 <DS18X20_find_sensor+0xc>
     654:	df 91       	pop	r29
     656:	cf 91       	pop	r28
     658:	1f 91       	pop	r17
     65a:	0f 91       	pop	r16
     65c:	08 95       	ret

0000065e <search_sensors>:
     65e:	1f 93       	push	r17
     660:	cf 93       	push	r28
     662:	df 93       	push	r29
     664:	cd b7       	in	r28, 0x3d	; 61
     666:	de b7       	in	r29, 0x3e	; 62
     668:	29 97       	sbiw	r28, 0x09	; 9
     66a:	0f b6       	in	r0, 0x3f	; 63
     66c:	f8 94       	cli
     66e:	de bf       	out	0x3e, r29	; 62
     670:	0f be       	out	0x3f, r0	; 63
     672:	cd bf       	out	0x3d, r28	; 61
     674:	8f ef       	ldi	r24, 0xFF	; 255
     676:	89 87       	std	Y+9, r24	; 0x09
     678:	10 e0       	ldi	r17, 0x00	; 0
     67a:	29 c0       	rjmp	.+82     	; 0x6ce <search_sensors+0x70>
     67c:	be 01       	movw	r22, r28
     67e:	6f 5f       	subi	r22, 0xFF	; 255
     680:	7f 4f       	sbci	r23, 0xFF	; 255
     682:	ce 01       	movw	r24, r28
     684:	09 96       	adiw	r24, 0x09	; 9
     686:	0e 94 16 03 	call	0x62c	; 0x62c <DS18X20_find_sensor>
     68a:	89 85       	ldd	r24, Y+9	; 0x09
     68c:	8f 3f       	cpi	r24, 0xFF	; 255
     68e:	21 f1       	breq	.+72     	; 0x6d8 <search_sensors+0x7a>
     690:	8e 3f       	cpi	r24, 0xFE	; 254
     692:	11 f1       	breq	.+68     	; 0x6d8 <search_sensors+0x7a>
     694:	40 e0       	ldi	r20, 0x00	; 0
     696:	18 c0       	rjmp	.+48     	; 0x6c8 <search_sensors+0x6a>
     698:	81 2f       	mov	r24, r17
     69a:	90 e0       	ldi	r25, 0x00	; 0
     69c:	24 2f       	mov	r18, r20
     69e:	30 e0       	ldi	r19, 0x00	; 0
     6a0:	e1 e0       	ldi	r30, 0x01	; 1
     6a2:	f0 e0       	ldi	r31, 0x00	; 0
     6a4:	ec 0f       	add	r30, r28
     6a6:	fd 1f       	adc	r31, r29
     6a8:	e2 0f       	add	r30, r18
     6aa:	f3 1f       	adc	r31, r19
     6ac:	50 81       	ld	r21, Z
     6ae:	88 0f       	add	r24, r24
     6b0:	99 1f       	adc	r25, r25
     6b2:	88 0f       	add	r24, r24
     6b4:	99 1f       	adc	r25, r25
     6b6:	88 0f       	add	r24, r24
     6b8:	99 1f       	adc	r25, r25
     6ba:	83 57       	subi	r24, 0x73	; 115
     6bc:	98 4f       	sbci	r25, 0xF8	; 248
     6be:	fc 01       	movw	r30, r24
     6c0:	e2 0f       	add	r30, r18
     6c2:	f3 1f       	adc	r31, r19
     6c4:	50 83       	st	Z, r21
     6c6:	4f 5f       	subi	r20, 0xFF	; 255
     6c8:	48 30       	cpi	r20, 0x08	; 8
     6ca:	30 f3       	brcs	.-52     	; 0x698 <search_sensors+0x3a>
     6cc:	1f 5f       	subi	r17, 0xFF	; 255
     6ce:	89 85       	ldd	r24, Y+9	; 0x09
     6d0:	88 23       	and	r24, r24
     6d2:	11 f0       	breq	.+4      	; 0x6d8 <search_sensors+0x7a>
     6d4:	14 30       	cpi	r17, 0x04	; 4
     6d6:	90 f2       	brcs	.-92     	; 0x67c <search_sensors+0x1e>
     6d8:	81 2f       	mov	r24, r17
     6da:	29 96       	adiw	r28, 0x09	; 9
     6dc:	0f b6       	in	r0, 0x3f	; 63
     6de:	f8 94       	cli
     6e0:	de bf       	out	0x3e, r29	; 62
     6e2:	0f be       	out	0x3f, r0	; 63
     6e4:	cd bf       	out	0x3d, r28	; 61
     6e6:	df 91       	pop	r29
     6e8:	cf 91       	pop	r28
     6ea:	1f 91       	pop	r17
     6ec:	08 95       	ret

000006ee <DS18X20_start_meas>:

/* start measurement (CONVERT_T) for all sensors if input id==NULL
   or for single sensor. then id is the rom-code */
uint8_t DS18X20_start_meas( uint8_t with_power_extern, uint8_t id[])
{
     6ee:	0f 93       	push	r16
     6f0:	1f 93       	push	r17
     6f2:	cf 93       	push	r28
     6f4:	df 93       	push	r29
     6f6:	d8 2f       	mov	r29, r24
     6f8:	8b 01       	movw	r16, r22
	if( ow_reset() ) return DS18X20_ERROR;
     6fa:	0e 94 05 04 	call	0x80a	; 0x80a <ow_reset>
     6fe:	c8 2f       	mov	r28, r24
     700:	81 11       	cpse	r24, r1
     702:	0d c0       	rjmp	.+26     	; 0x71e <DS18X20_start_meas+0x30>

	if( ow_input_pin_state() ) { // only send if bus is "idle" = high
     704:	0e 94 fb 03 	call	0x7f6	; 0x7f6 <ow_input_pin_state>
     708:	88 23       	and	r24, r24
     70a:	59 f0       	breq	.+22     	; 0x722 <DS18X20_start_meas+0x34>
		ow_command( DS18X20_CONVERT_T, id );
     70c:	b8 01       	movw	r22, r16
     70e:	84 e4       	ldi	r24, 0x44	; 68
     710:	0e 94 a3 04 	call	0x946	; 0x946 <ow_command>
		if (with_power_extern != DS18X20_POWER_EXTERN)
     714:	d1 30       	cpi	r29, 0x01	; 1
     716:	31 f0       	breq	.+12     	; 0x724 <DS18X20_start_meas+0x36>
			ow_parasite_enable();
     718:	0e 94 fe 03 	call	0x7fc	; 0x7fc <ow_parasite_enable>
     71c:	03 c0       	rjmp	.+6      	; 0x724 <DS18X20_start_meas+0x36>

/* start measurement (CONVERT_T) for all sensors if input id==NULL
   or for single sensor. then id is the rom-code */
uint8_t DS18X20_start_meas( uint8_t with_power_extern, uint8_t id[])
{
	if( ow_reset() ) return DS18X20_ERROR;
     71e:	c1 e0       	ldi	r28, 0x01	; 1
     720:	01 c0       	rjmp	.+2      	; 0x724 <DS18X20_start_meas+0x36>
			ow_parasite_enable();
		return DS18X20_OK;
	}
	else {

		return DS18X20_START_FAIL;
     722:	c2 e0       	ldi	r28, 0x02	; 2
	}
}
     724:	8c 2f       	mov	r24, r28
     726:	df 91       	pop	r29
     728:	cf 91       	pop	r28
     72a:	1f 91       	pop	r17
     72c:	0f 91       	pop	r16
     72e:	08 95       	ret

00000730 <DS18X20_read_meas>:
/* reads temperature (scratchpad) of sensor with rom-code id
   output: subzero==1 if temp.<0, cel: full celsius, mcel: frac
   in millicelsius*0.1
   i.e.: subzero=1, cel=18, millicel=5000 = -18,5000°C */
uint8_t DS18X20_read_meas(uint8_t *id, uint8_t *subzero, uint8_t *cel, uint8_t *cel_frac_bits)
{
     730:	6f 92       	push	r6
     732:	7f 92       	push	r7
     734:	8f 92       	push	r8
     736:	9f 92       	push	r9
     738:	af 92       	push	r10
     73a:	bf 92       	push	r11
     73c:	cf 92       	push	r12
     73e:	df 92       	push	r13
     740:	ef 92       	push	r14
     742:	ff 92       	push	r15
     744:	0f 93       	push	r16
     746:	1f 93       	push	r17
     748:	cf 93       	push	r28
     74a:	df 93       	push	r29
     74c:	cd b7       	in	r28, 0x3d	; 61
     74e:	de b7       	in	r29, 0x3e	; 62
     750:	29 97       	sbiw	r28, 0x09	; 9
     752:	0f b6       	in	r0, 0x3f	; 63
     754:	f8 94       	cli
     756:	de bf       	out	0x3e, r29	; 62
     758:	0f be       	out	0x3f, r0	; 63
     75a:	cd bf       	out	0x3d, r28	; 61
     75c:	6c 01       	movw	r12, r24
     75e:	5b 01       	movw	r10, r22
     760:	4a 01       	movw	r8, r20
     762:	39 01       	movw	r6, r18
	uint8_t i;
	uint8_t sp[DS18X20_SP_SIZE];

	if( ow_reset() ) return DS18X20_ERROR;
     764:	0e 94 05 04 	call	0x80a	; 0x80a <ow_reset>
     768:	81 11       	cpse	r24, r1
     76a:	28 c0       	rjmp	.+80     	; 0x7bc <DS18X20_read_meas+0x8c>

	ow_command(DS18X20_READ, id);
     76c:	b6 01       	movw	r22, r12
     76e:	8e eb       	ldi	r24, 0xBE	; 190
     770:	0e 94 a3 04 	call	0x946	; 0x946 <ow_command>
	for ( i=0 ; i< DS18X20_SP_SIZE; i++ ) sp[i]=ow_byte_rd();
     774:	10 e0       	ldi	r17, 0x00	; 0
     776:	0c c0       	rjmp	.+24     	; 0x790 <DS18X20_read_meas+0x60>
     778:	e1 2e       	mov	r14, r17
     77a:	f1 2c       	mov	r15, r1
     77c:	0e 94 4f 04 	call	0x89e	; 0x89e <ow_byte_rd>
     780:	e1 e0       	ldi	r30, 0x01	; 1
     782:	f0 e0       	ldi	r31, 0x00	; 0
     784:	ec 0f       	add	r30, r28
     786:	fd 1f       	adc	r31, r29
     788:	ee 0d       	add	r30, r14
     78a:	ff 1d       	adc	r31, r15
     78c:	80 83       	st	Z, r24
     78e:	1f 5f       	subi	r17, 0xFF	; 255
     790:	19 30       	cpi	r17, 0x09	; 9
     792:	90 f3       	brcs	.-28     	; 0x778 <DS18X20_read_meas+0x48>
	if ( crc8( &sp[0], DS18X20_SP_SIZE ) )
     794:	69 e0       	ldi	r22, 0x09	; 9
     796:	70 e0       	ldi	r23, 0x00	; 0
     798:	ce 01       	movw	r24, r28
     79a:	01 96       	adiw	r24, 0x01	; 1
     79c:	0e 94 8b 02 	call	0x516	; 0x516 <crc8>
     7a0:	f8 2e       	mov	r15, r24
     7a2:	81 11       	cpse	r24, r1
     7a4:	0e c0       	rjmp	.+28     	; 0x7c2 <DS18X20_read_meas+0x92>
		return DS18X20_ERROR_CRC;
	DS18X20_meas_to_cel(id[0], sp, subzero, cel, cel_frac_bits);
     7a6:	83 01       	movw	r16, r6
     7a8:	94 01       	movw	r18, r8
     7aa:	a5 01       	movw	r20, r10
     7ac:	be 01       	movw	r22, r28
     7ae:	6f 5f       	subi	r22, 0xFF	; 255
     7b0:	7f 4f       	sbci	r23, 0xFF	; 255
     7b2:	f6 01       	movw	r30, r12
     7b4:	80 81       	ld	r24, Z
     7b6:	0e 94 ad 02 	call	0x55a	; 0x55a <DS18X20_meas_to_cel>
	return DS18X20_OK;
     7ba:	07 c0       	rjmp	.+14     	; 0x7ca <DS18X20_read_meas+0x9a>
uint8_t DS18X20_read_meas(uint8_t *id, uint8_t *subzero, uint8_t *cel, uint8_t *cel_frac_bits)
{
	uint8_t i;
	uint8_t sp[DS18X20_SP_SIZE];

	if( ow_reset() ) return DS18X20_ERROR;
     7bc:	ff 24       	eor	r15, r15
     7be:	f3 94       	inc	r15
     7c0:	04 c0       	rjmp	.+8      	; 0x7ca <DS18X20_read_meas+0x9a>

	ow_command(DS18X20_READ, id);
	for ( i=0 ; i< DS18X20_SP_SIZE; i++ ) sp[i]=ow_byte_rd();
	if ( crc8( &sp[0], DS18X20_SP_SIZE ) )
		return DS18X20_ERROR_CRC;
     7c2:	0f 2e       	mov	r0, r31
     7c4:	f3 e0       	ldi	r31, 0x03	; 3
     7c6:	ff 2e       	mov	r15, r31
     7c8:	f0 2d       	mov	r31, r0
	DS18X20_meas_to_cel(id[0], sp, subzero, cel, cel_frac_bits);
	return DS18X20_OK;
}
     7ca:	8f 2d       	mov	r24, r15
     7cc:	29 96       	adiw	r28, 0x09	; 9
     7ce:	0f b6       	in	r0, 0x3f	; 63
     7d0:	f8 94       	cli
     7d2:	de bf       	out	0x3e, r29	; 62
     7d4:	0f be       	out	0x3f, r0	; 63
     7d6:	cd bf       	out	0x3d, r28	; 61
     7d8:	df 91       	pop	r29
     7da:	cf 91       	pop	r28
     7dc:	1f 91       	pop	r17
     7de:	0f 91       	pop	r16
     7e0:	ff 90       	pop	r15
     7e2:	ef 90       	pop	r14
     7e4:	df 90       	pop	r13
     7e6:	cf 90       	pop	r12
     7e8:	bf 90       	pop	r11
     7ea:	af 90       	pop	r10
     7ec:	9f 90       	pop	r9
     7ee:	8f 90       	pop	r8
     7f0:	7f 90       	pop	r7
     7f2:	6f 90       	pop	r6
     7f4:	08 95       	ret

000007f6 <ow_input_pin_state>:
}

void ow_parasite_disable(void)
{
    OW_OUT_LOW();
	OW_DIR_IN();
     7f6:	80 b3       	in	r24, 0x10	; 16
     7f8:	80 78       	andi	r24, 0x80	; 128
     7fa:	08 95       	ret

000007fc <ow_parasite_enable>:
     7fc:	82 b3       	in	r24, 0x12	; 18
     7fe:	80 68       	ori	r24, 0x80	; 128
     800:	82 bb       	out	0x12, r24	; 18
     802:	81 b3       	in	r24, 0x11	; 17
     804:	80 68       	ori	r24, 0x80	; 128
     806:	81 bb       	out	0x11, r24	; 17
     808:	08 95       	ret

0000080a <ow_reset>:
uint8_t ow_reset(void)
{
	uint8_t err;
	uint8_t sreg;

	OW_OUT_LOW(); // disable internal pull-up (maybe on from parasite)
     80a:	82 b3       	in	r24, 0x12	; 18
     80c:	8f 77       	andi	r24, 0x7F	; 127
     80e:	82 bb       	out	0x12, r24	; 18
	OW_DIR_OUT(); // pull OW-Pin low for 480us
     810:	81 b3       	in	r24, 0x11	; 17
     812:	80 68       	ori	r24, 0x80	; 128
     814:	81 bb       	out	0x11, r24	; 17
	#else
		//round up by default
		__ticks_dc = (uint32_t)(ceil(fabs(__tmp)));
	#endif

	__builtin_avr_delay_cycles(__ticks_dc);
     816:	8f e2       	ldi	r24, 0x2F	; 47
     818:	95 e0       	ldi	r25, 0x05	; 5
     81a:	01 97       	sbiw	r24, 0x01	; 1
     81c:	f1 f7       	brne	.-4      	; 0x81a <ow_reset+0x10>

	_delay_us(480);

	sreg=SREG;
     81e:	9f b7       	in	r25, 0x3f	; 63
	cli();
     820:	f8 94       	cli

	// set Pin as input - wait for clients to pull low
	OW_DIR_IN(); // input
     822:	81 b3       	in	r24, 0x11	; 17
     824:	8f 77       	andi	r24, 0x7F	; 127
     826:	81 bb       	out	0x11, r24	; 17
     828:	e3 ef       	ldi	r30, 0xF3	; 243
     82a:	ea 95       	dec	r30
     82c:	f1 f7       	brne	.-4      	; 0x82a <ow_reset+0x20>
     82e:	00 00       	nop

	_delay_us(66);
	err = OW_GET_IN();		// no presence detect
     830:	80 b3       	in	r24, 0x10	; 16
     832:	80 78       	andi	r24, 0x80	; 128
	// nobody pulled to low, still high

	SREG=sreg; // sei()
     834:	9f bf       	out	0x3f, r25	; 63
     836:	e8 e7       	ldi	r30, 0x78	; 120
     838:	f4 e0       	ldi	r31, 0x04	; 4
     83a:	31 97       	sbiw	r30, 0x01	; 1
     83c:	f1 f7       	brne	.-4      	; 0x83a <ow_reset+0x30>
     83e:	00 c0       	rjmp	.+0      	; 0x840 <ow_reset+0x36>

	// after a delay the clients should release the line
	// and input-pin gets back to high due to pull-up-resistor
	_delay_us(480-66);
	if( OW_GET_IN() == 0 )		// short circuit
     840:	87 9b       	sbis	0x10, 7	; 16
		err = 1;
     842:	81 e0       	ldi	r24, 0x01	; 1

	return err;
}
     844:	08 95       	ret

00000846 <ow_bit_io>:
   but around 14 cyles in configureable bus (us-Delay is 4 cyles per uS) */
uint8_t ow_bit_io( uint8_t b )
{
	uint8_t sreg;

	sreg=SREG;
     846:	2f b7       	in	r18, 0x3f	; 63
	cli();
     848:	f8 94       	cli

	OW_DIR_OUT(); // drive bus low
     84a:	91 b3       	in	r25, 0x11	; 17
     84c:	90 68       	ori	r25, 0x80	; 128
     84e:	91 bb       	out	0x11, r25	; 17
     850:	94 e0       	ldi	r25, 0x04	; 4
     852:	9a 95       	dec	r25
     854:	f1 f7       	brne	.-4      	; 0x852 <ow_bit_io+0xc>

	_delay_us(1); // Recovery-Time wuffwuff was 1
	if ( b ) OW_DIR_IN(); // if bit is 1 set bus high (by ext. pull-up)
     856:	88 23       	and	r24, r24
     858:	19 f0       	breq	.+6      	; 0x860 <__stack+0x1>
     85a:	91 b3       	in	r25, 0x11	; 17
     85c:	9f 77       	andi	r25, 0x7F	; 127
     85e:	91 bb       	out	0x11, r25	; 17
     860:	97 e3       	ldi	r25, 0x37	; 55
     862:	9a 95       	dec	r25
     864:	f1 f7       	brne	.-4      	; 0x862 <__stack+0x3>
     866:	00 00       	nop

	_delay_us(15);

	if( OW_GET_IN() == 0 ) b = 0;  // sample at end of read-timeslot
     868:	87 9b       	sbis	0x10, 7	; 16
     86a:	80 e0       	ldi	r24, 0x00	; 0
     86c:	96 ea       	ldi	r25, 0xA6	; 166
     86e:	9a 95       	dec	r25
     870:	f1 f7       	brne	.-4      	; 0x86e <__stack+0xf>

	_delay_us(60-15);
	OW_DIR_IN();
     872:	91 b3       	in	r25, 0x11	; 17
     874:	9f 77       	andi	r25, 0x7F	; 127
     876:	91 bb       	out	0x11, r25	; 17

	SREG=sreg; // sei();
     878:	2f bf       	out	0x3f, r18	; 63

	return b;
}
     87a:	08 95       	ret

0000087c <ow_byte_wr>:


uint8_t ow_byte_wr( uint8_t b )
{
     87c:	cf 93       	push	r28
     87e:	df 93       	push	r29
     880:	c8 2f       	mov	r28, r24
	uint8_t i = 8, j;
     882:	d8 e0       	ldi	r29, 0x08	; 8

	do {
		j = ow_bit_io( b & 1 );
     884:	8c 2f       	mov	r24, r28
     886:	81 70       	andi	r24, 0x01	; 1
     888:	0e 94 23 04 	call	0x846	; 0x846 <ow_bit_io>
		b >>= 1;
     88c:	c6 95       	lsr	r28
		if( j ) b |= 0x80;
     88e:	81 11       	cpse	r24, r1
     890:	c0 68       	ori	r28, 0x80	; 128
	} while( --i );
     892:	d1 50       	subi	r29, 0x01	; 1
     894:	b9 f7       	brne	.-18     	; 0x884 <ow_byte_wr+0x8>

	return b;
}
     896:	8c 2f       	mov	r24, r28
     898:	df 91       	pop	r29
     89a:	cf 91       	pop	r28
     89c:	08 95       	ret

0000089e <ow_byte_rd>:


uint8_t ow_byte_rd( void )
{
  // read by sending 0xff (a dontcare?)
  return ow_byte_wr( 0xFF );
     89e:	8f ef       	ldi	r24, 0xFF	; 255
     8a0:	0e 94 3e 04 	call	0x87c	; 0x87c <ow_byte_wr>
}
     8a4:	08 95       	ret

000008a6 <ow_rom_search>:


uint8_t ow_rom_search( uint8_t diff, uint8_t *id )
{
     8a6:	df 92       	push	r13
     8a8:	ef 92       	push	r14
     8aa:	ff 92       	push	r15
     8ac:	0f 93       	push	r16
     8ae:	1f 93       	push	r17
     8b0:	cf 93       	push	r28
     8b2:	df 93       	push	r29
     8b4:	d8 2e       	mov	r13, r24
     8b6:	8b 01       	movw	r16, r22
	uint8_t i, j, next_diff;
	uint8_t b;

	if( ow_reset() ) return OW_PRESENCE_ERR;	// error, no device found
     8b8:	0e 94 05 04 	call	0x80a	; 0x80a <ow_reset>
     8bc:	81 11       	cpse	r24, r1
     8be:	38 c0       	rjmp	.+112    	; 0x930 <ow_rom_search+0x8a>

	ow_byte_wr( OW_SEARCH_ROM );			// ROM search command
     8c0:	80 ef       	ldi	r24, 0xF0	; 240
     8c2:	0e 94 3e 04 	call	0x87c	; 0x87c <ow_byte_wr>
	next_diff = OW_LAST_DEVICE;			// unchanged on last device
     8c6:	e1 2c       	mov	r14, r1

	i = OW_ROMCODE_SIZE * 8;					// 8 bytes
     8c8:	68 94       	set
     8ca:	ff 24       	eor	r15, r15
     8cc:	f6 f8       	bld	r15, 6

	do {
		j = 8;					// 8 bits
     8ce:	d8 e0       	ldi	r29, 0x08	; 8
		do {
			b = ow_bit_io( 1 );			// read bit
     8d0:	81 e0       	ldi	r24, 0x01	; 1
     8d2:	0e 94 23 04 	call	0x846	; 0x846 <ow_bit_io>
     8d6:	c8 2f       	mov	r28, r24
			if( ow_bit_io( 1 ) ) {			// read complement bit
     8d8:	81 e0       	ldi	r24, 0x01	; 1
     8da:	0e 94 23 04 	call	0x846	; 0x846 <ow_bit_io>
     8de:	88 23       	and	r24, r24
     8e0:	19 f0       	breq	.+6      	; 0x8e8 <ow_rom_search+0x42>
				if( b )					// 11
     8e2:	cc 23       	and	r28, r28
     8e4:	89 f0       	breq	.+34     	; 0x908 <ow_rom_search+0x62>
     8e6:	26 c0       	rjmp	.+76     	; 0x934 <ow_rom_search+0x8e>
				return OW_DATA_ERR;			// data error
			}
			else {
				if( !b ) {				// 00 = 2 devices
     8e8:	c1 11       	cpse	r28, r1
     8ea:	0e c0       	rjmp	.+28     	; 0x908 <ow_rom_search+0x62>
					if( diff > i || ((*id & 1) && diff != i) ) {
     8ec:	fd 14       	cp	r15, r13
     8ee:	38 f0       	brcs	.+14     	; 0x8fe <ow_rom_search+0x58>
     8f0:	f8 01       	movw	r30, r16
     8f2:	80 81       	ld	r24, Z
     8f4:	80 ff       	sbrs	r24, 0
     8f6:	08 c0       	rjmp	.+16     	; 0x908 <ow_rom_search+0x62>
     8f8:	fd 10       	cpse	r15, r13
     8fa:	04 c0       	rjmp	.+8      	; 0x904 <ow_rom_search+0x5e>
     8fc:	05 c0       	rjmp	.+10     	; 0x908 <ow_rom_search+0x62>
					b = 1;				// now 1
					next_diff = i;			// next pass 0
     8fe:	ef 2c       	mov	r14, r15
				return OW_DATA_ERR;			// data error
			}
			else {
				if( !b ) {				// 00 = 2 devices
					if( diff > i || ((*id & 1) && diff != i) ) {
					b = 1;				// now 1
     900:	c1 e0       	ldi	r28, 0x01	; 1
     902:	02 c0       	rjmp	.+4      	; 0x908 <ow_rom_search+0x62>
					next_diff = i;			// next pass 0
     904:	ef 2c       	mov	r14, r15
				return OW_DATA_ERR;			// data error
			}
			else {
				if( !b ) {				// 00 = 2 devices
					if( diff > i || ((*id & 1) && diff != i) ) {
					b = 1;				// now 1
     906:	c1 e0       	ldi	r28, 0x01	; 1
					next_diff = i;			// next pass 0
					}
				}
			}
			ow_bit_io( b );     			// write bit
     908:	8c 2f       	mov	r24, r28
     90a:	0e 94 23 04 	call	0x846	; 0x846 <ow_bit_io>
			*id >>= 1;
     90e:	f8 01       	movw	r30, r16
     910:	90 81       	ld	r25, Z
     912:	96 95       	lsr	r25
     914:	90 83       	st	Z, r25
			if( b ) *id |= 0x80;			// store bit
     916:	cc 23       	and	r28, r28
     918:	11 f0       	breq	.+4      	; 0x91e <ow_rom_search+0x78>
     91a:	90 68       	ori	r25, 0x80	; 128
     91c:	90 83       	st	Z, r25

			i--;
     91e:	fa 94       	dec	r15

		} while( --j );
     920:	d1 50       	subi	r29, 0x01	; 1
     922:	b1 f6       	brne	.-84     	; 0x8d0 <ow_rom_search+0x2a>

		id++;					// next byte
     924:	0f 5f       	subi	r16, 0xFF	; 255
     926:	1f 4f       	sbci	r17, 0xFF	; 255

	} while( i );
     928:	f1 10       	cpse	r15, r1
     92a:	d1 cf       	rjmp	.-94     	; 0x8ce <ow_rom_search+0x28>

	return next_diff;				// to continue search
     92c:	8e 2d       	mov	r24, r14
     92e:	03 c0       	rjmp	.+6      	; 0x936 <ow_rom_search+0x90>
uint8_t ow_rom_search( uint8_t diff, uint8_t *id )
{
	uint8_t i, j, next_diff;
	uint8_t b;

	if( ow_reset() ) return OW_PRESENCE_ERR;	// error, no device found
     930:	8f ef       	ldi	r24, 0xFF	; 255
     932:	01 c0       	rjmp	.+2      	; 0x936 <ow_rom_search+0x90>
		j = 8;					// 8 bits
		do {
			b = ow_bit_io( 1 );			// read bit
			if( ow_bit_io( 1 ) ) {			// read complement bit
				if( b )					// 11
				return OW_DATA_ERR;			// data error
     934:	8e ef       	ldi	r24, 0xFE	; 254
		id++;					// next byte

	} while( i );

	return next_diff;				// to continue search
}
     936:	df 91       	pop	r29
     938:	cf 91       	pop	r28
     93a:	1f 91       	pop	r17
     93c:	0f 91       	pop	r16
     93e:	ff 90       	pop	r15
     940:	ef 90       	pop	r14
     942:	df 90       	pop	r13
     944:	08 95       	ret

00000946 <ow_command>:


void ow_command( uint8_t command, uint8_t *id )
{
     946:	0f 93       	push	r16
     948:	1f 93       	push	r17
     94a:	cf 93       	push	r28
     94c:	df 93       	push	r29
     94e:	d8 2f       	mov	r29, r24
     950:	8b 01       	movw	r16, r22
	uint8_t i;

	ow_reset();
     952:	0e 94 05 04 	call	0x80a	; 0x80a <ow_reset>

	if( id ) {
     956:	01 15       	cp	r16, r1
     958:	11 05       	cpc	r17, r1
     95a:	61 f0       	breq	.+24     	; 0x974 <ow_command+0x2e>
		ow_byte_wr( OW_MATCH_ROM );			// to a single device
     95c:	85 e5       	ldi	r24, 0x55	; 85
     95e:	0e 94 3e 04 	call	0x87c	; 0x87c <ow_byte_wr>
		i = OW_ROMCODE_SIZE;
     962:	c8 e0       	ldi	r28, 0x08	; 8
		do {
			ow_byte_wr( *id );
     964:	f8 01       	movw	r30, r16
     966:	81 91       	ld	r24, Z+
     968:	8f 01       	movw	r16, r30
     96a:	0e 94 3e 04 	call	0x87c	; 0x87c <ow_byte_wr>
			id++;
		} while( --i );
     96e:	c1 50       	subi	r28, 0x01	; 1
     970:	c9 f7       	brne	.-14     	; 0x964 <ow_command+0x1e>
     972:	03 c0       	rjmp	.+6      	; 0x97a <ow_command+0x34>
	}
	else {
		ow_byte_wr( OW_SKIP_ROM );			// to all devices
     974:	8c ec       	ldi	r24, 0xCC	; 204
     976:	0e 94 3e 04 	call	0x87c	; 0x87c <ow_byte_wr>
	}

	ow_byte_wr( command );
     97a:	8d 2f       	mov	r24, r29
     97c:	0e 94 3e 04 	call	0x87c	; 0x87c <ow_byte_wr>
}
     980:	df 91       	pop	r29
     982:	cf 91       	pop	r28
     984:	1f 91       	pop	r17
     986:	0f 91       	pop	r16
     988:	08 95       	ret

0000098a <d_led_init>:


// ****** definicja funkcji inicjalizuj¹cej pracê z wyœwietlaczem multipleksowanym
void d_led_init(void)
{
	LED_DATA_DIR = 0xFF;   					// wszystkie piny portu C jako WYJŒCIA(katody)
     98a:	8f ef       	ldi	r24, 0xFF	; 255
     98c:	87 bb       	out	0x17, r24	; 23
	LED_DATA = 0xFF;						// wygaszenie wszystkich katod – stan wysoki
     98e:	88 bb       	out	0x18, r24	; 24
	ANODY_DIR |= CA1 | CA2 | CA3 | CA4;		// 4 piny portu A jako WYJŒCIA (anody wyœwietlaczy)
     990:	8a b3       	in	r24, 0x1a	; 26
     992:	8f 60       	ori	r24, 0x0F	; 15
     994:	8a bb       	out	0x1a, r24	; 26
	LED_ANODY |= CA1 | CA2 | CA3  | CA4;	// wygaszenie wszystkich wyœwietlaczy - anody
     996:	8b b3       	in	r24, 0x1b	; 27
     998:	8f 60       	ori	r24, 0x0F	; 15
     99a:	8b bb       	out	0x1b, r24	; 27

	// ustawienie TIMER0
	TCCR0 |= (1<<WGM01);				// tryb CTC
     99c:	83 b7       	in	r24, 0x33	; 51
     99e:	88 60       	ori	r24, 0x08	; 8
     9a0:	83 bf       	out	0x33, r24	; 51
	TCCR0 |= (1<<CS02)|(1<<CS00);		// preskaler = 1024
     9a2:	83 b7       	in	r24, 0x33	; 51
     9a4:	85 60       	ori	r24, 0x05	; 5
     9a6:	83 bf       	out	0x33, r24	; 51
	OCR0 = 39;							// dodatkowy podzia³ przez 39 (rej. przepe³nienia)
     9a8:	87 e2       	ldi	r24, 0x27	; 39
     9aa:	8c bf       	out	0x3c, r24	; 60
	TIMSK |= (1<<OCIE0);				// zezwolenie na przerwanie CompareMatch
     9ac:	89 b7       	in	r24, 0x39	; 57
     9ae:	82 60       	ori	r24, 0x02	; 2
     9b0:	89 bf       	out	0x39, r24	; 57
     9b2:	08 95       	ret

000009b4 <__vector_10>:


#define MASKA_ANODY (CA1|CA2|CA3|CA4)
// ================= PROCEDURA OBS£UGI PRZERWANIA – COMPARE MATCH
ISR(TIMER0_COMP_vect)
{
     9b4:	1f 92       	push	r1
     9b6:	0f 92       	push	r0
     9b8:	0f b6       	in	r0, 0x3f	; 63
     9ba:	0f 92       	push	r0
     9bc:	11 24       	eor	r1, r1
     9be:	8f 93       	push	r24
     9c0:	9f 93       	push	r25
     9c2:	ef 93       	push	r30
     9c4:	ff 93       	push	r31
	static uint8_t an[4] = {CA1,CA2,CA3,CA4};
	static uint8_t idx;

	LED_ANODY |= MASKA_ANODY;
     9c6:	8b b3       	in	r24, 0x1b	; 27
     9c8:	8f 60       	ori	r24, 0x0F	; 15
     9ca:	8b bb       	out	0x1b, r24	; 27

	if(idx==0) LED_DATA = pgm_read_byte( &cyfry[cy1] );	// gdy zapalony wyœw.1 podaj stan zmiennej c1
     9cc:	80 91 4e 03 	lds	r24, 0x034E	; 0x80034e <__data_end>
     9d0:	81 11       	cpse	r24, r1
     9d2:	08 c0       	rjmp	.+16     	; 0x9e4 <__vector_10+0x30>
     9d4:	e0 91 ae 07 	lds	r30, 0x07AE	; 0x8007ae <cy1>
     9d8:	f0 e0       	ldi	r31, 0x00	; 0
     9da:	e0 59       	subi	r30, 0x90	; 144
     9dc:	ff 4f       	sbci	r31, 0xFF	; 255
     9de:	e4 91       	lpm	r30, Z
     9e0:	e8 bb       	out	0x18, r30	; 24
     9e2:	1e c0       	rjmp	.+60     	; 0xa20 <__vector_10+0x6c>
	else if(idx==1) LED_DATA = pgm_read_byte( &cyfry[cy2]) | (~cyfry[11]);	// gdy zapalony wyœw.2 podaj stan zmiennej c2 (WITH DOT)
     9e4:	81 30       	cpi	r24, 0x01	; 1
     9e6:	49 f4       	brne	.+18     	; 0x9fa <__vector_10+0x46>
     9e8:	e0 91 af 07 	lds	r30, 0x07AF	; 0x8007af <cy2>
     9ec:	f0 e0       	ldi	r31, 0x00	; 0
     9ee:	e0 59       	subi	r30, 0x90	; 144
     9f0:	ff 4f       	sbci	r31, 0xFF	; 255
     9f2:	e4 91       	lpm	r30, Z
     9f4:	e0 68       	ori	r30, 0x80	; 128
     9f6:	e8 bb       	out	0x18, r30	; 24
     9f8:	13 c0       	rjmp	.+38     	; 0xa20 <__vector_10+0x6c>
	//else if(idx==1) LED_DATA = pgm_read_byte( &cyfry[cy2]) & cyfry[11];	// gdy zapalony wyœw.2 podaj stan zmiennej c2 (WITHOUT DOT)
	else if(idx==2) LED_DATA = pgm_read_byte( &cyfry[cy3] );	// gdy zapalony wyœw.3 podaj stan zmiennej c3
     9fa:	82 30       	cpi	r24, 0x02	; 2
     9fc:	41 f4       	brne	.+16     	; 0xa0e <__vector_10+0x5a>
     9fe:	e0 91 b0 07 	lds	r30, 0x07B0	; 0x8007b0 <cy3>
     a02:	f0 e0       	ldi	r31, 0x00	; 0
     a04:	e0 59       	subi	r30, 0x90	; 144
     a06:	ff 4f       	sbci	r31, 0xFF	; 255
     a08:	e4 91       	lpm	r30, Z
     a0a:	e8 bb       	out	0x18, r30	; 24
     a0c:	09 c0       	rjmp	.+18     	; 0xa20 <__vector_10+0x6c>
	else if(idx==3) LED_DATA = pgm_read_byte( &cyfry[cy4] );	// gdy zapalony wyœw.4 podaj stan zmiennej c4
     a0e:	83 30       	cpi	r24, 0x03	; 3
     a10:	39 f4       	brne	.+14     	; 0xa20 <__vector_10+0x6c>
     a12:	e0 91 ad 07 	lds	r30, 0x07AD	; 0x8007ad <cy4>
     a16:	f0 e0       	ldi	r31, 0x00	; 0
     a18:	e0 59       	subi	r30, 0x90	; 144
     a1a:	ff 4f       	sbci	r31, 0xFF	; 255
     a1c:	e4 91       	lpm	r30, Z
     a1e:	e8 bb       	out	0x18, r30	; 24



	LED_ANODY &= ~an[idx];
     a20:	9b b3       	in	r25, 0x1b	; 27
     a22:	e0 91 4e 03 	lds	r30, 0x034E	; 0x80034e <__data_end>
     a26:	f0 e0       	ldi	r31, 0x00	; 0
     a28:	ea 58       	subi	r30, 0x8A	; 138
     a2a:	ff 4f       	sbci	r31, 0xFF	; 255
     a2c:	80 81       	ld	r24, Z
     a2e:	80 95       	com	r24
     a30:	89 23       	and	r24, r25
     a32:	8b bb       	out	0x1b, r24	; 27
	

	if(++idx>3) idx=0;
     a34:	80 91 4e 03 	lds	r24, 0x034E	; 0x80034e <__data_end>
     a38:	8f 5f       	subi	r24, 0xFF	; 255
     a3a:	80 93 4e 03 	sts	0x034E, r24	; 0x80034e <__data_end>
     a3e:	84 30       	cpi	r24, 0x04	; 4
     a40:	10 f0       	brcs	.+4      	; 0xa46 <__vector_10+0x92>
     a42:	10 92 4e 03 	sts	0x034E, r1	; 0x80034e <__data_end>
	
}
     a46:	ff 91       	pop	r31
     a48:	ef 91       	pop	r30
     a4a:	9f 91       	pop	r25
     a4c:	8f 91       	pop	r24
     a4e:	0f 90       	pop	r0
     a50:	0f be       	out	0x3f, r0	; 63
     a52:	0f 90       	pop	r0
     a54:	1f 90       	pop	r1
     a56:	18 95       	reti

00000a58 <i2cSetBitrate>:

#include "i2c_twi.h"
void i2cSetBitrate(uint16_t bitrateKHz) {
	uint8_t bitrate_div;

	bitrate_div = ((F_CPU/1000l)/bitrateKHz);
     a58:	9c 01       	movw	r18, r24
     a5a:	40 e0       	ldi	r20, 0x00	; 0
     a5c:	50 e0       	ldi	r21, 0x00	; 0
     a5e:	63 e3       	ldi	r22, 0x33	; 51
     a60:	7b e2       	ldi	r23, 0x2B	; 43
     a62:	80 e0       	ldi	r24, 0x00	; 0
     a64:	90 e0       	ldi	r25, 0x00	; 0
     a66:	0e 94 17 1a 	call	0x342e	; 0x342e <__divmodsi4>
     a6a:	82 2f       	mov	r24, r18
	if(bitrate_div >= 16)
     a6c:	20 31       	cpi	r18, 0x10	; 16
     a6e:	48 f0       	brcs	.+18     	; 0xa82 <i2cSetBitrate+0x2a>
		bitrate_div = (bitrate_div-16)/2;
     a70:	30 e0       	ldi	r19, 0x00	; 0
     a72:	20 51       	subi	r18, 0x10	; 16
     a74:	31 09       	sbc	r19, r1
     a76:	c9 01       	movw	r24, r18
     a78:	99 23       	and	r25, r25
     a7a:	0c f4       	brge	.+2      	; 0xa7e <i2cSetBitrate+0x26>
     a7c:	01 96       	adiw	r24, 0x01	; 1
     a7e:	95 95       	asr	r25
     a80:	87 95       	ror	r24

	TWBR = bitrate_div;
     a82:	80 b9       	out	0x00, r24	; 0
     a84:	08 95       	ret

00000a86 <TWI_start>:
}

void TWI_start(void) {
	TWCR = (1<<TWINT)|(1<<TWEN)|(1<<TWSTA);
     a86:	84 ea       	ldi	r24, 0xA4	; 164
     a88:	86 bf       	out	0x36, r24	; 54
	while (!(TWCR&(1<<TWINT)));
     a8a:	06 b6       	in	r0, 0x36	; 54
     a8c:	07 fe       	sbrs	r0, 7
     a8e:	fd cf       	rjmp	.-6      	; 0xa8a <TWI_start+0x4>
}
     a90:	08 95       	ret

00000a92 <TWI_stop>:

void TWI_stop(void) {
	TWCR = (1<<TWINT)|(1<<TWEN)|(1<<TWSTO);
     a92:	84 e9       	ldi	r24, 0x94	; 148
     a94:	86 bf       	out	0x36, r24	; 54
	while ( (TWCR&(1<<TWSTO)) );
     a96:	06 b6       	in	r0, 0x36	; 54
     a98:	04 fc       	sbrc	r0, 4
     a9a:	fd cf       	rjmp	.-6      	; 0xa96 <TWI_stop+0x4>
}
     a9c:	08 95       	ret

00000a9e <TWI_write>:

void TWI_write(uint8_t bajt) {
	TWDR = bajt;
     a9e:	83 b9       	out	0x03, r24	; 3
	TWCR = (1<<TWINT)|(1<<TWEN);
     aa0:	84 e8       	ldi	r24, 0x84	; 132
     aa2:	86 bf       	out	0x36, r24	; 54
	while ( !(TWCR&(1<<TWINT)));
     aa4:	06 b6       	in	r0, 0x36	; 54
     aa6:	07 fe       	sbrs	r0, 7
     aa8:	fd cf       	rjmp	.-6      	; 0xaa4 <TWI_write+0x6>
}
     aaa:	08 95       	ret

00000aac <TWI_read>:

uint8_t TWI_read(uint8_t ack) {
	TWCR = (1<<TWINT)|(ack<<TWEA)|(1<<TWEN);
     aac:	20 e4       	ldi	r18, 0x40	; 64
     aae:	82 9f       	mul	r24, r18
     ab0:	c0 01       	movw	r24, r0
     ab2:	11 24       	eor	r1, r1
     ab4:	84 68       	ori	r24, 0x84	; 132
     ab6:	86 bf       	out	0x36, r24	; 54
	while ( !(TWCR & (1<<TWINT)));
     ab8:	06 b6       	in	r0, 0x36	; 54
     aba:	07 fe       	sbrs	r0, 7
     abc:	fd cf       	rjmp	.-6      	; 0xab8 <TWI_read+0xc>
	return TWDR;
     abe:	83 b1       	in	r24, 0x03	; 3
}
     ac0:	08 95       	ret

00000ac2 <TWI_write_buf>:



void TWI_write_buf( uint8_t SLA, uint8_t adr, uint8_t len, uint8_t *buf ) {
     ac2:	ef 92       	push	r14
     ac4:	ff 92       	push	r15
     ac6:	0f 93       	push	r16
     ac8:	1f 93       	push	r17
     aca:	cf 93       	push	r28
     acc:	df 93       	push	r29
     ace:	f8 2e       	mov	r15, r24
     ad0:	d6 2f       	mov	r29, r22
     ad2:	c4 2f       	mov	r28, r20
     ad4:	89 01       	movw	r16, r18

	TWI_start();
     ad6:	0e 94 43 05 	call	0xa86	; 0xa86 <TWI_start>
	TWI_write(SLA);
     ada:	8f 2d       	mov	r24, r15
     adc:	0e 94 4f 05 	call	0xa9e	; 0xa9e <TWI_write>
	TWI_write(adr);
     ae0:	8d 2f       	mov	r24, r29
     ae2:	0e 94 4f 05 	call	0xa9e	; 0xa9e <TWI_write>
	while (len--) TWI_write(*buf++);
     ae6:	0a c0       	rjmp	.+20     	; 0xafc <TWI_write_buf+0x3a>
     ae8:	78 01       	movw	r14, r16
     aea:	8f ef       	ldi	r24, 0xFF	; 255
     aec:	e8 1a       	sub	r14, r24
     aee:	f8 0a       	sbc	r15, r24
     af0:	f8 01       	movw	r30, r16
     af2:	80 81       	ld	r24, Z
     af4:	0e 94 4f 05 	call	0xa9e	; 0xa9e <TWI_write>
     af8:	cd 2f       	mov	r28, r29
     afa:	87 01       	movw	r16, r14
     afc:	df ef       	ldi	r29, 0xFF	; 255
     afe:	dc 0f       	add	r29, r28
     b00:	c1 11       	cpse	r28, r1
     b02:	f2 cf       	rjmp	.-28     	; 0xae8 <TWI_write_buf+0x26>
	TWI_stop();
     b04:	0e 94 49 05 	call	0xa92	; 0xa92 <TWI_stop>
}
     b08:	df 91       	pop	r29
     b0a:	cf 91       	pop	r28
     b0c:	1f 91       	pop	r17
     b0e:	0f 91       	pop	r16
     b10:	ff 90       	pop	r15
     b12:	ef 90       	pop	r14
     b14:	08 95       	ret

00000b16 <TWI_read_buf>:



void TWI_read_buf(uint8_t SLA, uint8_t adr, uint8_t len, uint8_t *buf) {
     b16:	ef 92       	push	r14
     b18:	ff 92       	push	r15
     b1a:	0f 93       	push	r16
     b1c:	1f 93       	push	r17
     b1e:	cf 93       	push	r28
     b20:	df 93       	push	r29
     b22:	d8 2f       	mov	r29, r24
     b24:	f6 2e       	mov	r15, r22
     b26:	c4 2f       	mov	r28, r20
     b28:	89 01       	movw	r16, r18

	TWI_start();
     b2a:	0e 94 43 05 	call	0xa86	; 0xa86 <TWI_start>
	TWI_write(SLA);
     b2e:	8d 2f       	mov	r24, r29
     b30:	0e 94 4f 05 	call	0xa9e	; 0xa9e <TWI_write>
	TWI_write(adr);
     b34:	8f 2d       	mov	r24, r15
     b36:	0e 94 4f 05 	call	0xa9e	; 0xa9e <TWI_write>
	TWI_start();
     b3a:	0e 94 43 05 	call	0xa86	; 0xa86 <TWI_start>
	TWI_write(SLA + 1);
     b3e:	81 e0       	ldi	r24, 0x01	; 1
     b40:	8d 0f       	add	r24, r29
     b42:	0e 94 4f 05 	call	0xa9e	; 0xa9e <TWI_write>
	while (len--) *buf++ = TWI_read( len ? ACK : NACK );
     b46:	0e c0       	rjmp	.+28     	; 0xb64 <TWI_read_buf+0x4e>
     b48:	78 01       	movw	r14, r16
     b4a:	8f ef       	ldi	r24, 0xFF	; 255
     b4c:	e8 1a       	sub	r14, r24
     b4e:	f8 0a       	sbc	r15, r24
     b50:	81 e0       	ldi	r24, 0x01	; 1
     b52:	d1 11       	cpse	r29, r1
     b54:	01 c0       	rjmp	.+2      	; 0xb58 <TWI_read_buf+0x42>
     b56:	80 e0       	ldi	r24, 0x00	; 0
     b58:	0e 94 56 05 	call	0xaac	; 0xaac <TWI_read>
     b5c:	f8 01       	movw	r30, r16
     b5e:	80 83       	st	Z, r24
     b60:	cd 2f       	mov	r28, r29
     b62:	87 01       	movw	r16, r14
     b64:	df ef       	ldi	r29, 0xFF	; 255
     b66:	dc 0f       	add	r29, r28
     b68:	c1 11       	cpse	r28, r1
     b6a:	ee cf       	rjmp	.-36     	; 0xb48 <TWI_read_buf+0x32>
	TWI_stop();
     b6c:	0e 94 49 05 	call	0xa92	; 0xa92 <TWI_stop>
}
     b70:	df 91       	pop	r29
     b72:	cf 91       	pop	r28
     b74:	1f 91       	pop	r17
     b76:	0f 91       	pop	r16
     b78:	ff 90       	pop	r15
     b7a:	ef 90       	pop	r14
     b7c:	08 95       	ret

00000b7e <ir_init>:
volatile uint8_t Ir_key_press_flag;

volatile uint8_t rc5cnt;

void ir_init() {
	DDR(IR_PORT) &= ~IR_IN;		// pin jako wejœcie
     b7e:	81 b3       	in	r24, 0x11	; 17
     b80:	8f 7b       	andi	r24, 0xBF	; 191
     b82:	81 bb       	out	0x11, r24	; 17
	PORT(IR_PORT) |= IR_IN;		// podci¹gniêcie pinu do VCC
     b84:	82 b3       	in	r24, 0x12	; 18
     b86:	80 64       	ori	r24, 0x40	; 64
     b88:	82 bb       	out	0x12, r24	; 18
	#if TIMER1_PRESCALER == 1
		TCCR1B |= (1<<CS10);         	// Timer1 / 1
	#endif
	#if TIMER1_PRESCALER == 8
		TCCR1B |= (1<<CS11);         	// Timer1 / 8
     b8a:	8e b5       	in	r24, 0x2e	; 46
     b8c:	82 60       	ori	r24, 0x02	; 2
     b8e:	8e bd       	out	0x2e, r24	; 46
	#endif
	#if TIMER1_PRESCALER == 256
		TCCR1B |= (1<<CS12);         	// Timer1 / 256
	#endif

	TCCR1B &= ~(1<<ICES1);      	// Zbocze opadaj¹ce na ICP
     b90:	8e b5       	in	r24, 0x2e	; 46
     b92:	8f 7b       	andi	r24, 0xBF	; 191
     b94:	8e bd       	out	0x2e, r24	; 46
	rc5cnt = 0;						// zerowanie licznika wystêpuj¹ych zboczy
     b96:	10 92 b4 07 	sts	0x07B4, r1	; 0x8007b4 <rc5cnt>

	TIMSK |= (1<<TICIE1);        	// Przerwanie od ICP
     b9a:	89 b7       	in	r24, 0x39	; 57
     b9c:	80 62       	ori	r24, 0x20	; 32
     b9e:	89 bf       	out	0x39, r24	; 57
	Ir_key_press_flag = 0;			// zerowanie flagi otrzymania kodu z pilota
     ba0:	10 92 b5 07 	sts	0x07B5, r1	; 0x8007b5 <Ir_key_press_flag>
     ba4:	08 95       	ret

00000ba6 <__vector_6>:




// procedura obs³ugi przerwania ICP1
ISR(TIMER1_CAPT_vect) {
     ba6:	1f 92       	push	r1
     ba8:	0f 92       	push	r0
     baa:	0f b6       	in	r0, 0x3f	; 63
     bac:	0f 92       	push	r0
     bae:	11 24       	eor	r1, r1
     bb0:	2f 93       	push	r18
     bb2:	3f 93       	push	r19
     bb4:	8f 93       	push	r24
     bb6:	9f 93       	push	r25
	static uint8_t IrPulseCount;
	static uint16_t IrData;
	static uint8_t frame_status;


	PulseWidth = ICR1 - LastCapture;
     bb8:	86 b5       	in	r24, 0x26	; 38
     bba:	97 b5       	in	r25, 0x27	; 39
     bbc:	20 91 53 03 	lds	r18, 0x0353	; 0x800353 <LastCapture.1617>
     bc0:	30 91 54 03 	lds	r19, 0x0354	; 0x800354 <LastCapture.1617+0x1>
     bc4:	82 1b       	sub	r24, r18
     bc6:	93 0b       	sbc	r25, r19
	LastCapture = ICR1;
     bc8:	26 b5       	in	r18, 0x26	; 38
     bca:	37 b5       	in	r19, 0x27	; 39
     bcc:	30 93 54 03 	sts	0x0354, r19	; 0x800354 <LastCapture.1617+0x1>
     bd0:	20 93 53 03 	sts	0x0353, r18	; 0x800353 <LastCapture.1617>

	TCCR1B ^= (1<<ICES1);	// zmiana zbocza wyzwalaj¹cego na przeciwne
     bd4:	3e b5       	in	r19, 0x2e	; 46
     bd6:	20 e4       	ldi	r18, 0x40	; 64
     bd8:	23 27       	eor	r18, r19
     bda:	2e bd       	out	0x2e, r18	; 46

	if (PulseWidth > MAX_BIT) rc5cnt = 0;
     bdc:	80 3a       	cpi	r24, 0xA0	; 160
     bde:	2a e0       	ldi	r18, 0x0A	; 10
     be0:	92 07       	cpc	r25, r18
     be2:	10 f0       	brcs	.+4      	; 0xbe8 <__vector_6+0x42>
     be4:	10 92 b4 07 	sts	0x07B4, r1	; 0x8007b4 <rc5cnt>

	if (rc5cnt > 0) frame_status = FRAME_OK;
     be8:	20 91 b4 07 	lds	r18, 0x07B4	; 0x8007b4 <rc5cnt>
     bec:	22 23       	and	r18, r18
     bee:	19 f0       	breq	.+6      	; 0xbf6 <__vector_6+0x50>
     bf0:	21 e0       	ldi	r18, 0x01	; 1
     bf2:	20 93 52 03 	sts	0x0352, r18	; 0x800352 <frame_status.1621>

	if (rc5cnt == 0) {
     bf6:	20 91 b4 07 	lds	r18, 0x07B4	; 0x8007b4 <rc5cnt>
     bfa:	21 11       	cpse	r18, r1
     bfc:	11 c0       	rjmp	.+34     	; 0xc20 <__vector_6+0x7a>
		IrData = 0;
     bfe:	10 92 51 03 	sts	0x0351, r1	; 0x800351 <IrData.1620+0x1>
     c02:	10 92 50 03 	sts	0x0350, r1	; 0x800350 <IrData.1620>
		IrPulseCount = 0;
     c06:	10 92 4f 03 	sts	0x034F, r1	; 0x80034f <IrPulseCount.1619>
		TCCR1B |= (1<<ICES1);
     c0a:	2e b5       	in	r18, 0x2e	; 46
     c0c:	20 64       	ori	r18, 0x40	; 64
     c0e:	2e bd       	out	0x2e, r18	; 46
		rc5cnt++;
     c10:	20 91 b4 07 	lds	r18, 0x07B4	; 0x8007b4 <rc5cnt>
     c14:	2f 5f       	subi	r18, 0xFF	; 255
     c16:	20 93 b4 07 	sts	0x07B4, r18	; 0x8007b4 <rc5cnt>
		frame_status = FRAME_END;
     c1a:	22 e0       	ldi	r18, 0x02	; 2
     c1c:	20 93 52 03 	sts	0x0352, r18	; 0x800352 <frame_status.1621>
	}

	if (frame_status == FRAME_OK) {
     c20:	20 91 52 03 	lds	r18, 0x0352	; 0x800352 <frame_status.1621>
     c24:	21 30       	cpi	r18, 0x01	; 1
     c26:	09 f0       	breq	.+2      	; 0xc2a <__vector_6+0x84>
     c28:	67 c0       	rjmp	.+206    	; 0xcf8 <__vector_6+0x152>

	    // gdy zak³ócenia (szpilki) - RESTART
		if(PulseWidth<MIN_HALF_BIT) frame_status = FRAME_RESTART;
     c2a:	83 3b       	cpi	r24, 0xB3	; 179
     c2c:	23 e0       	ldi	r18, 0x03	; 3
     c2e:	92 07       	cpc	r25, r18
     c30:	10 f4       	brcc	.+4      	; 0xc36 <__vector_6+0x90>
     c32:	10 92 52 03 	sts	0x0352, r1	; 0x800352 <frame_status.1621>

			// gdy b³¹d ramki danych (mo¿e inny standard ni¿ RC5) RESTART
			if( PulseWidth > MAX_BIT ) frame_status = FRAME_RESTART;
     c36:	80 3a       	cpi	r24, 0xA0	; 160
     c38:	2a e0       	ldi	r18, 0x0A	; 10
     c3a:	92 07       	cpc	r25, r18
     c3c:	10 f0       	brcs	.+4      	; 0xc42 <__vector_6+0x9c>
     c3e:	10 92 52 03 	sts	0x0352, r1	; 0x800352 <frame_status.1621>

			if (frame_status == FRAME_OK) 	{
     c42:	20 91 52 03 	lds	r18, 0x0352	; 0x800352 <frame_status.1621>
     c46:	21 30       	cpi	r18, 0x01	; 1
     c48:	09 f0       	breq	.+2      	; 0xc4c <__vector_6+0xa6>
     c4a:	56 c0       	rjmp	.+172    	; 0xcf8 <__vector_6+0x152>
				if (PulseWidth > MAX_HALF_BIT) rc5cnt++;
     c4c:	8a 3d       	cpi	r24, 0xDA	; 218
     c4e:	95 40       	sbci	r25, 0x05	; 5
     c50:	28 f0       	brcs	.+10     	; 0xc5c <__vector_6+0xb6>
     c52:	80 91 b4 07 	lds	r24, 0x07B4	; 0x8007b4 <rc5cnt>
     c56:	8f 5f       	subi	r24, 0xFF	; 255
     c58:	80 93 b4 07 	sts	0x07B4, r24	; 0x8007b4 <rc5cnt>

					if (rc5cnt > 1)
     c5c:	80 91 b4 07 	lds	r24, 0x07B4	; 0x8007b4 <rc5cnt>
     c60:	82 30       	cpi	r24, 0x02	; 2
     c62:	08 f4       	brcc	.+2      	; 0xc66 <__vector_6+0xc0>
     c64:	44 c0       	rjmp	.+136    	; 0xcee <__vector_6+0x148>
					if ( (rc5cnt % 2) == 0 ) {
     c66:	80 91 b4 07 	lds	r24, 0x07B4	; 0x8007b4 <rc5cnt>
     c6a:	80 fd       	sbrc	r24, 0
     c6c:	40 c0       	rjmp	.+128    	; 0xcee <__vector_6+0x148>
						IrData = IrData << 1;
     c6e:	80 91 50 03 	lds	r24, 0x0350	; 0x800350 <IrData.1620>
     c72:	90 91 51 03 	lds	r25, 0x0351	; 0x800351 <IrData.1620+0x1>
     c76:	88 0f       	add	r24, r24
     c78:	99 1f       	adc	r25, r25
     c7a:	90 93 51 03 	sts	0x0351, r25	; 0x800351 <IrData.1620+0x1>
     c7e:	80 93 50 03 	sts	0x0350, r24	; 0x800350 <IrData.1620>
						if((TCCR1B & (1<<ICES1))) IrData |= 0x0001;
     c82:	0e b4       	in	r0, 0x2e	; 46
     c84:	06 fe       	sbrs	r0, 6
     c86:	05 c0       	rjmp	.+10     	; 0xc92 <__vector_6+0xec>
     c88:	81 60       	ori	r24, 0x01	; 1
     c8a:	90 93 51 03 	sts	0x0351, r25	; 0x800351 <IrData.1620+0x1>
     c8e:	80 93 50 03 	sts	0x0350, r24	; 0x800350 <IrData.1620>
						IrPulseCount++;
     c92:	80 91 4f 03 	lds	r24, 0x034F	; 0x80034f <IrPulseCount.1619>
     c96:	8f 5f       	subi	r24, 0xFF	; 255
     c98:	80 93 4f 03 	sts	0x034F, r24	; 0x80034f <IrPulseCount.1619>

						if (IrPulseCount > 12) 	{
     c9c:	8d 30       	cpi	r24, 0x0D	; 13
     c9e:	38 f1       	brcs	.+78     	; 0xcee <__vector_6+0x148>
							if (Ir_key_press_flag == 0) {
     ca0:	80 91 b5 07 	lds	r24, 0x07B5	; 0x8007b5 <Ir_key_press_flag>
     ca4:	81 11       	cpse	r24, r1
     ca6:	1e c0       	rjmp	.+60     	; 0xce4 <__vector_6+0x13e>
								command = IrData & 0b0000000000111111;
     ca8:	80 91 50 03 	lds	r24, 0x0350	; 0x800350 <IrData.1620>
     cac:	90 91 51 03 	lds	r25, 0x0351	; 0x800351 <IrData.1620+0x1>
     cb0:	28 2f       	mov	r18, r24
     cb2:	2f 73       	andi	r18, 0x3F	; 63
     cb4:	20 93 b3 07 	sts	0x07B3, r18	; 0x8007b3 <command>
								address = (IrData & 0b0000011111000000) >> 6;
     cb8:	9c 01       	movw	r18, r24
     cba:	20 7c       	andi	r18, 0xC0	; 192
     cbc:	37 70       	andi	r19, 0x07	; 7
     cbe:	00 24       	eor	r0, r0
     cc0:	22 0f       	add	r18, r18
     cc2:	33 1f       	adc	r19, r19
     cc4:	00 1c       	adc	r0, r0
     cc6:	22 0f       	add	r18, r18
     cc8:	33 1f       	adc	r19, r19
     cca:	00 1c       	adc	r0, r0
     ccc:	23 2f       	mov	r18, r19
     cce:	30 2d       	mov	r19, r0
     cd0:	20 93 b2 07 	sts	0x07B2, r18	; 0x8007b2 <address>
								toggle_bit = (IrData & 0b0000100000000000) >> 11;
     cd4:	88 27       	eor	r24, r24
     cd6:	98 70       	andi	r25, 0x08	; 8
     cd8:	89 2f       	mov	r24, r25
     cda:	86 95       	lsr	r24
     cdc:	86 95       	lsr	r24
     cde:	86 95       	lsr	r24
     ce0:	80 93 b1 07 	sts	0x07B1, r24	; 0x8007b1 <toggle_bit>
							}
							frame_status = FRAME_RESTART;
     ce4:	10 92 52 03 	sts	0x0352, r1	; 0x800352 <frame_status.1621>
							Ir_key_press_flag = 1;
     ce8:	81 e0       	ldi	r24, 0x01	; 1
     cea:	80 93 b5 07 	sts	0x07B5, r24	; 0x8007b5 <Ir_key_press_flag>
						}
					}
					rc5cnt++;
     cee:	80 91 b4 07 	lds	r24, 0x07B4	; 0x8007b4 <rc5cnt>
     cf2:	8f 5f       	subi	r24, 0xFF	; 255
     cf4:	80 93 b4 07 	sts	0x07B4, r24	; 0x8007b4 <rc5cnt>
			}
	}

	if (frame_status == FRAME_RESTART)	{
     cf8:	80 91 52 03 	lds	r24, 0x0352	; 0x800352 <frame_status.1621>
     cfc:	81 11       	cpse	r24, r1
     cfe:	05 c0       	rjmp	.+10     	; 0xd0a <__vector_6+0x164>
		rc5cnt = 0;
     d00:	10 92 b4 07 	sts	0x07B4, r1	; 0x8007b4 <rc5cnt>
		TCCR1B &= ~(1<<ICES1);
     d04:	8e b5       	in	r24, 0x2e	; 46
     d06:	8f 7b       	andi	r24, 0xBF	; 191
     d08:	8e bd       	out	0x2e, r24	; 46
	}
}
     d0a:	9f 91       	pop	r25
     d0c:	8f 91       	pop	r24
     d0e:	3f 91       	pop	r19
     d10:	2f 91       	pop	r18
     d12:	0f 90       	pop	r0
     d14:	0f be       	out	0x3f, r0	; 63
     d16:	0f 90       	pop	r0
     d18:	1f 90       	pop	r1
     d1a:	18 95       	reti

00000d1c <key2_press>:


/***********************Function for button 2 (short press) - LED display ON***********************/
void key2_press(void) 
{
	led_display = 1;
     d1c:	81 e0       	ldi	r24, 0x01	; 1
     d1e:	80 93 62 00 	sts	0x0062, r24	; 0x800062 <led_display>
	uart_puts("LED display ON\r\n");
     d22:	8c e4       	ldi	r24, 0x4C	; 76
     d24:	91 e0       	ldi	r25, 0x01	; 1
     d26:	0e 94 15 0f 	call	0x1e2a	; 0x1e2a <uart_puts>
     d2a:	08 95       	ret

00000d2c <key2_repeat>:


/***********************Function for button 2 (long press) - LED display OFF***********************/
void key2_repeat(void) 
{
	led_display = 0;
     d2c:	10 92 62 00 	sts	0x0062, r1	; 0x800062 <led_display>
	uart_puts("LED display OFF\r\n");
     d30:	83 e6       	ldi	r24, 0x63	; 99
     d32:	91 e0       	ldi	r25, 0x01	; 1
     d34:	0e 94 15 0f 	call	0x1e2a	; 0x1e2a <uart_puts>
     d38:	08 95       	ret

00000d3a <key3_press>:


/***********************Function for button 3 (short press) - LED blinks***********************/
void key3_press(void)
{
	led_blink = 1;
     d3a:	81 e0       	ldi	r24, 0x01	; 1
     d3c:	80 93 63 03 	sts	0x0363, r24	; 0x800363 <led_blink>
	uart_puts("LED blinks\r\n");
     d40:	8b e7       	ldi	r24, 0x7B	; 123
     d42:	91 e0       	ldi	r25, 0x01	; 1
     d44:	0e 94 15 0f 	call	0x1e2a	; 0x1e2a <uart_puts>
     d48:	08 95       	ret

00000d4a <key3_repeat>:


/***********************Function for button 3 (long press) - LED doesn't blink***********************/
void key3_repeat(void)
{
	led_blink = 0;
     d4a:	10 92 63 03 	sts	0x0363, r1	; 0x800363 <led_blink>
	LED1_OFF;
     d4e:	85 b3       	in	r24, 0x15	; 21
     d50:	80 64       	ori	r24, 0x40	; 64
     d52:	85 bb       	out	0x15, r24	; 21
	uart_puts("LED doesn't blink\r\n");
     d54:	8e e8       	ldi	r24, 0x8E	; 142
     d56:	91 e0       	ldi	r25, 0x01	; 1
     d58:	0e 94 15 0f 	call	0x1e2a	; 0x1e2a <uart_puts>
     d5c:	08 95       	ret

00000d5e <key4_press>:


/***********************Function for button 4 (short press) - DATA send***********************/
void key4_press(void)
{
	uart_logs_data = 1;
     d5e:	81 e0       	ldi	r24, 0x01	; 1
     d60:	80 93 60 03 	sts	0x0360, r24	; 0x800360 <uart_logs_data>
	lcd_gotoxy(0,7);
     d64:	67 e0       	ldi	r22, 0x07	; 7
     d66:	80 e0       	ldi	r24, 0x00	; 0
     d68:	0e 94 55 17 	call	0x2eaa	; 0x2eaa <lcd_gotoxy>
 	lcd_puts_p(PSTR("DATA send      "));
     d6c:	8f ea       	ldi	r24, 0xAF	; 175
     d6e:	90 e0       	ldi	r25, 0x00	; 0
     d70:	0e 94 68 19 	call	0x32d0	; 0x32d0 <lcd_puts_p>
	uart_puts("DATA send\r\n");
     d74:	8f ef       	ldi	r24, 0xFF	; 255
     d76:	91 e0       	ldi	r25, 0x01	; 1
     d78:	0e 94 15 0f 	call	0x1e2a	; 0x1e2a <uart_puts>
     d7c:	08 95       	ret

00000d7e <key4_repeat>:


/***********************Function for button 4 (long press) - DATA don't send***********************/
void key4_repeat(void)
{
	uart_logs_data = 0;
     d7e:	10 92 60 03 	sts	0x0360, r1	; 0x800360 <uart_logs_data>
 	lcd_gotoxy(0,7);
     d82:	67 e0       	ldi	r22, 0x07	; 7
     d84:	80 e0       	ldi	r24, 0x00	; 0
     d86:	0e 94 55 17 	call	0x2eaa	; 0x2eaa <lcd_gotoxy>
 	lcd_puts_p(PSTR("DATA don't send"));
     d8a:	8f e9       	ldi	r24, 0x9F	; 159
     d8c:	90 e0       	ldi	r25, 0x00	; 0
     d8e:	0e 94 68 19 	call	0x32d0	; 0x32d0 <lcd_puts_p>
	uart_puts("DATA don't send\r\n");
     d92:	87 e4       	ldi	r24, 0x47	; 71
     d94:	92 e0       	ldi	r25, 0x02	; 2
     d96:	0e 94 15 0f 	call	0x1e2a	; 0x1e2a <uart_puts>
     d9a:	08 95       	ret

00000d9c <key1_press>:

		
/***********************Function for button 1 (short press) - OLED display ON***********************/
void key1_press(void) 
{
	lcd_sleep(0);
     d9c:	80 e0       	ldi	r24, 0x00	; 0
     d9e:	0e 94 b6 17 	call	0x2f6c	; 0x2f6c <lcd_sleep>
	uart_puts("OLED display ON\r\n");
     da2:	8b e1       	ldi	r24, 0x1B	; 27
     da4:	91 e0       	ldi	r25, 0x01	; 1
     da6:	0e 94 15 0f 	call	0x1e2a	; 0x1e2a <uart_puts>
     daa:	08 95       	ret

00000dac <key1_repeat>:


/***********************Function for button 1 (long press) - OLED display OFF***********************/
void key1_repeat(void) 
{
	lcd_sleep(1);
     dac:	81 e0       	ldi	r24, 0x01	; 1
     dae:	0e 94 b6 17 	call	0x2f6c	; 0x2f6c <lcd_sleep>
	uart_puts("OLED display OFF\r\n");
     db2:	83 e3       	ldi	r24, 0x33	; 51
     db4:	91 e0       	ldi	r25, 0x01	; 1
     db6:	0e 94 15 0f 	call	0x1e2a	; 0x1e2a <uart_puts>
     dba:	08 95       	ret

00000dbc <key5_press>:


/***********************Function for button 5 (short press) - OLED&LED display ON, LED blinks, DATA send***********************/
void key5_press(void)
{
	lcd_sleep(0);
     dbc:	80 e0       	ldi	r24, 0x00	; 0
     dbe:	0e 94 b6 17 	call	0x2f6c	; 0x2f6c <lcd_sleep>
	led_display = 1;
     dc2:	81 e0       	ldi	r24, 0x01	; 1
     dc4:	80 93 62 00 	sts	0x0062, r24	; 0x800062 <led_display>
	led_blink = 1;
     dc8:	80 93 63 03 	sts	0x0363, r24	; 0x800363 <led_blink>
	uart_logs_data = 1;
     dcc:	80 93 60 03 	sts	0x0360, r24	; 0x800360 <uart_logs_data>
 	lcd_gotoxy(0,7);
     dd0:	67 e0       	ldi	r22, 0x07	; 7
     dd2:	80 e0       	ldi	r24, 0x00	; 0
     dd4:	0e 94 55 17 	call	0x2eaa	; 0x2eaa <lcd_gotoxy>
 	lcd_puts_p(PSTR("DATA send      "));
     dd8:	8f e8       	ldi	r24, 0x8F	; 143
     dda:	90 e0       	ldi	r25, 0x00	; 0
     ddc:	0e 94 68 19 	call	0x32d0	; 0x32d0 <lcd_puts_p>
	uart_puts("OLED display ON, LED display ON, LED blinks, DATA send\r\n");
     de0:	82 ed       	ldi	r24, 0xD2	; 210
     de2:	91 e0       	ldi	r25, 0x01	; 1
     de4:	0e 94 15 0f 	call	0x1e2a	; 0x1e2a <uart_puts>
     de8:	08 95       	ret

00000dea <key5_repeat>:


/***********************Function for button 5 (long press) - OLED&LED display OFF, LED doesn't blink, DATA don't send***********************/
void key5_repeat(void)
{
	lcd_sleep(1);
     dea:	81 e0       	ldi	r24, 0x01	; 1
     dec:	0e 94 b6 17 	call	0x2f6c	; 0x2f6c <lcd_sleep>
	led_display = 0;
     df0:	10 92 62 00 	sts	0x0062, r1	; 0x800062 <led_display>
	led_blink = 0;
     df4:	10 92 63 03 	sts	0x0363, r1	; 0x800363 <led_blink>
	LED1_OFF;
     df8:	85 b3       	in	r24, 0x15	; 21
     dfa:	80 64       	ori	r24, 0x40	; 64
     dfc:	85 bb       	out	0x15, r24	; 21
	uart_logs_data = 0;
     dfe:	10 92 60 03 	sts	0x0360, r1	; 0x800360 <uart_logs_data>
 	lcd_gotoxy(0,7);
     e02:	67 e0       	ldi	r22, 0x07	; 7
     e04:	80 e0       	ldi	r24, 0x00	; 0
     e06:	0e 94 55 17 	call	0x2eaa	; 0x2eaa <lcd_gotoxy>
	lcd_puts_p(PSTR("DATA don't send"));
     e0a:	8f e7       	ldi	r24, 0x7F	; 127
     e0c:	90 e0       	ldi	r25, 0x00	; 0
     e0e:	0e 94 68 19 	call	0x32d0	; 0x32d0 <lcd_puts_p>
	uart_puts("OLED display OFF, LED display OFF, LED doesn't blink, DATA don't send\r\n");
     e12:	81 e1       	ldi	r24, 0x11	; 17
     e14:	92 e0       	ldi	r25, 0x02	; 2
     e16:	0e 94 15 0f 	call	0x1e2a	; 0x1e2a <uart_puts>
     e1a:	08 95       	ret

00000e1c <__vector_1>:



/***********************INT0 interrupt service routine***********************/
ISR( INT0_vect )
{
     e1c:	1f 92       	push	r1
     e1e:	0f 92       	push	r0
     e20:	0f b6       	in	r0, 0x3f	; 63
     e22:	0f 92       	push	r0
     e24:	11 24       	eor	r1, r1
     e26:	8f 93       	push	r24
	int0_flag = 1;
     e28:	81 e0       	ldi	r24, 0x01	; 1
     e2a:	80 93 60 00 	sts	0x0060, r24	; 0x800060 <__DATA_REGION_ORIGIN__>
}
     e2e:	8f 91       	pop	r24
     e30:	0f 90       	pop	r0
     e32:	0f be       	out	0x3f, r0	; 63
     e34:	0f 90       	pop	r0
     e36:	1f 90       	pop	r1
     e38:	18 95       	reti

00000e3a <__vector_4>:


/***********************Timer2 interrupt service routine***********************/
ISR(TIMER2_COMP_vect)
{
     e3a:	1f 92       	push	r1
     e3c:	0f 92       	push	r0
     e3e:	0f b6       	in	r0, 0x3f	; 63
     e40:	0f 92       	push	r0
     e42:	11 24       	eor	r1, r1
     e44:	8f 93       	push	r24
     e46:	9f 93       	push	r25
	uint16_t x;

	x = Timer1;		/* 100Hz Timer1 */
     e48:	80 91 5e 03 	lds	r24, 0x035E	; 0x80035e <Timer1>
     e4c:	90 91 5f 03 	lds	r25, 0x035F	; 0x80035f <Timer1+0x1>
	if (x) Timer1 = --x;
     e50:	00 97       	sbiw	r24, 0x00	; 0
     e52:	29 f0       	breq	.+10     	; 0xe5e <__vector_4+0x24>
     e54:	01 97       	sbiw	r24, 0x01	; 1
     e56:	90 93 5f 03 	sts	0x035F, r25	; 0x80035f <Timer1+0x1>
     e5a:	80 93 5e 03 	sts	0x035E, r24	; 0x80035e <Timer1>
	
	x = Timer2;		/* 100Hz Timer2 */
     e5e:	80 91 5c 03 	lds	r24, 0x035C	; 0x80035c <Timer2>
     e62:	90 91 5d 03 	lds	r25, 0x035D	; 0x80035d <Timer2+0x1>
	if (x) Timer2 = --x;
     e66:	00 97       	sbiw	r24, 0x00	; 0
     e68:	29 f0       	breq	.+10     	; 0xe74 <__vector_4+0x3a>
     e6a:	01 97       	sbiw	r24, 0x01	; 1
     e6c:	90 93 5d 03 	sts	0x035D, r25	; 0x80035d <Timer2+0x1>
     e70:	80 93 5c 03 	sts	0x035C, r24	; 0x80035c <Timer2>
	
	x = Timer3;		/* 100Hz Timer3 */
     e74:	80 91 5a 03 	lds	r24, 0x035A	; 0x80035a <Timer3>
     e78:	90 91 5b 03 	lds	r25, 0x035B	; 0x80035b <Timer3+0x1>
	if (x) Timer3 = --x;
     e7c:	00 97       	sbiw	r24, 0x00	; 0
     e7e:	29 f0       	breq	.+10     	; 0xe8a <__vector_4+0x50>
     e80:	01 97       	sbiw	r24, 0x01	; 1
     e82:	90 93 5b 03 	sts	0x035B, r25	; 0x80035b <Timer3+0x1>
     e86:	80 93 5a 03 	sts	0x035A, r24	; 0x80035a <Timer3>
	
	x = Timer4;		/* 100Hz Timer4 */
     e8a:	80 91 58 03 	lds	r24, 0x0358	; 0x800358 <Timer4>
     e8e:	90 91 59 03 	lds	r25, 0x0359	; 0x800359 <Timer4+0x1>
	if (x) Timer4 = --x;
     e92:	00 97       	sbiw	r24, 0x00	; 0
     e94:	29 f0       	breq	.+10     	; 0xea0 <__vector_4+0x66>
     e96:	01 97       	sbiw	r24, 0x01	; 1
     e98:	90 93 59 03 	sts	0x0359, r25	; 0x800359 <Timer4+0x1>
     e9c:	80 93 58 03 	sts	0x0358, r24	; 0x800358 <Timer4>
}
     ea0:	9f 91       	pop	r25
     ea2:	8f 91       	pop	r24
     ea4:	0f 90       	pop	r0
     ea6:	0f be       	out	0x3f, r0	; 63
     ea8:	0f 90       	pop	r0
     eaa:	1f 90       	pop	r1
     eac:	18 95       	reti

00000eae <SuperDebounce>:
- *push_proc - pointer to its own function called once when the button is released
- *rep_proc - pointer to its own function executed in REPEAT mode
**********************************************************************************/
void SuperDebounce(uint8_t * key_state, volatile uint8_t *KPIN,
		uint8_t key_mask, uint16_t rep_time, uint16_t rep_wait,
		void (*push_proc)(void), void (*rep_proc)(void) ) {
     eae:	af 92       	push	r10
     eb0:	bf 92       	push	r11
     eb2:	cf 92       	push	r12
     eb4:	df 92       	push	r13
     eb6:	ef 92       	push	r14
     eb8:	ff 92       	push	r15
     eba:	0f 93       	push	r16
     ebc:	1f 93       	push	r17
     ebe:	cf 93       	push	r28
     ec0:	5c 01       	movw	r10, r24

	enum {idle, debounce, go_rep, wait_rep, rep};

	if(!rep_time) rep_time=20;
     ec2:	21 15       	cp	r18, r1
     ec4:	31 05       	cpc	r19, r1
     ec6:	11 f4       	brne	.+4      	; 0xecc <SuperDebounce+0x1e>
     ec8:	24 e1       	ldi	r18, 0x14	; 20
     eca:	30 e0       	ldi	r19, 0x00	; 0
	if(!rep_wait) rep_wait=150;
     ecc:	01 15       	cp	r16, r1
     ece:	11 05       	cpc	r17, r1
     ed0:	11 f4       	brne	.+4      	; 0xed6 <SuperDebounce+0x28>
     ed2:	06 e9       	ldi	r16, 0x96	; 150
     ed4:	10 e0       	ldi	r17, 0x00	; 0

	uint8_t key_press = !(*KPIN & key_mask);
     ed6:	fb 01       	movw	r30, r22
     ed8:	c0 81       	ld	r28, Z
     eda:	c4 23       	and	r28, r20

	if( key_press && !*key_state ) {
     edc:	69 f4       	brne	.+26     	; 0xef8 <SuperDebounce+0x4a>
     ede:	f5 01       	movw	r30, r10
     ee0:	80 81       	ld	r24, Z
     ee2:	81 11       	cpse	r24, r1
     ee4:	09 c0       	rjmp	.+18     	; 0xef8 <SuperDebounce+0x4a>
		*key_state = debounce;
     ee6:	81 e0       	ldi	r24, 0x01	; 1
     ee8:	80 83       	st	Z, r24
		Timer1 = 15;
     eea:	8f e0       	ldi	r24, 0x0F	; 15
     eec:	90 e0       	ldi	r25, 0x00	; 0
     eee:	90 93 5f 03 	sts	0x035F, r25	; 0x80035f <Timer1+0x1>
     ef2:	80 93 5e 03 	sts	0x035E, r24	; 0x80035e <Timer1>
     ef6:	59 c0       	rjmp	.+178    	; 0xfaa <SuperDebounce+0xfc>
	} else
	if( *key_state  ) {
     ef8:	f5 01       	movw	r30, r10
     efa:	80 81       	ld	r24, Z
     efc:	88 23       	and	r24, r24
     efe:	09 f4       	brne	.+2      	; 0xf02 <SuperDebounce+0x54>
     f00:	54 c0       	rjmp	.+168    	; 0xfaa <SuperDebounce+0xfc>

		if( key_press && debounce==*key_state && !Timer1 ) {
     f02:	c1 11       	cpse	r28, r1
     f04:	11 c0       	rjmp	.+34     	; 0xf28 <SuperDebounce+0x7a>
     f06:	81 30       	cpi	r24, 0x01	; 1
     f08:	79 f4       	brne	.+30     	; 0xf28 <SuperDebounce+0x7a>
     f0a:	40 91 5e 03 	lds	r20, 0x035E	; 0x80035e <Timer1>
     f0e:	50 91 5f 03 	lds	r21, 0x035F	; 0x80035f <Timer1+0x1>
     f12:	45 2b       	or	r20, r21
     f14:	49 f4       	brne	.+18     	; 0xf28 <SuperDebounce+0x7a>
			*key_state = 2;
     f16:	82 e0       	ldi	r24, 0x02	; 2
     f18:	80 83       	st	Z, r24
			Timer1=5;
     f1a:	85 e0       	ldi	r24, 0x05	; 5
     f1c:	90 e0       	ldi	r25, 0x00	; 0
     f1e:	90 93 5f 03 	sts	0x035F, r25	; 0x80035f <Timer1+0x1>
     f22:	80 93 5e 03 	sts	0x035E, r24	; 0x80035e <Timer1>
     f26:	41 c0       	rjmp	.+130    	; 0xfaa <SuperDebounce+0xfc>
		} else
		if( !key_press && *key_state>1 && *key_state<4 ) {
     f28:	cc 23       	and	r28, r28
     f2a:	61 f0       	breq	.+24     	; 0xf44 <SuperDebounce+0x96>
     f2c:	82 30       	cpi	r24, 0x02	; 2
     f2e:	50 f0       	brcs	.+20     	; 0xf44 <SuperDebounce+0x96>
     f30:	84 30       	cpi	r24, 0x04	; 4
     f32:	40 f4       	brcc	.+16     	; 0xf44 <SuperDebounce+0x96>
			if(push_proc) push_proc();						/* KEY_UP */
     f34:	e1 14       	cp	r14, r1
     f36:	f1 04       	cpc	r15, r1
     f38:	11 f0       	breq	.+4      	; 0xf3e <SuperDebounce+0x90>
     f3a:	f7 01       	movw	r30, r14
     f3c:	09 95       	icall
			*key_state=idle;
     f3e:	f5 01       	movw	r30, r10
     f40:	10 82       	st	Z, r1
     f42:	33 c0       	rjmp	.+102    	; 0xfaa <SuperDebounce+0xfc>
		} else
		if( key_press && go_rep==*key_state && !Timer1 ) {
     f44:	c1 11       	cpse	r28, r1
     f46:	10 c0       	rjmp	.+32     	; 0xf68 <SuperDebounce+0xba>
     f48:	82 30       	cpi	r24, 0x02	; 2
     f4a:	71 f4       	brne	.+28     	; 0xf68 <SuperDebounce+0xba>
     f4c:	40 91 5e 03 	lds	r20, 0x035E	; 0x80035e <Timer1>
     f50:	50 91 5f 03 	lds	r21, 0x035F	; 0x80035f <Timer1+0x1>
     f54:	45 2b       	or	r20, r21
     f56:	41 f4       	brne	.+16     	; 0xf68 <SuperDebounce+0xba>
			*key_state = wait_rep;
     f58:	83 e0       	ldi	r24, 0x03	; 3
     f5a:	f5 01       	movw	r30, r10
     f5c:	80 83       	st	Z, r24
			Timer1=rep_wait;
     f5e:	10 93 5f 03 	sts	0x035F, r17	; 0x80035f <Timer1+0x1>
     f62:	00 93 5e 03 	sts	0x035E, r16	; 0x80035e <Timer1>
     f66:	21 c0       	rjmp	.+66     	; 0xfaa <SuperDebounce+0xfc>
		} else
		if( key_press && wait_rep==*key_state && !Timer1 ) {
     f68:	c1 11       	cpse	r28, r1
     f6a:	0c c0       	rjmp	.+24     	; 0xf84 <SuperDebounce+0xd6>
     f6c:	83 30       	cpi	r24, 0x03	; 3
     f6e:	51 f4       	brne	.+20     	; 0xf84 <SuperDebounce+0xd6>
     f70:	40 91 5e 03 	lds	r20, 0x035E	; 0x80035e <Timer1>
     f74:	50 91 5f 03 	lds	r21, 0x035F	; 0x80035f <Timer1+0x1>
     f78:	45 2b       	or	r20, r21
     f7a:	21 f4       	brne	.+8      	; 0xf84 <SuperDebounce+0xd6>
			*key_state = rep;
     f7c:	84 e0       	ldi	r24, 0x04	; 4
     f7e:	f5 01       	movw	r30, r10
     f80:	80 83       	st	Z, r24
     f82:	13 c0       	rjmp	.+38     	; 0xfaa <SuperDebounce+0xfc>
		} else
		if( key_press && rep==*key_state && !Timer1 ) {
     f84:	c1 11       	cpse	r28, r1
     f86:	11 c0       	rjmp	.+34     	; 0xfaa <SuperDebounce+0xfc>
     f88:	84 30       	cpi	r24, 0x04	; 4
     f8a:	79 f4       	brne	.+30     	; 0xfaa <SuperDebounce+0xfc>
     f8c:	80 91 5e 03 	lds	r24, 0x035E	; 0x80035e <Timer1>
     f90:	90 91 5f 03 	lds	r25, 0x035F	; 0x80035f <Timer1+0x1>
     f94:	89 2b       	or	r24, r25
     f96:	49 f4       	brne	.+18     	; 0xfaa <SuperDebounce+0xfc>
			Timer1 = rep_time;
     f98:	30 93 5f 03 	sts	0x035F, r19	; 0x80035f <Timer1+0x1>
     f9c:	20 93 5e 03 	sts	0x035E, r18	; 0x80035e <Timer1>
			if(rep_proc) rep_proc();						/* KEY_REP */
     fa0:	c1 14       	cp	r12, r1
     fa2:	d1 04       	cpc	r13, r1
     fa4:	11 f0       	breq	.+4      	; 0xfaa <SuperDebounce+0xfc>
     fa6:	f6 01       	movw	r30, r12
     fa8:	09 95       	icall
		}
	}
	if( *key_state>=3 && !key_press ) *key_state = idle;
     faa:	f5 01       	movw	r30, r10
     fac:	80 81       	ld	r24, Z
     fae:	83 30       	cpi	r24, 0x03	; 3
     fb0:	10 f0       	brcs	.+4      	; 0xfb6 <SuperDebounce+0x108>
     fb2:	c1 11       	cpse	r28, r1
     fb4:	10 82       	st	Z, r1
}
     fb6:	cf 91       	pop	r28
     fb8:	1f 91       	pop	r17
     fba:	0f 91       	pop	r16
     fbc:	ff 90       	pop	r15
     fbe:	ef 90       	pop	r14
     fc0:	df 90       	pop	r13
     fc2:	cf 90       	pop	r12
     fc4:	bf 90       	pop	r11
     fc6:	af 90       	pop	r10
     fc8:	08 95       	ret

00000fca <oled_display_temp_DS18B20>:


/**********************Displaying a temperature from DS18B20 sensor on OLED display***********************/
void oled_display_temp_DS18B20(uint8_t y)
{
     fca:	cf 93       	push	r28
     fcc:	c8 2f       	mov	r28, r24
	lcd_gotoxy(0, y);	// set the line for displaying
     fce:	68 2f       	mov	r22, r24
     fd0:	80 e0       	ldi	r24, 0x00	; 0
     fd2:	0e 94 55 17 	call	0x2eaa	; 0x2eaa <lcd_gotoxy>
	lcd_puts_p(PSTR("DS18B20 sen.T: "));	// display a name of sensor
     fd6:	8f e6       	ldi	r24, 0x6F	; 111
     fd8:	91 e0       	ldi	r25, 0x01	; 1
     fda:	0e 94 68 19 	call	0x32d0	; 0x32d0 <lcd_puts_p>
	
	if(subzero && cel < 10) lcd_gotoxy(14, y), lcd_puts_p(PSTR(" -"));	// if subzero = 1 and cel < 10, display correctly sign "-"
     fde:	80 91 cc 07 	lds	r24, 0x07CC	; 0x8007cc <subzero>
     fe2:	88 23       	and	r24, r24
     fe4:	69 f0       	breq	.+26     	; 0x1000 <oled_display_temp_DS18B20+0x36>
     fe6:	90 91 d0 07 	lds	r25, 0x07D0	; 0x8007d0 <cel>
     fea:	9a 30       	cpi	r25, 0x0A	; 10
     fec:	48 f4       	brcc	.+18     	; 0x1000 <oled_display_temp_DS18B20+0x36>
     fee:	6c 2f       	mov	r22, r28
     ff0:	8e e0       	ldi	r24, 0x0E	; 14
     ff2:	0e 94 55 17 	call	0x2eaa	; 0x2eaa <lcd_gotoxy>
     ff6:	8c e6       	ldi	r24, 0x6C	; 108
     ff8:	91 e0       	ldi	r25, 0x01	; 1
     ffa:	0e 94 68 19 	call	0x32d0	; 0x32d0 <lcd_puts_p>
     ffe:	0e c0       	rjmp	.+28     	; 0x101c <oled_display_temp_DS18B20+0x52>
	else if (subzero && cel >= 10) lcd_gotoxy(14, y), lcd_puts_p(PSTR("-"));	// if subzero = 1 and cel >= 10, display correctly sign "-"
    1000:	88 23       	and	r24, r24
    1002:	61 f0       	breq	.+24     	; 0x101c <oled_display_temp_DS18B20+0x52>
    1004:	80 91 d0 07 	lds	r24, 0x07D0	; 0x8007d0 <cel>
    1008:	8a 30       	cpi	r24, 0x0A	; 10
    100a:	40 f0       	brcs	.+16     	; 0x101c <oled_display_temp_DS18B20+0x52>
    100c:	6c 2f       	mov	r22, r28
    100e:	8e e0       	ldi	r24, 0x0E	; 14
    1010:	0e 94 55 17 	call	0x2eaa	; 0x2eaa <lcd_gotoxy>
    1014:	8a e6       	ldi	r24, 0x6A	; 106
    1016:	91 e0       	ldi	r25, 0x01	; 1
    1018:	0e 94 68 19 	call	0x32d0	; 0x32d0 <lcd_puts_p>
	
	if(!subzero && cel < 10) lcd_gotoxy(14, y), lcd_puts_p(PSTR("  "));	// set the cursor correctly when the temperature is smaller or greater than 10 or equal to 10
    101c:	80 91 cc 07 	lds	r24, 0x07CC	; 0x8007cc <subzero>
    1020:	81 11       	cpse	r24, r1
    1022:	0d c0       	rjmp	.+26     	; 0x103e <oled_display_temp_DS18B20+0x74>
    1024:	90 91 d0 07 	lds	r25, 0x07D0	; 0x8007d0 <cel>
    1028:	9a 30       	cpi	r25, 0x0A	; 10
    102a:	48 f4       	brcc	.+18     	; 0x103e <oled_display_temp_DS18B20+0x74>
    102c:	6c 2f       	mov	r22, r28
    102e:	8e e0       	ldi	r24, 0x0E	; 14
    1030:	0e 94 55 17 	call	0x2eaa	; 0x2eaa <lcd_gotoxy>
    1034:	87 e6       	ldi	r24, 0x67	; 103
    1036:	91 e0       	ldi	r25, 0x01	; 1
    1038:	0e 94 68 19 	call	0x32d0	; 0x32d0 <lcd_puts_p>
    103c:	0e c0       	rjmp	.+28     	; 0x105a <oled_display_temp_DS18B20+0x90>
	else if (!subzero && cel >= 10) lcd_gotoxy(14, y), lcd_puts_p(PSTR(" "));
    103e:	81 11       	cpse	r24, r1
    1040:	0c c0       	rjmp	.+24     	; 0x105a <oled_display_temp_DS18B20+0x90>
    1042:	80 91 d0 07 	lds	r24, 0x07D0	; 0x8007d0 <cel>
    1046:	8a 30       	cpi	r24, 0x0A	; 10
    1048:	40 f0       	brcs	.+16     	; 0x105a <oled_display_temp_DS18B20+0x90>
    104a:	6c 2f       	mov	r22, r28
    104c:	8e e0       	ldi	r24, 0x0E	; 14
    104e:	0e 94 55 17 	call	0x2eaa	; 0x2eaa <lcd_gotoxy>
    1052:	85 e6       	ldi	r24, 0x65	; 101
    1054:	91 e0       	ldi	r25, 0x01	; 1
    1056:	0e 94 68 19 	call	0x32d0	; 0x32d0 <lcd_puts_p>
	
	oled_int(cel);	// display decimals of temperature
    105a:	80 91 d0 07 	lds	r24, 0x07D0	; 0x8007d0 <cel>
    105e:	90 e0       	ldi	r25, 0x00	; 0
    1060:	0e 94 77 19 	call	0x32ee	; 0x32ee <oled_int>
	lcd_puts_p(PSTR("."));	// display a dot
    1064:	83 e6       	ldi	r24, 0x63	; 99
    1066:	91 e0       	ldi	r25, 0x01	; 1
    1068:	0e 94 68 19 	call	0x32d0	; 0x32d0 <lcd_puts_p>
	oled_int(cel_fract_bits);	// display the number after the decimal point
    106c:	80 91 ca 07 	lds	r24, 0x07CA	; 0x8007ca <cel_fract_bits>
    1070:	90 e0       	ldi	r25, 0x00	; 0
    1072:	0e 94 77 19 	call	0x32ee	; 0x32ee <oled_int>
	lcd_puts_p(PSTR("°C"));		// display unit sign (C - degrees Celsius)
    1076:	80 e6       	ldi	r24, 0x60	; 96
    1078:	91 e0       	ldi	r25, 0x01	; 1
    107a:	0e 94 68 19 	call	0x32d0	; 0x32d0 <lcd_puts_p>
}
    107e:	cf 91       	pop	r28
    1080:	08 95       	ret

00001082 <oled_day_of_the_week>:


/**********************Convert a number of day to day of the week for OLED display***********************/
void oled_day_of_the_week(uint8_t day) 
{
	switch (day) 
    1082:	90 e0       	ldi	r25, 0x00	; 0
    1084:	fc 01       	movw	r30, r24
    1086:	31 97       	sbiw	r30, 0x01	; 1
    1088:	e7 30       	cpi	r30, 0x07	; 7
    108a:	f1 05       	cpc	r31, r1
    108c:	30 f5       	brcc	.+76     	; 0x10da <oled_day_of_the_week+0x58>
    108e:	e6 5d       	subi	r30, 0xD6	; 214
    1090:	ff 4f       	sbci	r31, 0xFF	; 255
    1092:	0c 94 36 1a 	jmp	0x346c	; 0x346c <__tablejump2__>
		{
			case 1:
			lcd_puts_p(PSTR("Mo"));
    1096:	8d e5       	ldi	r24, 0x5D	; 93
    1098:	91 e0       	ldi	r25, 0x01	; 1
    109a:	0e 94 68 19 	call	0x32d0	; 0x32d0 <lcd_puts_p>
			break;
    109e:	08 95       	ret
			case 2:
			lcd_puts_p(PSTR("Tu"));
    10a0:	8a e5       	ldi	r24, 0x5A	; 90
    10a2:	91 e0       	ldi	r25, 0x01	; 1
    10a4:	0e 94 68 19 	call	0x32d0	; 0x32d0 <lcd_puts_p>
			break;
    10a8:	08 95       	ret
			case 3:
			lcd_puts_p(PSTR("We"));
    10aa:	87 e5       	ldi	r24, 0x57	; 87
    10ac:	91 e0       	ldi	r25, 0x01	; 1
    10ae:	0e 94 68 19 	call	0x32d0	; 0x32d0 <lcd_puts_p>
			break;
    10b2:	08 95       	ret
			case 4:
			lcd_puts_p(PSTR("Th"));
    10b4:	84 e5       	ldi	r24, 0x54	; 84
    10b6:	91 e0       	ldi	r25, 0x01	; 1
    10b8:	0e 94 68 19 	call	0x32d0	; 0x32d0 <lcd_puts_p>
			break;
    10bc:	08 95       	ret
			case 5:
			lcd_puts_p(PSTR("Fr"));
    10be:	81 e5       	ldi	r24, 0x51	; 81
    10c0:	91 e0       	ldi	r25, 0x01	; 1
    10c2:	0e 94 68 19 	call	0x32d0	; 0x32d0 <lcd_puts_p>
			break;
    10c6:	08 95       	ret
			case 6:
			lcd_puts_p(PSTR("Sa"));
    10c8:	8e e4       	ldi	r24, 0x4E	; 78
    10ca:	91 e0       	ldi	r25, 0x01	; 1
    10cc:	0e 94 68 19 	call	0x32d0	; 0x32d0 <lcd_puts_p>
			break;
    10d0:	08 95       	ret
			case 7:
			lcd_puts_p(PSTR("Su"));
    10d2:	8b e4       	ldi	r24, 0x4B	; 75
    10d4:	91 e0       	ldi	r25, 0x01	; 1
    10d6:	0e 94 68 19 	call	0x32d0	; 0x32d0 <lcd_puts_p>
    10da:	08 95       	ret

000010dc <uart_day_of_the_week>:


/**********************Convert a number of day to day of the week for UART***********************/
void uart_day_of_the_week(uint8_t day)
{
	switch (day)
    10dc:	90 e0       	ldi	r25, 0x00	; 0
    10de:	fc 01       	movw	r30, r24
    10e0:	31 97       	sbiw	r30, 0x01	; 1
    10e2:	e7 30       	cpi	r30, 0x07	; 7
    10e4:	f1 05       	cpc	r31, r1
    10e6:	30 f5       	brcc	.+76     	; 0x1134 <uart_day_of_the_week+0x58>
    10e8:	ef 5c       	subi	r30, 0xCF	; 207
    10ea:	ff 4f       	sbci	r31, 0xFF	; 255
    10ec:	0c 94 36 1a 	jmp	0x346c	; 0x346c <__tablejump2__>
		{
			case 1:
			uart_puts("Mo");
    10f0:	8a e7       	ldi	r24, 0x7A	; 122
    10f2:	90 e0       	ldi	r25, 0x00	; 0
    10f4:	0e 94 15 0f 	call	0x1e2a	; 0x1e2a <uart_puts>
			break;
    10f8:	08 95       	ret
			case 2:
			uart_puts("Tu");
    10fa:	8d e7       	ldi	r24, 0x7D	; 125
    10fc:	90 e0       	ldi	r25, 0x00	; 0
    10fe:	0e 94 15 0f 	call	0x1e2a	; 0x1e2a <uart_puts>
			break;
    1102:	08 95       	ret
			case 3:
			uart_puts("We");
    1104:	80 e8       	ldi	r24, 0x80	; 128
    1106:	90 e0       	ldi	r25, 0x00	; 0
    1108:	0e 94 15 0f 	call	0x1e2a	; 0x1e2a <uart_puts>
			break;
    110c:	08 95       	ret
			case 4:
			uart_puts("Th");
    110e:	83 e8       	ldi	r24, 0x83	; 131
    1110:	90 e0       	ldi	r25, 0x00	; 0
    1112:	0e 94 15 0f 	call	0x1e2a	; 0x1e2a <uart_puts>
			break;
    1116:	08 95       	ret
			case 5:
			uart_puts("Fr");
    1118:	86 e8       	ldi	r24, 0x86	; 134
    111a:	90 e0       	ldi	r25, 0x00	; 0
    111c:	0e 94 15 0f 	call	0x1e2a	; 0x1e2a <uart_puts>
			break;
    1120:	08 95       	ret
			case 6:
			uart_puts("Sa");
    1122:	89 e8       	ldi	r24, 0x89	; 137
    1124:	90 e0       	ldi	r25, 0x00	; 0
    1126:	0e 94 15 0f 	call	0x1e2a	; 0x1e2a <uart_puts>
			break;
    112a:	08 95       	ret
			case 7:
			uart_puts("Su");
    112c:	8c e8       	ldi	r24, 0x8C	; 140
    112e:	90 e0       	ldi	r25, 0x00	; 0
    1130:	0e 94 15 0f 	call	0x1e2a	; 0x1e2a <uart_puts>
    1134:	08 95       	ret

00001136 <uart_control>:


/**********************Function for receiving data from UART and device control***********************/
void uart_control(void)
{
	if (uart_help) uart_puts("Type 'h' or 'H' and press ENTER for help :)\r\n");	// Help information for user
    1136:	80 91 61 00 	lds	r24, 0x0061	; 0x800061 <uart_help>
    113a:	88 23       	and	r24, r24
    113c:	21 f0       	breq	.+8      	; 0x1146 <uart_control+0x10>
    113e:	8f e8       	ldi	r24, 0x8F	; 143
    1140:	90 e0       	ldi	r25, 0x00	; 0
    1142:	0e 94 15 0f 	call	0x1e2a	; 0x1e2a <uart_puts>
	uart_help = 0;	// reset a variable responsible for Help information for user	
    1146:	10 92 61 00 	sts	0x0061, r1	; 0x800061 <uart_help>
	
	uart_tx = uart_getc(); // receiving data from UART
    114a:	0e 94 6a 0f 	call	0x1ed4	; 0x1ed4 <uart_getc>
    114e:	80 93 61 03 	sts	0x0361, r24	; 0x800361 <uart_tx>
	
	if(uart_tx == 'h' || uart_tx == 'H')	// Device commands for user
    1152:	80 91 61 03 	lds	r24, 0x0361	; 0x800361 <uart_tx>
    1156:	88 36       	cpi	r24, 0x68	; 104
    1158:	21 f0       	breq	.+8      	; 0x1162 <uart_control+0x2c>
    115a:	80 91 61 03 	lds	r24, 0x0361	; 0x800361 <uart_tx>
    115e:	88 34       	cpi	r24, 0x48	; 72
    1160:	61 f5       	brne	.+88     	; 0x11ba <uart_control+0x84>
	{
		uart_puts("\r\nWelcome to User Help. Enter the numbers below to activate functions and press Enter\r\n");
    1162:	8d eb       	ldi	r24, 0xBD	; 189
    1164:	90 e0       	ldi	r25, 0x00	; 0
    1166:	0e 94 15 0f 	call	0x1e2a	; 0x1e2a <uart_puts>
		
		uart_puts("'0' - OLED display ON\r\n");
    116a:	85 e1       	ldi	r24, 0x15	; 21
    116c:	91 e0       	ldi	r25, 0x01	; 1
    116e:	0e 94 15 0f 	call	0x1e2a	; 0x1e2a <uart_puts>
		uart_puts("'1' - OLED display OFF\r\n");
    1172:	8d e2       	ldi	r24, 0x2D	; 45
    1174:	91 e0       	ldi	r25, 0x01	; 1
    1176:	0e 94 15 0f 	call	0x1e2a	; 0x1e2a <uart_puts>
		
		uart_puts("'2' - LED display ON\r\n");
    117a:	86 e4       	ldi	r24, 0x46	; 70
    117c:	91 e0       	ldi	r25, 0x01	; 1
    117e:	0e 94 15 0f 	call	0x1e2a	; 0x1e2a <uart_puts>
		uart_puts("'3' - LED display OFF\r\n");
    1182:	8d e5       	ldi	r24, 0x5D	; 93
    1184:	91 e0       	ldi	r25, 0x01	; 1
    1186:	0e 94 15 0f 	call	0x1e2a	; 0x1e2a <uart_puts>
		
		uart_puts("'4' - LED blinks\r\n");
    118a:	85 e7       	ldi	r24, 0x75	; 117
    118c:	91 e0       	ldi	r25, 0x01	; 1
    118e:	0e 94 15 0f 	call	0x1e2a	; 0x1e2a <uart_puts>
		uart_puts("'5' - LED doesn't blink\r\n");
    1192:	88 e8       	ldi	r24, 0x88	; 136
    1194:	91 e0       	ldi	r25, 0x01	; 1
    1196:	0e 94 15 0f 	call	0x1e2a	; 0x1e2a <uart_puts>
		
		uart_puts("'6' - DATA send\r\n");
    119a:	82 ea       	ldi	r24, 0xA2	; 162
    119c:	91 e0       	ldi	r25, 0x01	; 1
    119e:	0e 94 15 0f 	call	0x1e2a	; 0x1e2a <uart_puts>
		uart_puts("'7' - DATA don't send\r\n");
    11a2:	84 eb       	ldi	r24, 0xB4	; 180
    11a4:	91 e0       	ldi	r25, 0x01	; 1
    11a6:	0e 94 15 0f 	call	0x1e2a	; 0x1e2a <uart_puts>
		
		uart_puts("'8' - OLED display ON, LED display ON, LED blinks, DATA send\r\n");
    11aa:	8c ec       	ldi	r24, 0xCC	; 204
    11ac:	91 e0       	ldi	r25, 0x01	; 1
    11ae:	0e 94 15 0f 	call	0x1e2a	; 0x1e2a <uart_puts>
		uart_puts("'9' - OLED display OFF, LED display OFF, LED doesn't blink, DATA don't send\r\n");
    11b2:	8b e0       	ldi	r24, 0x0B	; 11
    11b4:	92 e0       	ldi	r25, 0x02	; 2
    11b6:	0e 94 15 0f 	call	0x1e2a	; 0x1e2a <uart_puts>
	}
	
	
	/*^^^^^^^^^^^^^^^^THIS PART OF CODE REALIZE THE SAME FUNCTIONALITY LIKE BUTTONS FUNCTIONS^^^^^^^^^^^^^^^^*/
	if(uart_tx == '0') lcd_sleep(0), uart_puts("UART cmd = 0 -> "), uart_puts("OLED display ON\r\n");
    11ba:	80 91 61 03 	lds	r24, 0x0361	; 0x800361 <uart_tx>
    11be:	80 33       	cpi	r24, 0x30	; 48
    11c0:	61 f4       	brne	.+24     	; 0x11da <uart_control+0xa4>
    11c2:	80 e0       	ldi	r24, 0x00	; 0
    11c4:	0e 94 b6 17 	call	0x2f6c	; 0x2f6c <lcd_sleep>
    11c8:	89 e5       	ldi	r24, 0x59	; 89
    11ca:	92 e0       	ldi	r25, 0x02	; 2
    11cc:	0e 94 15 0f 	call	0x1e2a	; 0x1e2a <uart_puts>
    11d0:	8b e1       	ldi	r24, 0x1B	; 27
    11d2:	91 e0       	ldi	r25, 0x01	; 1
    11d4:	0e 94 15 0f 	call	0x1e2a	; 0x1e2a <uart_puts>
    11d8:	08 95       	ret
	else if(uart_tx == '1') lcd_sleep(1), uart_puts("UART cmd = 1 -> "), uart_puts("OLED display OFF\r\n");
    11da:	80 91 61 03 	lds	r24, 0x0361	; 0x800361 <uart_tx>
    11de:	81 33       	cpi	r24, 0x31	; 49
    11e0:	61 f4       	brne	.+24     	; 0x11fa <uart_control+0xc4>
    11e2:	81 e0       	ldi	r24, 0x01	; 1
    11e4:	0e 94 b6 17 	call	0x2f6c	; 0x2f6c <lcd_sleep>
    11e8:	8a e6       	ldi	r24, 0x6A	; 106
    11ea:	92 e0       	ldi	r25, 0x02	; 2
    11ec:	0e 94 15 0f 	call	0x1e2a	; 0x1e2a <uart_puts>
    11f0:	83 e3       	ldi	r24, 0x33	; 51
    11f2:	91 e0       	ldi	r25, 0x01	; 1
    11f4:	0e 94 15 0f 	call	0x1e2a	; 0x1e2a <uart_puts>
    11f8:	08 95       	ret
	else if(uart_tx == '2') led_display = 1, uart_puts("UART cmd = 2 -> "), uart_puts("LED display ON\r\n");
    11fa:	80 91 61 03 	lds	r24, 0x0361	; 0x800361 <uart_tx>
    11fe:	82 33       	cpi	r24, 0x32	; 50
    1200:	61 f4       	brne	.+24     	; 0x121a <uart_control+0xe4>
    1202:	81 e0       	ldi	r24, 0x01	; 1
    1204:	80 93 62 00 	sts	0x0062, r24	; 0x800062 <led_display>
    1208:	8b e7       	ldi	r24, 0x7B	; 123
    120a:	92 e0       	ldi	r25, 0x02	; 2
    120c:	0e 94 15 0f 	call	0x1e2a	; 0x1e2a <uart_puts>
    1210:	8c e4       	ldi	r24, 0x4C	; 76
    1212:	91 e0       	ldi	r25, 0x01	; 1
    1214:	0e 94 15 0f 	call	0x1e2a	; 0x1e2a <uart_puts>
    1218:	08 95       	ret
	else if(uart_tx == '3') led_display = 0, uart_puts("UART cmd = 3 -> "), uart_puts("LED display OFF\r\n");
    121a:	80 91 61 03 	lds	r24, 0x0361	; 0x800361 <uart_tx>
    121e:	83 33       	cpi	r24, 0x33	; 51
    1220:	59 f4       	brne	.+22     	; 0x1238 <uart_control+0x102>
    1222:	10 92 62 00 	sts	0x0062, r1	; 0x800062 <led_display>
    1226:	8c e8       	ldi	r24, 0x8C	; 140
    1228:	92 e0       	ldi	r25, 0x02	; 2
    122a:	0e 94 15 0f 	call	0x1e2a	; 0x1e2a <uart_puts>
    122e:	83 e6       	ldi	r24, 0x63	; 99
    1230:	91 e0       	ldi	r25, 0x01	; 1
    1232:	0e 94 15 0f 	call	0x1e2a	; 0x1e2a <uart_puts>
    1236:	08 95       	ret
	else if(uart_tx == '4') led_blink = 1, uart_puts("UART cmd = 4 -> "), uart_puts("LED blinks\r\n");
    1238:	80 91 61 03 	lds	r24, 0x0361	; 0x800361 <uart_tx>
    123c:	84 33       	cpi	r24, 0x34	; 52
    123e:	61 f4       	brne	.+24     	; 0x1258 <uart_control+0x122>
    1240:	81 e0       	ldi	r24, 0x01	; 1
    1242:	80 93 63 03 	sts	0x0363, r24	; 0x800363 <led_blink>
    1246:	8d e9       	ldi	r24, 0x9D	; 157
    1248:	92 e0       	ldi	r25, 0x02	; 2
    124a:	0e 94 15 0f 	call	0x1e2a	; 0x1e2a <uart_puts>
    124e:	8b e7       	ldi	r24, 0x7B	; 123
    1250:	91 e0       	ldi	r25, 0x01	; 1
    1252:	0e 94 15 0f 	call	0x1e2a	; 0x1e2a <uart_puts>
    1256:	08 95       	ret
	else if(uart_tx == '5') led_blink = 0, uart_puts("UART cmd = 5 -> "), LED1_OFF, uart_puts("LED doesn't blink\r\n");
    1258:	80 91 61 03 	lds	r24, 0x0361	; 0x800361 <uart_tx>
    125c:	85 33       	cpi	r24, 0x35	; 53
    125e:	71 f4       	brne	.+28     	; 0x127c <uart_control+0x146>
    1260:	10 92 63 03 	sts	0x0363, r1	; 0x800363 <led_blink>
    1264:	8e ea       	ldi	r24, 0xAE	; 174
    1266:	92 e0       	ldi	r25, 0x02	; 2
    1268:	0e 94 15 0f 	call	0x1e2a	; 0x1e2a <uart_puts>
    126c:	85 b3       	in	r24, 0x15	; 21
    126e:	80 64       	ori	r24, 0x40	; 64
    1270:	85 bb       	out	0x15, r24	; 21
    1272:	8e e8       	ldi	r24, 0x8E	; 142
    1274:	91 e0       	ldi	r25, 0x01	; 1
    1276:	0e 94 15 0f 	call	0x1e2a	; 0x1e2a <uart_puts>
    127a:	08 95       	ret
	else if(uart_tx == '6') 
    127c:	80 91 61 03 	lds	r24, 0x0361	; 0x800361 <uart_tx>
    1280:	86 33       	cpi	r24, 0x36	; 54
    1282:	a1 f4       	brne	.+40     	; 0x12ac <uart_control+0x176>
		{
			uart_logs_data = 1;
    1284:	81 e0       	ldi	r24, 0x01	; 1
    1286:	80 93 60 03 	sts	0x0360, r24	; 0x800360 <uart_logs_data>
			lcd_gotoxy(0,7);
    128a:	67 e0       	ldi	r22, 0x07	; 7
    128c:	80 e0       	ldi	r24, 0x00	; 0
    128e:	0e 94 55 17 	call	0x2eaa	; 0x2eaa <lcd_gotoxy>
			uart_puts("UART cmd = 6 -> ");
    1292:	8f eb       	ldi	r24, 0xBF	; 191
    1294:	92 e0       	ldi	r25, 0x02	; 2
    1296:	0e 94 15 0f 	call	0x1e2a	; 0x1e2a <uart_puts>
			lcd_puts_p(PSTR("DATA send      "));
    129a:	8b e3       	ldi	r24, 0x3B	; 59
    129c:	91 e0       	ldi	r25, 0x01	; 1
    129e:	0e 94 68 19 	call	0x32d0	; 0x32d0 <lcd_puts_p>
			uart_puts("DATA send\r\n");
    12a2:	8f ef       	ldi	r24, 0xFF	; 255
    12a4:	91 e0       	ldi	r25, 0x01	; 1
    12a6:	0e 94 15 0f 	call	0x1e2a	; 0x1e2a <uart_puts>
    12aa:	08 95       	ret
		}
	else if(uart_tx == '7')
    12ac:	80 91 61 03 	lds	r24, 0x0361	; 0x800361 <uart_tx>
    12b0:	87 33       	cpi	r24, 0x37	; 55
    12b2:	99 f4       	brne	.+38     	; 0x12da <uart_control+0x1a4>
		{
			uart_logs_data = 0;
    12b4:	10 92 60 03 	sts	0x0360, r1	; 0x800360 <uart_logs_data>
			lcd_gotoxy(0,7);
    12b8:	67 e0       	ldi	r22, 0x07	; 7
    12ba:	80 e0       	ldi	r24, 0x00	; 0
    12bc:	0e 94 55 17 	call	0x2eaa	; 0x2eaa <lcd_gotoxy>
			uart_puts("UART cmd = 7 -> ");
    12c0:	80 ed       	ldi	r24, 0xD0	; 208
    12c2:	92 e0       	ldi	r25, 0x02	; 2
    12c4:	0e 94 15 0f 	call	0x1e2a	; 0x1e2a <uart_puts>
			lcd_puts_p(PSTR("DATA don't send"));
    12c8:	8b e2       	ldi	r24, 0x2B	; 43
    12ca:	91 e0       	ldi	r25, 0x01	; 1
    12cc:	0e 94 68 19 	call	0x32d0	; 0x32d0 <lcd_puts_p>
			uart_puts("DATA don't send\r\n");
    12d0:	87 e4       	ldi	r24, 0x47	; 71
    12d2:	92 e0       	ldi	r25, 0x02	; 2
    12d4:	0e 94 15 0f 	call	0x1e2a	; 0x1e2a <uart_puts>
    12d8:	08 95       	ret
		} 
	else if(uart_tx == '8') 
    12da:	80 91 61 03 	lds	r24, 0x0361	; 0x800361 <uart_tx>
    12de:	88 33       	cpi	r24, 0x38	; 56
    12e0:	d9 f4       	brne	.+54     	; 0x1318 <uart_control+0x1e2>
		{
			lcd_sleep(0);
    12e2:	80 e0       	ldi	r24, 0x00	; 0
    12e4:	0e 94 b6 17 	call	0x2f6c	; 0x2f6c <lcd_sleep>
			led_display = 1;
    12e8:	81 e0       	ldi	r24, 0x01	; 1
    12ea:	80 93 62 00 	sts	0x0062, r24	; 0x800062 <led_display>
			led_blink = 1;
    12ee:	80 93 63 03 	sts	0x0363, r24	; 0x800363 <led_blink>
			uart_logs_data = 1;
    12f2:	80 93 60 03 	sts	0x0360, r24	; 0x800360 <uart_logs_data>
			lcd_gotoxy(0,7); 
    12f6:	67 e0       	ldi	r22, 0x07	; 7
    12f8:	80 e0       	ldi	r24, 0x00	; 0
    12fa:	0e 94 55 17 	call	0x2eaa	; 0x2eaa <lcd_gotoxy>
			uart_puts("UART cmd = 8 -> ");
    12fe:	81 ee       	ldi	r24, 0xE1	; 225
    1300:	92 e0       	ldi	r25, 0x02	; 2
    1302:	0e 94 15 0f 	call	0x1e2a	; 0x1e2a <uart_puts>
			lcd_puts_p(PSTR("DATA send      "));
    1306:	8b e1       	ldi	r24, 0x1B	; 27
    1308:	91 e0       	ldi	r25, 0x01	; 1
    130a:	0e 94 68 19 	call	0x32d0	; 0x32d0 <lcd_puts_p>
			uart_puts("OLED display ON, LED display ON, LED blinks, DATA send\r\n");
    130e:	82 ed       	ldi	r24, 0xD2	; 210
    1310:	91 e0       	ldi	r25, 0x01	; 1
    1312:	0e 94 15 0f 	call	0x1e2a	; 0x1e2a <uart_puts>
    1316:	08 95       	ret
		}
	else if(uart_tx == '9') 
    1318:	80 91 61 03 	lds	r24, 0x0361	; 0x800361 <uart_tx>
    131c:	89 33       	cpi	r24, 0x39	; 57
    131e:	e1 f4       	brne	.+56     	; 0x1358 <uart_control+0x222>
		{
			lcd_sleep(1);
    1320:	81 e0       	ldi	r24, 0x01	; 1
    1322:	0e 94 b6 17 	call	0x2f6c	; 0x2f6c <lcd_sleep>
			led_display = 0;
    1326:	10 92 62 00 	sts	0x0062, r1	; 0x800062 <led_display>
			led_blink = 0;
    132a:	10 92 63 03 	sts	0x0363, r1	; 0x800363 <led_blink>
			LED1_OFF;
    132e:	85 b3       	in	r24, 0x15	; 21
    1330:	80 64       	ori	r24, 0x40	; 64
    1332:	85 bb       	out	0x15, r24	; 21
			uart_logs_data = 0;
    1334:	10 92 60 03 	sts	0x0360, r1	; 0x800360 <uart_logs_data>
			lcd_gotoxy(0,7);
    1338:	67 e0       	ldi	r22, 0x07	; 7
    133a:	80 e0       	ldi	r24, 0x00	; 0
    133c:	0e 94 55 17 	call	0x2eaa	; 0x2eaa <lcd_gotoxy>
			uart_puts("UART cmd = 9 -> ");
    1340:	82 ef       	ldi	r24, 0xF2	; 242
    1342:	92 e0       	ldi	r25, 0x02	; 2
    1344:	0e 94 15 0f 	call	0x1e2a	; 0x1e2a <uart_puts>
			lcd_puts_p(PSTR("DATA don't send"));
    1348:	8b e0       	ldi	r24, 0x0B	; 11
    134a:	91 e0       	ldi	r25, 0x01	; 1
    134c:	0e 94 68 19 	call	0x32d0	; 0x32d0 <lcd_puts_p>
			uart_puts("OLED display OFF, LED display OFF, LED doesn't blink, DATA don't send\r\n");
    1350:	81 e1       	ldi	r24, 0x11	; 17
    1352:	92 e0       	ldi	r25, 0x02	; 2
    1354:	0e 94 15 0f 	call	0x1e2a	; 0x1e2a <uart_puts>
    1358:	08 95       	ret

0000135a <ir_control>:


/**********************Function for receiving data from RC5 and device control***********************/
void ir_control(void)
{
	if(!Ir_key_press_flag) lcd_gotoxy(16,7), lcd_puts_p(PSTR("     "));		// empty place on OLED display when IR control is not used
    135a:	80 91 b5 07 	lds	r24, 0x07B5	; 0x8007b5 <Ir_key_press_flag>
    135e:	81 11       	cpse	r24, r1
    1360:	08 c0       	rjmp	.+16     	; 0x1372 <ir_control+0x18>
    1362:	67 e0       	ldi	r22, 0x07	; 7
    1364:	80 e1       	ldi	r24, 0x10	; 16
    1366:	0e 94 55 17 	call	0x2eaa	; 0x2eaa <lcd_gotoxy>
    136a:	85 e0       	ldi	r24, 0x05	; 5
    136c:	91 e0       	ldi	r25, 0x01	; 1
    136e:	0e 94 68 19 	call	0x32d0	; 0x32d0 <lcd_puts_p>
	
	if(Ir_key_press_flag)
    1372:	80 91 b5 07 	lds	r24, 0x07B5	; 0x8007b5 <Ir_key_press_flag>
    1376:	88 23       	and	r24, r24
    1378:	09 f4       	brne	.+2      	; 0x137c <ir_control+0x22>
    137a:	2a c1       	rjmp	.+596    	; 0x15d0 <ir_control+0x276>
	{
		
		if( !address && 0 <= command && command <= 9 )	// inform a user via terminal and OLED display about IR control
    137c:	80 91 b2 07 	lds	r24, 0x07B2	; 0x8007b2 <address>
    1380:	81 11       	cpse	r24, r1
    1382:	21 c0       	rjmp	.+66     	; 0x13c6 <ir_control+0x6c>
    1384:	80 91 b3 07 	lds	r24, 0x07B3	; 0x8007b3 <command>
    1388:	80 91 b3 07 	lds	r24, 0x07B3	; 0x8007b3 <command>
    138c:	8a 30       	cpi	r24, 0x0A	; 10
    138e:	d8 f4       	brcc	.+54     	; 0x13c6 <ir_control+0x6c>
			{
				lcd_gotoxy(16,7);
    1390:	67 e0       	ldi	r22, 0x07	; 7
    1392:	80 e1       	ldi	r24, 0x10	; 16
    1394:	0e 94 55 17 	call	0x2eaa	; 0x2eaa <lcd_gotoxy>
				lcd_puts_p(PSTR("IRcon"));
    1398:	8f ef       	ldi	r24, 0xFF	; 255
    139a:	90 e0       	ldi	r25, 0x00	; 0
    139c:	0e 94 68 19 	call	0x32d0	; 0x32d0 <lcd_puts_p>
				if (command_cnt == 0) uart_puts("RC5 cmd = "), uart_putint(command, 10), uart_puts(" -> "); // send an info only one time
    13a0:	80 91 62 03 	lds	r24, 0x0362	; 0x800362 <command_cnt>
    13a4:	81 11       	cpse	r24, r1
    13a6:	0f c0       	rjmp	.+30     	; 0x13c6 <ir_control+0x6c>
    13a8:	83 e0       	ldi	r24, 0x03	; 3
    13aa:	93 e0       	ldi	r25, 0x03	; 3
    13ac:	0e 94 15 0f 	call	0x1e2a	; 0x1e2a <uart_puts>
    13b0:	80 91 b3 07 	lds	r24, 0x07B3	; 0x8007b3 <command>
    13b4:	6a e0       	ldi	r22, 0x0A	; 10
    13b6:	70 e0       	ldi	r23, 0x00	; 0
    13b8:	90 e0       	ldi	r25, 0x00	; 0
    13ba:	0e 94 24 0f 	call	0x1e48	; 0x1e48 <uart_putint>
    13be:	85 e6       	ldi	r24, 0x65	; 101
    13c0:	92 e0       	ldi	r25, 0x02	; 2
    13c2:	0e 94 15 0f 	call	0x1e2a	; 0x1e2a <uart_puts>
			}
		
		
		/*^^^^^^^^^^^^^^^^THIS PART OF CODE REALIZE THE SAME FUNCTIONALITY LIKE BUTTONS FUNCTIONS^^^^^^^^^^^^^^^^*/
		if( !address && command == 0 ) 
    13c6:	80 91 b2 07 	lds	r24, 0x07B2	; 0x8007b2 <address>
    13ca:	81 11       	cpse	r24, r1
    13cc:	0f c0       	rjmp	.+30     	; 0x13ec <ir_control+0x92>
    13ce:	80 91 b3 07 	lds	r24, 0x07B3	; 0x8007b3 <command>
    13d2:	81 11       	cpse	r24, r1
    13d4:	0b c0       	rjmp	.+22     	; 0x13ec <ir_control+0x92>
			{
				lcd_sleep(0);
    13d6:	0e 94 b6 17 	call	0x2f6c	; 0x2f6c <lcd_sleep>
				if (command_cnt == 0) uart_puts("OLED display ON\r\n"); // send info only once time in the cycle
    13da:	80 91 62 03 	lds	r24, 0x0362	; 0x800362 <command_cnt>
    13de:	81 11       	cpse	r24, r1
    13e0:	e7 c0       	rjmp	.+462    	; 0x15b0 <ir_control+0x256>
    13e2:	8b e1       	ldi	r24, 0x1B	; 27
    13e4:	91 e0       	ldi	r25, 0x01	; 1
    13e6:	0e 94 15 0f 	call	0x1e2a	; 0x1e2a <uart_puts>
    13ea:	e2 c0       	rjmp	.+452    	; 0x15b0 <ir_control+0x256>
			}
		else if( !address && command == 1 ) 
    13ec:	80 91 b2 07 	lds	r24, 0x07B2	; 0x8007b2 <address>
    13f0:	81 11       	cpse	r24, r1
    13f2:	0f c0       	rjmp	.+30     	; 0x1412 <ir_control+0xb8>
    13f4:	80 91 b3 07 	lds	r24, 0x07B3	; 0x8007b3 <command>
    13f8:	81 30       	cpi	r24, 0x01	; 1
    13fa:	59 f4       	brne	.+22     	; 0x1412 <ir_control+0xb8>
			{
				lcd_sleep(1); 
    13fc:	0e 94 b6 17 	call	0x2f6c	; 0x2f6c <lcd_sleep>
				if (command_cnt == 0) uart_puts("OLED display OFF\r\n"); // send info only once time in the cycle
    1400:	80 91 62 03 	lds	r24, 0x0362	; 0x800362 <command_cnt>
    1404:	81 11       	cpse	r24, r1
    1406:	d4 c0       	rjmp	.+424    	; 0x15b0 <ir_control+0x256>
    1408:	83 e3       	ldi	r24, 0x33	; 51
    140a:	91 e0       	ldi	r25, 0x01	; 1
    140c:	0e 94 15 0f 	call	0x1e2a	; 0x1e2a <uart_puts>
    1410:	cf c0       	rjmp	.+414    	; 0x15b0 <ir_control+0x256>
			}
		else if( !address && command == 2 ) 
    1412:	80 91 b2 07 	lds	r24, 0x07B2	; 0x8007b2 <address>
    1416:	81 11       	cpse	r24, r1
    1418:	10 c0       	rjmp	.+32     	; 0x143a <ir_control+0xe0>
    141a:	80 91 b3 07 	lds	r24, 0x07B3	; 0x8007b3 <command>
    141e:	82 30       	cpi	r24, 0x02	; 2
    1420:	61 f4       	brne	.+24     	; 0x143a <ir_control+0xe0>
			{
				led_display = 1; 
    1422:	81 e0       	ldi	r24, 0x01	; 1
    1424:	80 93 62 00 	sts	0x0062, r24	; 0x800062 <led_display>
				if (command_cnt == 0) uart_puts("LED display ON\r\n"); // send info only once time in the cycle
    1428:	80 91 62 03 	lds	r24, 0x0362	; 0x800362 <command_cnt>
    142c:	81 11       	cpse	r24, r1
    142e:	c0 c0       	rjmp	.+384    	; 0x15b0 <ir_control+0x256>
    1430:	8c e4       	ldi	r24, 0x4C	; 76
    1432:	91 e0       	ldi	r25, 0x01	; 1
    1434:	0e 94 15 0f 	call	0x1e2a	; 0x1e2a <uart_puts>
    1438:	bb c0       	rjmp	.+374    	; 0x15b0 <ir_control+0x256>
			
			}
		else if( !address && command == 3 ) 
    143a:	80 91 b2 07 	lds	r24, 0x07B2	; 0x8007b2 <address>
    143e:	81 11       	cpse	r24, r1
    1440:	0f c0       	rjmp	.+30     	; 0x1460 <ir_control+0x106>
    1442:	80 91 b3 07 	lds	r24, 0x07B3	; 0x8007b3 <command>
    1446:	83 30       	cpi	r24, 0x03	; 3
    1448:	59 f4       	brne	.+22     	; 0x1460 <ir_control+0x106>
			{
				led_display = 0;
    144a:	10 92 62 00 	sts	0x0062, r1	; 0x800062 <led_display>
				if (command_cnt == 0) uart_puts("LED display OFF\r\n"); // send info only once time in the cycle
    144e:	80 91 62 03 	lds	r24, 0x0362	; 0x800362 <command_cnt>
    1452:	81 11       	cpse	r24, r1
    1454:	ad c0       	rjmp	.+346    	; 0x15b0 <ir_control+0x256>
    1456:	83 e6       	ldi	r24, 0x63	; 99
    1458:	91 e0       	ldi	r25, 0x01	; 1
    145a:	0e 94 15 0f 	call	0x1e2a	; 0x1e2a <uart_puts>
    145e:	a8 c0       	rjmp	.+336    	; 0x15b0 <ir_control+0x256>
			}
		else if( !address && command == 4 ) 
    1460:	80 91 b2 07 	lds	r24, 0x07B2	; 0x8007b2 <address>
    1464:	81 11       	cpse	r24, r1
    1466:	10 c0       	rjmp	.+32     	; 0x1488 <ir_control+0x12e>
    1468:	80 91 b3 07 	lds	r24, 0x07B3	; 0x8007b3 <command>
    146c:	84 30       	cpi	r24, 0x04	; 4
    146e:	61 f4       	brne	.+24     	; 0x1488 <ir_control+0x12e>
			{
				led_blink = 1; 
    1470:	81 e0       	ldi	r24, 0x01	; 1
    1472:	80 93 63 03 	sts	0x0363, r24	; 0x800363 <led_blink>
				if (command_cnt == 0) uart_puts("LED blinks\r\n"); // send info only once time in the cycle
    1476:	80 91 62 03 	lds	r24, 0x0362	; 0x800362 <command_cnt>
    147a:	81 11       	cpse	r24, r1
    147c:	99 c0       	rjmp	.+306    	; 0x15b0 <ir_control+0x256>
    147e:	8b e7       	ldi	r24, 0x7B	; 123
    1480:	91 e0       	ldi	r25, 0x01	; 1
    1482:	0e 94 15 0f 	call	0x1e2a	; 0x1e2a <uart_puts>
    1486:	94 c0       	rjmp	.+296    	; 0x15b0 <ir_control+0x256>
			}
		else if( !address && command == 5 ) 
    1488:	80 91 b2 07 	lds	r24, 0x07B2	; 0x8007b2 <address>
    148c:	81 11       	cpse	r24, r1
    148e:	12 c0       	rjmp	.+36     	; 0x14b4 <ir_control+0x15a>
    1490:	80 91 b3 07 	lds	r24, 0x07B3	; 0x8007b3 <command>
    1494:	85 30       	cpi	r24, 0x05	; 5
    1496:	71 f4       	brne	.+28     	; 0x14b4 <ir_control+0x15a>
			{
				led_blink = 0;
    1498:	10 92 63 03 	sts	0x0363, r1	; 0x800363 <led_blink>
				LED1_OFF;
    149c:	85 b3       	in	r24, 0x15	; 21
    149e:	80 64       	ori	r24, 0x40	; 64
    14a0:	85 bb       	out	0x15, r24	; 21
				if (command_cnt == 0) uart_puts("LED doesn't blink\r\n"); // send info only once time in the cycle
    14a2:	80 91 62 03 	lds	r24, 0x0362	; 0x800362 <command_cnt>
    14a6:	81 11       	cpse	r24, r1
    14a8:	83 c0       	rjmp	.+262    	; 0x15b0 <ir_control+0x256>
    14aa:	8e e8       	ldi	r24, 0x8E	; 142
    14ac:	91 e0       	ldi	r25, 0x01	; 1
    14ae:	0e 94 15 0f 	call	0x1e2a	; 0x1e2a <uart_puts>
    14b2:	7e c0       	rjmp	.+252    	; 0x15b0 <ir_control+0x256>
			}
		else if( !address && command == 6 )
    14b4:	80 91 b2 07 	lds	r24, 0x07B2	; 0x8007b2 <address>
    14b8:	81 11       	cpse	r24, r1
    14ba:	18 c0       	rjmp	.+48     	; 0x14ec <ir_control+0x192>
    14bc:	80 91 b3 07 	lds	r24, 0x07B3	; 0x8007b3 <command>
    14c0:	86 30       	cpi	r24, 0x06	; 6
    14c2:	a1 f4       	brne	.+40     	; 0x14ec <ir_control+0x192>
			{
				uart_logs_data = 1;
    14c4:	81 e0       	ldi	r24, 0x01	; 1
    14c6:	80 93 60 03 	sts	0x0360, r24	; 0x800360 <uart_logs_data>
				lcd_gotoxy(0,7);
    14ca:	67 e0       	ldi	r22, 0x07	; 7
    14cc:	80 e0       	ldi	r24, 0x00	; 0
    14ce:	0e 94 55 17 	call	0x2eaa	; 0x2eaa <lcd_gotoxy>
				lcd_puts_p(PSTR("DATA send      "));
    14d2:	8f ee       	ldi	r24, 0xEF	; 239
    14d4:	90 e0       	ldi	r25, 0x00	; 0
    14d6:	0e 94 68 19 	call	0x32d0	; 0x32d0 <lcd_puts_p>
				if (command_cnt == 0)  uart_puts("DATA send\r\n"); // send info only once time in the cycle
    14da:	80 91 62 03 	lds	r24, 0x0362	; 0x800362 <command_cnt>
    14de:	81 11       	cpse	r24, r1
    14e0:	67 c0       	rjmp	.+206    	; 0x15b0 <ir_control+0x256>
    14e2:	8f ef       	ldi	r24, 0xFF	; 255
    14e4:	91 e0       	ldi	r25, 0x01	; 1
    14e6:	0e 94 15 0f 	call	0x1e2a	; 0x1e2a <uart_puts>
    14ea:	62 c0       	rjmp	.+196    	; 0x15b0 <ir_control+0x256>
			}
		else if( !address && command == 7 )
    14ec:	80 91 b2 07 	lds	r24, 0x07B2	; 0x8007b2 <address>
    14f0:	81 11       	cpse	r24, r1
    14f2:	17 c0       	rjmp	.+46     	; 0x1522 <ir_control+0x1c8>
    14f4:	80 91 b3 07 	lds	r24, 0x07B3	; 0x8007b3 <command>
    14f8:	87 30       	cpi	r24, 0x07	; 7
    14fa:	99 f4       	brne	.+38     	; 0x1522 <ir_control+0x1c8>
			{
				uart_logs_data = 0;
    14fc:	10 92 60 03 	sts	0x0360, r1	; 0x800360 <uart_logs_data>
				lcd_gotoxy(0,7);
    1500:	67 e0       	ldi	r22, 0x07	; 7
    1502:	80 e0       	ldi	r24, 0x00	; 0
    1504:	0e 94 55 17 	call	0x2eaa	; 0x2eaa <lcd_gotoxy>
				lcd_puts_p(PSTR("DATA don't send"));
    1508:	8f ed       	ldi	r24, 0xDF	; 223
    150a:	90 e0       	ldi	r25, 0x00	; 0
    150c:	0e 94 68 19 	call	0x32d0	; 0x32d0 <lcd_puts_p>
				if (command_cnt == 0) uart_puts("DATA don't send\r\n"); // send info only once time in the cycle
    1510:	80 91 62 03 	lds	r24, 0x0362	; 0x800362 <command_cnt>
    1514:	81 11       	cpse	r24, r1
    1516:	4c c0       	rjmp	.+152    	; 0x15b0 <ir_control+0x256>
    1518:	87 e4       	ldi	r24, 0x47	; 71
    151a:	92 e0       	ldi	r25, 0x02	; 2
    151c:	0e 94 15 0f 	call	0x1e2a	; 0x1e2a <uart_puts>
    1520:	47 c0       	rjmp	.+142    	; 0x15b0 <ir_control+0x256>
			}
		else if( !address && command == 8 ) 
    1522:	80 91 b2 07 	lds	r24, 0x07B2	; 0x8007b2 <address>
    1526:	81 11       	cpse	r24, r1
    1528:	1f c0       	rjmp	.+62     	; 0x1568 <ir_control+0x20e>
    152a:	80 91 b3 07 	lds	r24, 0x07B3	; 0x8007b3 <command>
    152e:	88 30       	cpi	r24, 0x08	; 8
    1530:	d9 f4       	brne	.+54     	; 0x1568 <ir_control+0x20e>
			{
				lcd_sleep(0);
    1532:	80 e0       	ldi	r24, 0x00	; 0
    1534:	0e 94 b6 17 	call	0x2f6c	; 0x2f6c <lcd_sleep>
				led_display = 1;
    1538:	81 e0       	ldi	r24, 0x01	; 1
    153a:	80 93 62 00 	sts	0x0062, r24	; 0x800062 <led_display>
				led_blink = 1;
    153e:	80 93 63 03 	sts	0x0363, r24	; 0x800363 <led_blink>
				uart_logs_data = 1;
    1542:	80 93 60 03 	sts	0x0360, r24	; 0x800360 <uart_logs_data>
				lcd_gotoxy(0,7);
    1546:	67 e0       	ldi	r22, 0x07	; 7
    1548:	80 e0       	ldi	r24, 0x00	; 0
    154a:	0e 94 55 17 	call	0x2eaa	; 0x2eaa <lcd_gotoxy>
				lcd_puts_p(PSTR("DATA send      "));
    154e:	8f ec       	ldi	r24, 0xCF	; 207
    1550:	90 e0       	ldi	r25, 0x00	; 0
    1552:	0e 94 68 19 	call	0x32d0	; 0x32d0 <lcd_puts_p>
				if (command_cnt == 0) uart_puts("OLED display ON, LED display ON, LED blinks, DATA send\r\n"); // send info only once time in the cycle
    1556:	80 91 62 03 	lds	r24, 0x0362	; 0x800362 <command_cnt>
    155a:	81 11       	cpse	r24, r1
    155c:	29 c0       	rjmp	.+82     	; 0x15b0 <ir_control+0x256>
    155e:	82 ed       	ldi	r24, 0xD2	; 210
    1560:	91 e0       	ldi	r25, 0x01	; 1
    1562:	0e 94 15 0f 	call	0x1e2a	; 0x1e2a <uart_puts>
    1566:	24 c0       	rjmp	.+72     	; 0x15b0 <ir_control+0x256>
			}	
		else if( !address && command == 9 ) 
    1568:	80 91 b2 07 	lds	r24, 0x07B2	; 0x8007b2 <address>
    156c:	81 11       	cpse	r24, r1
    156e:	20 c0       	rjmp	.+64     	; 0x15b0 <ir_control+0x256>
    1570:	80 91 b3 07 	lds	r24, 0x07B3	; 0x8007b3 <command>
    1574:	89 30       	cpi	r24, 0x09	; 9
    1576:	e1 f4       	brne	.+56     	; 0x15b0 <ir_control+0x256>
			{
				lcd_sleep(1);
    1578:	81 e0       	ldi	r24, 0x01	; 1
    157a:	0e 94 b6 17 	call	0x2f6c	; 0x2f6c <lcd_sleep>
				led_display = 0;
    157e:	10 92 62 00 	sts	0x0062, r1	; 0x800062 <led_display>
				led_blink = 0;
    1582:	10 92 63 03 	sts	0x0363, r1	; 0x800363 <led_blink>
				LED1_OFF;
    1586:	85 b3       	in	r24, 0x15	; 21
    1588:	80 64       	ori	r24, 0x40	; 64
    158a:	85 bb       	out	0x15, r24	; 21
				uart_logs_data = 0;
    158c:	10 92 60 03 	sts	0x0360, r1	; 0x800360 <uart_logs_data>
				lcd_gotoxy(0,7);
    1590:	67 e0       	ldi	r22, 0x07	; 7
    1592:	80 e0       	ldi	r24, 0x00	; 0
    1594:	0e 94 55 17 	call	0x2eaa	; 0x2eaa <lcd_gotoxy>
				lcd_puts_p(PSTR("DATA don't send"));
    1598:	8f eb       	ldi	r24, 0xBF	; 191
    159a:	90 e0       	ldi	r25, 0x00	; 0
    159c:	0e 94 68 19 	call	0x32d0	; 0x32d0 <lcd_puts_p>
				if (command_cnt == 0) uart_puts("OLED display OFF, LED display OFF, LED doesn't blink, DATA don't send\r\n"); // send info only once time in the cycle
    15a0:	80 91 62 03 	lds	r24, 0x0362	; 0x800362 <command_cnt>
    15a4:	81 11       	cpse	r24, r1
    15a6:	04 c0       	rjmp	.+8      	; 0x15b0 <ir_control+0x256>
    15a8:	81 e1       	ldi	r24, 0x11	; 17
    15aa:	92 e0       	ldi	r25, 0x02	; 2
    15ac:	0e 94 15 0f 	call	0x1e2a	; 0x1e2a <uart_puts>
			}
		
		
		Ir_key_press_flag = 0; // reset a variable when the value == 0 
    15b0:	10 92 b5 07 	sts	0x07B5, r1	; 0x8007b5 <Ir_key_press_flag>
		if ( ++command_cnt == 2 ) command_cnt = 0; // reset a variable when the value == 2 
    15b4:	80 91 62 03 	lds	r24, 0x0362	; 0x800362 <command_cnt>
    15b8:	8f 5f       	subi	r24, 0xFF	; 255
    15ba:	80 93 62 03 	sts	0x0362, r24	; 0x800362 <command_cnt>
    15be:	82 30       	cpi	r24, 0x02	; 2
    15c0:	11 f4       	brne	.+4      	; 0x15c6 <ir_control+0x26c>
    15c2:	10 92 62 03 	sts	0x0362, r1	; 0x800362 <command_cnt>
		
		command=0xff;
    15c6:	8f ef       	ldi	r24, 0xFF	; 255
    15c8:	80 93 b3 07 	sts	0x07B3, r24	; 0x8007b3 <command>
		address=0xff;
    15cc:	80 93 b2 07 	sts	0x07B2, r24	; 0x8007b2 <address>
    15d0:	08 95       	ret

000015d2 <uart_data_logging>:


/**********************Function for sending measurements from sensors via UART***********************/
void uart_data_logging(void)
{
	if (hh < 10) uart_puts("0");	// send a time
    15d2:	80 91 d2 07 	lds	r24, 0x07D2	; 0x8007d2 <hh>
    15d6:	8a 30       	cpi	r24, 0x0A	; 10
    15d8:	20 f4       	brcc	.+8      	; 0x15e2 <uart_data_logging+0x10>
    15da:	83 e1       	ldi	r24, 0x13	; 19
    15dc:	93 e0       	ldi	r25, 0x03	; 3
    15de:	0e 94 15 0f 	call	0x1e2a	; 0x1e2a <uart_puts>
	uart_putint(hh, 10);
    15e2:	80 91 d2 07 	lds	r24, 0x07D2	; 0x8007d2 <hh>
    15e6:	6a e0       	ldi	r22, 0x0A	; 10
    15e8:	70 e0       	ldi	r23, 0x00	; 0
    15ea:	90 e0       	ldi	r25, 0x00	; 0
    15ec:	0e 94 24 0f 	call	0x1e48	; 0x1e48 <uart_putint>
	uart_puts(":");
    15f0:	8e e0       	ldi	r24, 0x0E	; 14
    15f2:	93 e0       	ldi	r25, 0x03	; 3
    15f4:	0e 94 15 0f 	call	0x1e2a	; 0x1e2a <uart_puts>
	if (min < 10) uart_puts("0");
    15f8:	80 91 cd 07 	lds	r24, 0x07CD	; 0x8007cd <min>
    15fc:	8a 30       	cpi	r24, 0x0A	; 10
    15fe:	20 f4       	brcc	.+8      	; 0x1608 <uart_data_logging+0x36>
    1600:	83 e1       	ldi	r24, 0x13	; 19
    1602:	93 e0       	ldi	r25, 0x03	; 3
    1604:	0e 94 15 0f 	call	0x1e2a	; 0x1e2a <uart_puts>
	uart_putint(min, 10);
    1608:	80 91 cd 07 	lds	r24, 0x07CD	; 0x8007cd <min>
    160c:	6a e0       	ldi	r22, 0x0A	; 10
    160e:	70 e0       	ldi	r23, 0x00	; 0
    1610:	90 e0       	ldi	r25, 0x00	; 0
    1612:	0e 94 24 0f 	call	0x1e48	; 0x1e48 <uart_putint>
	uart_puts(":");
    1616:	8e e0       	ldi	r24, 0x0E	; 14
    1618:	93 e0       	ldi	r25, 0x03	; 3
    161a:	0e 94 15 0f 	call	0x1e2a	; 0x1e2a <uart_puts>
	if (ss < 10) uart_puts("0");
    161e:	80 91 bd 07 	lds	r24, 0x07BD	; 0x8007bd <ss>
    1622:	8a 30       	cpi	r24, 0x0A	; 10
    1624:	20 f4       	brcc	.+8      	; 0x162e <uart_data_logging+0x5c>
    1626:	83 e1       	ldi	r24, 0x13	; 19
    1628:	93 e0       	ldi	r25, 0x03	; 3
    162a:	0e 94 15 0f 	call	0x1e2a	; 0x1e2a <uart_puts>
	uart_putint(ss, 10);
    162e:	80 91 bd 07 	lds	r24, 0x07BD	; 0x8007bd <ss>
    1632:	6a e0       	ldi	r22, 0x0A	; 10
    1634:	70 e0       	ldi	r23, 0x00	; 0
    1636:	90 e0       	ldi	r25, 0x00	; 0
    1638:	0e 94 24 0f 	call	0x1e48	; 0x1e48 <uart_putint>
	uart_puts(" / ");
    163c:	87 e3       	ldi	r24, 0x37	; 55
    163e:	93 e0       	ldi	r25, 0x03	; 3
    1640:	0e 94 15 0f 	call	0x1e2a	; 0x1e2a <uart_puts>

	uart_day_of_the_week(day);	// send a date
    1644:	80 91 d1 07 	lds	r24, 0x07D1	; 0x8007d1 <day>
    1648:	0e 94 6e 08 	call	0x10dc	; 0x10dc <uart_day_of_the_week>
	uart_puts("/");
    164c:	80 e1       	ldi	r24, 0x10	; 16
    164e:	93 e0       	ldi	r25, 0x03	; 3
    1650:	0e 94 15 0f 	call	0x1e2a	; 0x1e2a <uart_puts>
	uart_putint(dd, 10);
    1654:	80 91 c2 07 	lds	r24, 0x07C2	; 0x8007c2 <dd>
    1658:	6a e0       	ldi	r22, 0x0A	; 10
    165a:	70 e0       	ldi	r23, 0x00	; 0
    165c:	90 e0       	ldi	r25, 0x00	; 0
    165e:	0e 94 24 0f 	call	0x1e48	; 0x1e48 <uart_putint>
	uart_puts("/");
    1662:	80 e1       	ldi	r24, 0x10	; 16
    1664:	93 e0       	ldi	r25, 0x03	; 3
    1666:	0e 94 15 0f 	call	0x1e2a	; 0x1e2a <uart_puts>
	uart_putint(mm, 10);
    166a:	80 91 b7 07 	lds	r24, 0x07B7	; 0x8007b7 <mm>
    166e:	6a e0       	ldi	r22, 0x0A	; 10
    1670:	70 e0       	ldi	r23, 0x00	; 0
    1672:	90 e0       	ldi	r25, 0x00	; 0
    1674:	0e 94 24 0f 	call	0x1e48	; 0x1e48 <uart_putint>
	uart_puts("/");
    1678:	80 e1       	ldi	r24, 0x10	; 16
    167a:	93 e0       	ldi	r25, 0x03	; 3
    167c:	0e 94 15 0f 	call	0x1e2a	; 0x1e2a <uart_puts>
	if (yy != 0) uart_puts("20");
    1680:	80 91 cf 07 	lds	r24, 0x07CF	; 0x8007cf <yy>
    1684:	88 23       	and	r24, r24
    1686:	21 f0       	breq	.+8      	; 0x1690 <uart_data_logging+0xbe>
    1688:	82 e1       	ldi	r24, 0x12	; 18
    168a:	93 e0       	ldi	r25, 0x03	; 3
    168c:	0e 94 15 0f 	call	0x1e2a	; 0x1e2a <uart_puts>
	uart_putint(yy, 10);
    1690:	80 91 cf 07 	lds	r24, 0x07CF	; 0x8007cf <yy>
    1694:	6a e0       	ldi	r22, 0x0A	; 10
    1696:	70 e0       	ldi	r23, 0x00	; 0
    1698:	90 e0       	ldi	r25, 0x00	; 0
    169a:	0e 94 24 0f 	call	0x1e48	; 0x1e48 <uart_putint>

	uart_puts(" / DS18B20: "); // send a data from DS18B20 sensor
    169e:	85 e1       	ldi	r24, 0x15	; 21
    16a0:	93 e0       	ldi	r25, 0x03	; 3
    16a2:	0e 94 15 0f 	call	0x1e2a	; 0x1e2a <uart_puts>
	if(subzero) uart_puts("-");
    16a6:	80 91 cc 07 	lds	r24, 0x07CC	; 0x8007cc <subzero>
    16aa:	88 23       	and	r24, r24
    16ac:	21 f0       	breq	.+8      	; 0x16b6 <uart_data_logging+0xe4>
    16ae:	82 e2       	ldi	r24, 0x22	; 34
    16b0:	93 e0       	ldi	r25, 0x03	; 3
    16b2:	0e 94 15 0f 	call	0x1e2a	; 0x1e2a <uart_puts>
	uart_putint(cel, 10);
    16b6:	80 91 d0 07 	lds	r24, 0x07D0	; 0x8007d0 <cel>
    16ba:	6a e0       	ldi	r22, 0x0A	; 10
    16bc:	70 e0       	ldi	r23, 0x00	; 0
    16be:	90 e0       	ldi	r25, 0x00	; 0
    16c0:	0e 94 24 0f 	call	0x1e48	; 0x1e48 <uart_putint>
	uart_puts(".");
    16c4:	84 e2       	ldi	r24, 0x24	; 36
    16c6:	93 e0       	ldi	r25, 0x03	; 3
    16c8:	0e 94 15 0f 	call	0x1e2a	; 0x1e2a <uart_puts>
	uart_putint(cel_fract_bits, 10);
    16cc:	80 91 ca 07 	lds	r24, 0x07CA	; 0x8007ca <cel_fract_bits>
    16d0:	6a e0       	ldi	r22, 0x0A	; 10
    16d2:	70 e0       	ldi	r23, 0x00	; 0
    16d4:	90 e0       	ldi	r25, 0x00	; 0
    16d6:	0e 94 24 0f 	call	0x1e48	; 0x1e48 <uart_putint>
	uart_puts("°C");
    16da:	86 e2       	ldi	r24, 0x26	; 38
    16dc:	93 e0       	ldi	r25, 0x03	; 3
    16de:	0e 94 15 0f 	call	0x1e2a	; 0x1e2a <uart_puts>

	uart_puts(" / BME280: ");	// send a data from BME280 sensor
    16e2:	89 e2       	ldi	r24, 0x29	; 41
    16e4:	93 e0       	ldi	r25, 0x03	; 3
    16e6:	0e 94 15 0f 	call	0x1e2a	; 0x1e2a <uart_puts>
	if(t_fract_flag) uart_puts("-");
    16ea:	80 91 55 03 	lds	r24, 0x0355	; 0x800355 <t_fract_flag>
    16ee:	88 23       	and	r24, r24
    16f0:	21 f0       	breq	.+8      	; 0x16fa <uart_data_logging+0x128>
    16f2:	82 e2       	ldi	r24, 0x22	; 34
    16f4:	93 e0       	ldi	r25, 0x03	; 3
    16f6:	0e 94 15 0f 	call	0x1e2a	; 0x1e2a <uart_puts>
	uart_putint(t_int, 10);
    16fa:	80 91 bb 07 	lds	r24, 0x07BB	; 0x8007bb <t_int>
    16fe:	6a e0       	ldi	r22, 0x0A	; 10
    1700:	70 e0       	ldi	r23, 0x00	; 0
    1702:	08 2e       	mov	r0, r24
    1704:	00 0c       	add	r0, r0
    1706:	99 0b       	sbc	r25, r25
    1708:	0e 94 24 0f 	call	0x1e48	; 0x1e48 <uart_putint>
	uart_puts(".");
    170c:	84 e2       	ldi	r24, 0x24	; 36
    170e:	93 e0       	ldi	r25, 0x03	; 3
    1710:	0e 94 15 0f 	call	0x1e2a	; 0x1e2a <uart_puts>
	if(t_fract < 10) uart_puts("0");
    1714:	80 91 be 07 	lds	r24, 0x07BE	; 0x8007be <t_fract>
    1718:	8a 30       	cpi	r24, 0x0A	; 10
    171a:	24 f4       	brge	.+8      	; 0x1724 <uart_data_logging+0x152>
    171c:	83 e1       	ldi	r24, 0x13	; 19
    171e:	93 e0       	ldi	r25, 0x03	; 3
    1720:	0e 94 15 0f 	call	0x1e2a	; 0x1e2a <uart_puts>
	uart_putint(t_fract, 10);
    1724:	80 91 be 07 	lds	r24, 0x07BE	; 0x8007be <t_fract>
    1728:	6a e0       	ldi	r22, 0x0A	; 10
    172a:	70 e0       	ldi	r23, 0x00	; 0
    172c:	08 2e       	mov	r0, r24
    172e:	00 0c       	add	r0, r0
    1730:	99 0b       	sbc	r25, r25
    1732:	0e 94 24 0f 	call	0x1e48	; 0x1e48 <uart_putint>
	uart_puts("°C / ");
    1736:	85 e3       	ldi	r24, 0x35	; 53
    1738:	93 e0       	ldi	r25, 0x03	; 3
    173a:	0e 94 15 0f 	call	0x1e2a	; 0x1e2a <uart_puts>
	uart_putint(hp_int, 10);
    173e:	6a e0       	ldi	r22, 0x0A	; 10
    1740:	70 e0       	ldi	r23, 0x00	; 0
    1742:	80 91 bf 07 	lds	r24, 0x07BF	; 0x8007bf <hp_int>
    1746:	90 91 c0 07 	lds	r25, 0x07C0	; 0x8007c0 <hp_int+0x1>
    174a:	0e 94 24 0f 	call	0x1e48	; 0x1e48 <uart_putint>
	uart_puts(".");
    174e:	84 e2       	ldi	r24, 0x24	; 36
    1750:	93 e0       	ldi	r25, 0x03	; 3
    1752:	0e 94 15 0f 	call	0x1e2a	; 0x1e2a <uart_puts>
	if(hp_fract < 10) uart_puts("0");
    1756:	80 91 b6 07 	lds	r24, 0x07B6	; 0x8007b6 <hp_fract>
    175a:	8a 30       	cpi	r24, 0x0A	; 10
    175c:	20 f4       	brcc	.+8      	; 0x1766 <uart_data_logging+0x194>
    175e:	83 e1       	ldi	r24, 0x13	; 19
    1760:	93 e0       	ldi	r25, 0x03	; 3
    1762:	0e 94 15 0f 	call	0x1e2a	; 0x1e2a <uart_puts>
	uart_putint(hp_fract, 10);
    1766:	80 91 b6 07 	lds	r24, 0x07B6	; 0x8007b6 <hp_fract>
    176a:	6a e0       	ldi	r22, 0x0A	; 10
    176c:	70 e0       	ldi	r23, 0x00	; 0
    176e:	90 e0       	ldi	r25, 0x00	; 0
    1770:	0e 94 24 0f 	call	0x1e48	; 0x1e48 <uart_putint>
	uart_puts("hPa / ");
    1774:	8b e3       	ldi	r24, 0x3B	; 59
    1776:	93 e0       	ldi	r25, 0x03	; 3
    1778:	0e 94 15 0f 	call	0x1e2a	; 0x1e2a <uart_puts>
	uart_putint(hm_int, 10);
    177c:	80 91 b9 07 	lds	r24, 0x07B9	; 0x8007b9 <hm_int>
    1780:	6a e0       	ldi	r22, 0x0A	; 10
    1782:	70 e0       	ldi	r23, 0x00	; 0
    1784:	90 e0       	ldi	r25, 0x00	; 0
    1786:	0e 94 24 0f 	call	0x1e48	; 0x1e48 <uart_putint>
	uart_puts(".");
    178a:	84 e2       	ldi	r24, 0x24	; 36
    178c:	93 e0       	ldi	r25, 0x03	; 3
    178e:	0e 94 15 0f 	call	0x1e2a	; 0x1e2a <uart_puts>
	if (hm_int < 100 && hm_fract < 10) uart_puts("0");
    1792:	80 91 b9 07 	lds	r24, 0x07B9	; 0x8007b9 <hm_int>
    1796:	84 36       	cpi	r24, 0x64	; 100
    1798:	40 f4       	brcc	.+16     	; 0x17aa <uart_data_logging+0x1d8>
    179a:	80 91 ba 07 	lds	r24, 0x07BA	; 0x8007ba <hm_fract>
    179e:	8a 30       	cpi	r24, 0x0A	; 10
    17a0:	20 f4       	brcc	.+8      	; 0x17aa <uart_data_logging+0x1d8>
    17a2:	83 e1       	ldi	r24, 0x13	; 19
    17a4:	93 e0       	ldi	r25, 0x03	; 3
    17a6:	0e 94 15 0f 	call	0x1e2a	; 0x1e2a <uart_puts>
	uart_putint(hm_fract, 10);
    17aa:	80 91 ba 07 	lds	r24, 0x07BA	; 0x8007ba <hm_fract>
    17ae:	6a e0       	ldi	r22, 0x0A	; 10
    17b0:	70 e0       	ldi	r23, 0x00	; 0
    17b2:	90 e0       	ldi	r25, 0x00	; 0
    17b4:	0e 94 24 0f 	call	0x1e48	; 0x1e48 <uart_putint>
	uart_puts("%\r\n");
    17b8:	82 e4       	ldi	r24, 0x42	; 66
    17ba:	93 e0       	ldi	r25, 0x03	; 3
    17bc:	0e 94 15 0f 	call	0x1e2a	; 0x1e2a <uart_puts>
    17c0:	08 95       	ret

000017c2 <dec2bcd>:


/***********************Convert decimal to BCD***********************/
uint8_t dec2bcd(uint8_t dec)
{
	return ((dec / 10)<<4) | (dec % 10);
    17c2:	9d ec       	ldi	r25, 0xCD	; 205
    17c4:	89 9f       	mul	r24, r25
    17c6:	91 2d       	mov	r25, r1
    17c8:	11 24       	eor	r1, r1
    17ca:	96 95       	lsr	r25
    17cc:	96 95       	lsr	r25
    17ce:	96 95       	lsr	r25
    17d0:	20 e1       	ldi	r18, 0x10	; 16
    17d2:	92 9f       	mul	r25, r18
    17d4:	a0 01       	movw	r20, r0
    17d6:	11 24       	eor	r1, r1
    17d8:	99 0f       	add	r25, r25
    17da:	29 2f       	mov	r18, r25
    17dc:	22 0f       	add	r18, r18
    17de:	22 0f       	add	r18, r18
    17e0:	92 0f       	add	r25, r18
    17e2:	89 1b       	sub	r24, r25
}
    17e4:	84 2b       	or	r24, r20
    17e6:	08 95       	ret

000017e8 <bcd2dec>:


/***********************Convert BCD to decimal***********************/
uint8_t bcd2dec(uint8_t bcd)
{
	return ((((bcd) >> 4) & 0x0F) * 10) + ((bcd) & 0x0F);
    17e8:	98 2f       	mov	r25, r24
    17ea:	92 95       	swap	r25
    17ec:	9f 70       	andi	r25, 0x0F	; 15
    17ee:	99 0f       	add	r25, r25
    17f0:	29 2f       	mov	r18, r25
    17f2:	22 0f       	add	r18, r18
    17f4:	22 0f       	add	r18, r18
    17f6:	92 0f       	add	r25, r18
    17f8:	8f 70       	andi	r24, 0x0F	; 15
    17fa:	89 0f       	add	r24, r25
    17fc:	08 95       	ret

000017fe <main>:
/***********************MAIN FUNCTION OF PROGRAM***********************/
int main(void) 
{

/*------------------INITIALIZATION OF PINS DIRECTION------------------*/
	KL_DDRA &= ~(KEY1|KEY2|KEY3|KEY4);	// the direction register of buttons as an input
    17fe:	8a b3       	in	r24, 0x1a	; 26
    1800:	8f 70       	andi	r24, 0x0F	; 15
    1802:	8a bb       	out	0x1a, r24	; 26
	KL_DDRC &= ~(KEY5);
    1804:	84 b3       	in	r24, 0x14	; 20
    1806:	8f 77       	andi	r24, 0x7F	; 127
    1808:	84 bb       	out	0x14, r24	; 20
	
	KL_PORTA |= KEY1|KEY2|KEY3|KEY4;	// switching on a pull-up to VCC
    180a:	8b b3       	in	r24, 0x1b	; 27
    180c:	80 6f       	ori	r24, 0xF0	; 240
    180e:	8b bb       	out	0x1b, r24	; 27
	KL_PORTC |= KEY5;	// switching on a pull-up to VCC
    1810:	85 b3       	in	r24, 0x15	; 21
    1812:	80 68       	ori	r24, 0x80	; 128
    1814:	85 bb       	out	0x15, r24	; 21

	
	LED1_DDR |= LED1;	// the direction register of LED as an output
    1816:	84 b3       	in	r24, 0x14	; 20
    1818:	80 64       	ori	r24, 0x40	; 64
    181a:	84 bb       	out	0x14, r24	; 20
	LED1_OFF;	// switch off LED
    181c:	85 b3       	in	r24, 0x15	; 21
    181e:	80 64       	ori	r24, 0x40	; 64
    1820:	85 bb       	out	0x15, r24	; 21


/*------------------INTERRUPT INITIALIZATION------------------*/

	/* INT0 interrupt */
	MCUCR |= (1<<ISC01);	// falling edge triggering
    1822:	85 b7       	in	r24, 0x35	; 53
    1824:	82 60       	ori	r24, 0x02	; 2
    1826:	85 bf       	out	0x35, r24	; 53
	GICR |= (1<<INT0);		// interrupt unlock
    1828:	8b b7       	in	r24, 0x3b	; 59
    182a:	80 64       	ori	r24, 0x40	; 64
    182c:	8b bf       	out	0x3b, r24	; 59
	PORTD |= (1<<PD2);		// pulling the INT0 pin to VCC
    182e:	82 b3       	in	r24, 0x12	; 18
    1830:	84 60       	ori	r24, 0x04	; 4
    1832:	82 bb       	out	0x12, r24	; 18

	/* Timer2 – interrupt initialization - 10 ms (100Hz) */
	TCCR2 	|= (1<<WGM21);			// CTC work mode
    1834:	85 b5       	in	r24, 0x25	; 37
    1836:	88 60       	ori	r24, 0x08	; 8
    1838:	85 bd       	out	0x25, r24	; 37
	TCCR2 	|= (1<<CS22)|(1<<CS21)|(1<<CS20);	// prescaler = 1024
    183a:	85 b5       	in	r24, 0x25	; 37
    183c:	87 60       	ori	r24, 0x07	; 7
    183e:	85 bd       	out	0x25, r24	; 37
	OCR2 	= 108;					// interrupt comparison every 10ms (100Hz)
    1840:	8c e6       	ldi	r24, 0x6C	; 108
    1842:	83 bd       	out	0x23, r24	; 35
	TIMSK 	= (1<<OCIE2);			// interrupt unlock CompareMatch
    1844:	80 e8       	ldi	r24, 0x80	; 128
    1846:	89 bf       	out	0x39, r24	; 57


/*------------------INITIALIZATION OF PROGRAM MODULES------------------*/
	sensors_cnt = search_sensors();		// check how many DS18xxx is present on 1-Wire bus
    1848:	0e 94 2f 03 	call	0x65e	; 0x65e <search_sensors>
    184c:	80 93 cb 07 	sts	0x07CB, r24	; 0x8007cb <sensors_cnt>
	DS18X20_start_meas( DS18X20_POWER_EXTERN, NULL ); // start measuring of temperature for DS18B20
    1850:	60 e0       	ldi	r22, 0x00	; 0
    1852:	70 e0       	ldi	r23, 0x00	; 0
    1854:	81 e0       	ldi	r24, 0x01	; 1
    1856:	0e 94 77 03 	call	0x6ee	; 0x6ee <DS18X20_start_meas>
	
	i2cSetBitrate(100);	// set the speed for I2C (kHz)
    185a:	84 e6       	ldi	r24, 0x64	; 100
    185c:	90 e0       	ldi	r25, 0x00	; 0
    185e:	0e 94 2c 05 	call	0xa58	; 0xa58 <i2cSetBitrate>
	
	mk_press_hum_init();	// BME280 sensor initialization
    1862:	0e 94 77 16 	call	0x2cee	; 0x2cee <mk_press_hum_init>
	
	lcd_oled_init(LCD_DISP_ON);	// initialization of OLED and turn on
    1866:	8f ea       	ldi	r24, 0xAF	; 175
    1868:	0e 94 84 17 	call	0x2f08	; 0x2f08 <lcd_oled_init>
	lcd_set_contrast(100);	// set a contrast for OLED display
    186c:	84 e6       	ldi	r24, 0x64	; 100
    186e:	0e 94 cb 17 	call	0x2f96	; 0x2f96 <lcd_set_contrast>
	lcd_charMode(1);	// set a font size
    1872:	81 e0       	ldi	r24, 0x01	; 1
    1874:	0e 94 58 19 	call	0x32b0	; 0x32b0 <lcd_charMode>
	
	d_led_init();	// LED multiplexing initialization
    1878:	0e 94 c5 04 	call	0x98a	; 0x98a <d_led_init>
	
	ir_init();	// initialization of the RC5 infrared receiver 
    187c:	0e 94 bf 05 	call	0xb7e	; 0xb7e <ir_init>

	USART_Init(__UBRR);	// UART initialization
    1880:	83 e2       	ldi	r24, 0x23	; 35
    1882:	90 e0       	ldi	r25, 0x00	; 0
    1884:	0e 94 f8 0e 	call	0x1df0	; 0x1df0 <USART_Init>
	
	sei();	// global interrupt unlock
    1888:	78 94       	sei

/*------------------SEND AND SET TIME, DATA FOR RTC CHIP------------------*/
	if (RTC_modify == 1)	// RTC_modify == 0 -> don't modify time and date with every flashing / reset of device,  
    188a:	80 91 57 03 	lds	r24, 0x0357	; 0x800357 <RTC_modify>
    188e:	81 30       	cpi	r24, 0x01	; 1
    1890:	21 f5       	brne	.+72     	; 0x18da <main+0xdc>
		{					// RTC_modify == 1 -> - modify time and date with every flashing / reset of device
			buffer[HH] = dec2bcd(22);	// hours
    1892:	86 e1       	ldi	r24, 0x16	; 22
    1894:	0e 94 e1 0b 	call	0x17c2	; 0x17c2 <dec2bcd>
    1898:	c3 ec       	ldi	r28, 0xC3	; 195
    189a:	d7 e0       	ldi	r29, 0x07	; 7
    189c:	8a 83       	std	Y+2, r24	; 0x02
			buffer[MIN] = dec2bcd(44);	// minutes
    189e:	8c e2       	ldi	r24, 0x2C	; 44
    18a0:	0e 94 e1 0b 	call	0x17c2	; 0x17c2 <dec2bcd>
    18a4:	89 83       	std	Y+1, r24	; 0x01
			buffer[SS] = dec2bcd(00);	// seconds
    18a6:	80 e0       	ldi	r24, 0x00	; 0
    18a8:	0e 94 e1 0b 	call	0x17c2	; 0x17c2 <dec2bcd>
    18ac:	88 83       	st	Y, r24
			buffer[DAY] = dec2bcd(1);	// day of the week (1-7)
    18ae:	81 e0       	ldi	r24, 0x01	; 1
    18b0:	0e 94 e1 0b 	call	0x17c2	; 0x17c2 <dec2bcd>
    18b4:	8b 83       	std	Y+3, r24	; 0x03
			buffer[DD] = dec2bcd(19);	// day
    18b6:	83 e1       	ldi	r24, 0x13	; 19
    18b8:	0e 94 e1 0b 	call	0x17c2	; 0x17c2 <dec2bcd>
    18bc:	8c 83       	std	Y+4, r24	; 0x04
			buffer[MM] = dec2bcd(2);	// month
    18be:	82 e0       	ldi	r24, 0x02	; 2
    18c0:	0e 94 e1 0b 	call	0x17c2	; 0x17c2 <dec2bcd>
    18c4:	8d 83       	std	Y+5, r24	; 0x05
			buffer[YY] = dec2bcd(24);	// year
    18c6:	88 e1       	ldi	r24, 0x18	; 24
    18c8:	0e 94 e1 0b 	call	0x17c2	; 0x17c2 <dec2bcd>
    18cc:	8e 83       	std	Y+6, r24	; 0x06
	
			TWI_write_buf(DS1337_ADDR, 0x00, 7, buffer); // writing data to RAM of RTC chip (7 bytes from buffer 
    18ce:	9e 01       	movw	r18, r28
    18d0:	47 e0       	ldi	r20, 0x07	; 7
    18d2:	60 e0       	ldi	r22, 0x00	; 0
    18d4:	80 ed       	ldi	r24, 0xD0	; 208
    18d6:	0e 94 61 05 	call	0xac2	; 0xac2 <TWI_write_buf>
/*--------------------------------------------------------------MAIN LOOP---------------------------------------------------------------*/
	while(1) 
		{
			
			/*^^^^^^^^^^^^^^^^FUNCTIONALITY OF BUTTONS^^^^^^^^^^^^^^^^*/
			SuperDebounce(&key1, &PINA, KEY1, 2, 15, key1_press, key1_repeat );	//function assigned for KEY1 - OLED display ON / OFF
    18da:	0f 2e       	mov	r0, r31
    18dc:	f6 ed       	ldi	r31, 0xD6	; 214
    18de:	cf 2e       	mov	r12, r31
    18e0:	f6 e0       	ldi	r31, 0x06	; 6
    18e2:	df 2e       	mov	r13, r31
    18e4:	f0 2d       	mov	r31, r0
    18e6:	0f 2e       	mov	r0, r31
    18e8:	fe ec       	ldi	r31, 0xCE	; 206
    18ea:	ef 2e       	mov	r14, r31
    18ec:	f6 e0       	ldi	r31, 0x06	; 6
    18ee:	ff 2e       	mov	r15, r31
    18f0:	f0 2d       	mov	r31, r0
    18f2:	0f e0       	ldi	r16, 0x0F	; 15
    18f4:	10 e0       	ldi	r17, 0x00	; 0
    18f6:	22 e0       	ldi	r18, 0x02	; 2
    18f8:	30 e0       	ldi	r19, 0x00	; 0
    18fa:	40 e1       	ldi	r20, 0x10	; 16
    18fc:	69 e3       	ldi	r22, 0x39	; 57
    18fe:	70 e0       	ldi	r23, 0x00	; 0
    1900:	81 ec       	ldi	r24, 0xC1	; 193
    1902:	97 e0       	ldi	r25, 0x07	; 7
    1904:	0e 94 57 07 	call	0xeae	; 0xeae <SuperDebounce>
			SuperDebounce(&key2, &PINA, KEY2, 2, 15, key2_press, key2_repeat );	//function assigned for KEY2 - LED display ON / OFF
    1908:	0f 2e       	mov	r0, r31
    190a:	f6 e9       	ldi	r31, 0x96	; 150
    190c:	cf 2e       	mov	r12, r31
    190e:	f6 e0       	ldi	r31, 0x06	; 6
    1910:	df 2e       	mov	r13, r31
    1912:	f0 2d       	mov	r31, r0
    1914:	0f 2e       	mov	r0, r31
    1916:	fe e8       	ldi	r31, 0x8E	; 142
    1918:	ef 2e       	mov	r14, r31
    191a:	f6 e0       	ldi	r31, 0x06	; 6
    191c:	ff 2e       	mov	r15, r31
    191e:	f0 2d       	mov	r31, r0
    1920:	22 e0       	ldi	r18, 0x02	; 2
    1922:	30 e0       	ldi	r19, 0x00	; 0
    1924:	40 e2       	ldi	r20, 0x20	; 32
    1926:	69 e3       	ldi	r22, 0x39	; 57
    1928:	70 e0       	ldi	r23, 0x00	; 0
    192a:	83 ed       	ldi	r24, 0xD3	; 211
    192c:	97 e0       	ldi	r25, 0x07	; 7
    192e:	0e 94 57 07 	call	0xeae	; 0xeae <SuperDebounce>
 			SuperDebounce(&key3, &PINA, KEY3, 2, 15, key3_press, key3_repeat );	//function assigned for KEY3 - LED blinks / doesn't blink
    1932:	0f 2e       	mov	r0, r31
    1934:	f5 ea       	ldi	r31, 0xA5	; 165
    1936:	cf 2e       	mov	r12, r31
    1938:	f6 e0       	ldi	r31, 0x06	; 6
    193a:	df 2e       	mov	r13, r31
    193c:	f0 2d       	mov	r31, r0
    193e:	0f 2e       	mov	r0, r31
    1940:	fd e9       	ldi	r31, 0x9D	; 157
    1942:	ef 2e       	mov	r14, r31
    1944:	f6 e0       	ldi	r31, 0x06	; 6
    1946:	ff 2e       	mov	r15, r31
    1948:	f0 2d       	mov	r31, r0
    194a:	22 e0       	ldi	r18, 0x02	; 2
    194c:	30 e0       	ldi	r19, 0x00	; 0
    194e:	40 e4       	ldi	r20, 0x40	; 64
    1950:	69 e3       	ldi	r22, 0x39	; 57
    1952:	70 e0       	ldi	r23, 0x00	; 0
    1954:	8e ec       	ldi	r24, 0xCE	; 206
    1956:	97 e0       	ldi	r25, 0x07	; 7
    1958:	0e 94 57 07 	call	0xeae	; 0xeae <SuperDebounce>
 			SuperDebounce(&key4, &PINA, KEY4, 2, 15, key4_press, key4_repeat );	//function assigned for KEY4 - DATA send / DATA don't send
    195c:	0f 2e       	mov	r0, r31
    195e:	ff eb       	ldi	r31, 0xBF	; 191
    1960:	cf 2e       	mov	r12, r31
    1962:	f6 e0       	ldi	r31, 0x06	; 6
    1964:	df 2e       	mov	r13, r31
    1966:	f0 2d       	mov	r31, r0
    1968:	0f 2e       	mov	r0, r31
    196a:	ff ea       	ldi	r31, 0xAF	; 175
    196c:	ef 2e       	mov	r14, r31
    196e:	f6 e0       	ldi	r31, 0x06	; 6
    1970:	ff 2e       	mov	r15, r31
    1972:	f0 2d       	mov	r31, r0
    1974:	22 e0       	ldi	r18, 0x02	; 2
    1976:	30 e0       	ldi	r19, 0x00	; 0
    1978:	40 e8       	ldi	r20, 0x80	; 128
    197a:	69 e3       	ldi	r22, 0x39	; 57
    197c:	70 e0       	ldi	r23, 0x00	; 0
    197e:	88 eb       	ldi	r24, 0xB8	; 184
    1980:	97 e0       	ldi	r25, 0x07	; 7
    1982:	0e 94 57 07 	call	0xeae	; 0xeae <SuperDebounce>
 			SuperDebounce(&key5, &PINC, KEY5, 2, 15, key5_press, key5_repeat );	//function assigned for KEY5 - OLED, LED display, LED blinks, DATA send / DATA don't send
    1986:	0f 2e       	mov	r0, r31
    1988:	f5 ef       	ldi	r31, 0xF5	; 245
    198a:	cf 2e       	mov	r12, r31
    198c:	f6 e0       	ldi	r31, 0x06	; 6
    198e:	df 2e       	mov	r13, r31
    1990:	f0 2d       	mov	r31, r0
    1992:	0f 2e       	mov	r0, r31
    1994:	fe ed       	ldi	r31, 0xDE	; 222
    1996:	ef 2e       	mov	r14, r31
    1998:	f6 e0       	ldi	r31, 0x06	; 6
    199a:	ff 2e       	mov	r15, r31
    199c:	f0 2d       	mov	r31, r0
    199e:	22 e0       	ldi	r18, 0x02	; 2
    19a0:	30 e0       	ldi	r19, 0x00	; 0
    19a2:	40 e8       	ldi	r20, 0x80	; 128
    19a4:	63 e3       	ldi	r22, 0x33	; 51
    19a6:	70 e0       	ldi	r23, 0x00	; 0
    19a8:	8c eb       	ldi	r24, 0xBC	; 188
    19aa:	97 e0       	ldi	r25, 0x07	; 7
    19ac:	0e 94 57 07 	call	0xeae	; 0xeae <SuperDebounce>



			/*^^^^^^^^^^^^^^^^FUNCTIONALITY OF UART^^^^^^^^^^^^^^^^*/
			uart_control();	// receiving data from UART and device control
    19b0:	0e 94 9b 08 	call	0x1136	; 0x1136 <uart_control>
		
		
		
			/**^^^^^^^^^^^^^^^^INFRARED RECEIVER EVENT^^^^^^^^^^^^^^^^*/
			ir_control();	// receiving data from RC5 and device control
    19b4:	0e 94 ad 09 	call	0x135a	; 0x135a <ir_control>



			/*^^^^^^^^^^^^^^^^FUNCTIONALITY OF SOFTWARE TIMER2^^^^^^^^^^^^^^^^*/
			if(!Timer2)		// task assigned for software Timer2
    19b8:	80 91 5c 03 	lds	r24, 0x035C	; 0x80035c <Timer2>
    19bc:	90 91 5d 03 	lds	r25, 0x035D	; 0x80035d <Timer2+0x1>
    19c0:	89 2b       	or	r24, r25
    19c2:	71 f4       	brne	.+28     	; 0x19e0 <main+0x1e2>
				{
					Timer2=25;
    19c4:	89 e1       	ldi	r24, 0x19	; 25
    19c6:	90 e0       	ldi	r25, 0x00	; 0
    19c8:	90 93 5d 03 	sts	0x035D, r25	; 0x80035d <Timer2+0x1>
    19cc:	80 93 5c 03 	sts	0x035C, r24	; 0x80035c <Timer2>
					if(led_blink) LED1_TOG;
    19d0:	80 91 63 03 	lds	r24, 0x0363	; 0x800363 <led_blink>
    19d4:	88 23       	and	r24, r24
    19d6:	21 f0       	breq	.+8      	; 0x19e0 <main+0x1e2>
    19d8:	95 b3       	in	r25, 0x15	; 21
    19da:	80 e4       	ldi	r24, 0x40	; 64
    19dc:	89 27       	eor	r24, r25
    19de:	85 bb       	out	0x15, r24	; 21
				}


			
			/*----------------------RTC SYSTEM EVENT----------------------*/
			if (int0_flag) 
    19e0:	80 91 60 00 	lds	r24, 0x0060	; 0x800060 <__DATA_REGION_ORIGIN__>
    19e4:	88 23       	and	r24, r24
    19e6:	09 f4       	brne	.+2      	; 0x19ea <main+0x1ec>
    19e8:	78 cf       	rjmp	.-272    	; 0x18da <main+0xdc>
				{
					
					/*^^^^^^^^^^^^^^^^READ AND SET TIME, DATA FOR RTC CHIP^^^^^^^^^^^^^^^^*/
					TWI_read_buf( DS1337_ADDR, 0x00, 7, buffer);	// reading data from RAM of RTC chip 
    19ea:	23 ec       	ldi	r18, 0xC3	; 195
    19ec:	37 e0       	ldi	r19, 0x07	; 7
    19ee:	47 e0       	ldi	r20, 0x07	; 7
    19f0:	60 e0       	ldi	r22, 0x00	; 0
    19f2:	80 ed       	ldi	r24, 0xD0	; 208
    19f4:	0e 94 8b 05 	call	0xb16	; 0xb16 <TWI_read_buf>
					hh = bcd2dec( buffer[HH] );						//(7 bytes from RAM from address 0x00 to buffer)
    19f8:	c3 ec       	ldi	r28, 0xC3	; 195
    19fa:	d7 e0       	ldi	r29, 0x07	; 7
    19fc:	1a 81       	ldd	r17, Y+2	; 0x02
    19fe:	81 2f       	mov	r24, r17
    1a00:	0e 94 f4 0b 	call	0x17e8	; 0x17e8 <bcd2dec>
    1a04:	80 93 d2 07 	sts	0x07D2, r24	; 0x8007d2 <hh>
					min = bcd2dec( buffer[MIN] );
    1a08:	f9 80       	ldd	r15, Y+1	; 0x01
    1a0a:	8f 2d       	mov	r24, r15
    1a0c:	0e 94 f4 0b 	call	0x17e8	; 0x17e8 <bcd2dec>
    1a10:	80 93 cd 07 	sts	0x07CD, r24	; 0x8007cd <min>
					ss = bcd2dec( buffer[SS] );
    1a14:	88 81       	ld	r24, Y
    1a16:	0e 94 f4 0b 	call	0x17e8	; 0x17e8 <bcd2dec>
    1a1a:	08 2f       	mov	r16, r24
    1a1c:	80 93 bd 07 	sts	0x07BD, r24	; 0x8007bd <ss>
					day = bcd2dec( buffer[DAY] );
    1a20:	8b 81       	ldd	r24, Y+3	; 0x03
    1a22:	0e 94 f4 0b 	call	0x17e8	; 0x17e8 <bcd2dec>
    1a26:	80 93 d1 07 	sts	0x07D1, r24	; 0x8007d1 <day>
					dd = bcd2dec( buffer[DD] );
    1a2a:	8c 81       	ldd	r24, Y+4	; 0x04
    1a2c:	0e 94 f4 0b 	call	0x17e8	; 0x17e8 <bcd2dec>
    1a30:	80 93 c2 07 	sts	0x07C2, r24	; 0x8007c2 <dd>
					mm = bcd2dec( buffer[MM] );
    1a34:	8d 81       	ldd	r24, Y+5	; 0x05
    1a36:	0e 94 f4 0b 	call	0x17e8	; 0x17e8 <bcd2dec>
    1a3a:	80 93 b7 07 	sts	0x07B7, r24	; 0x8007b7 <mm>
					yy = bcd2dec( buffer[YY] );
    1a3e:	8e 81       	ldd	r24, Y+6	; 0x06
    1a40:	0e 94 f4 0b 	call	0x17e8	; 0x17e8 <bcd2dec>
    1a44:	80 93 cf 07 	sts	0x07CF, r24	; 0x8007cf <yy>
			
			
			
					/*^^^^^^^^^^^^^^^^FUNCTIONALITY OF CLOCK ON LED DISPLAY^^^^^^^^^^^^^^^^*/
					if (led_display == 1) // show a clock on LED display
    1a48:	80 91 62 00 	lds	r24, 0x0062	; 0x800062 <led_display>
    1a4c:	81 30       	cpi	r24, 0x01	; 1
    1a4e:	29 f5       	brne	.+74     	; 0x1a9a <main+0x29c>
					{
						if  (ss %2 != 0)	// if seconds %2 != 0, seconds on LED display are off
    1a50:	80 2f       	mov	r24, r16
    1a52:	81 70       	andi	r24, 0x01	; 1
    1a54:	00 ff       	sbrs	r16, 0
    1a56:	0e c0       	rjmp	.+28     	; 0x1a74 <main+0x276>
							{
								cy1 = buffer[HH]>>4;	// displaying a time on OLED display (only hours)
    1a58:	81 2f       	mov	r24, r17
    1a5a:	82 95       	swap	r24
    1a5c:	8f 70       	andi	r24, 0x0F	; 15
    1a5e:	80 93 ae 07 	sts	0x07AE, r24	; 0x8007ae <cy1>
								cy2 = buffer[HH]&0x0f;
    1a62:	1f 70       	andi	r17, 0x0F	; 15
    1a64:	10 93 af 07 	sts	0x07AF, r17	; 0x8007af <cy2>
								cy3=cy4=10;		// display nothing
    1a68:	8a e0       	ldi	r24, 0x0A	; 10
    1a6a:	80 93 ad 07 	sts	0x07AD, r24	; 0x8007ad <cy4>
    1a6e:	80 93 b0 07 	sts	0x07B0, r24	; 0x8007b0 <cy3>
    1a72:	13 c0       	rjmp	.+38     	; 0x1a9a <main+0x29c>
							}
									
						else if  (ss %2 == 0) // if seconds %2 == 0, seconds on LED display are on
    1a74:	81 11       	cpse	r24, r1
    1a76:	11 c0       	rjmp	.+34     	; 0x1a9a <main+0x29c>
							{
								cy1 = buffer[HH]>>4;	// displaying a time on OLED display (hours and minutes)
    1a78:	81 2f       	mov	r24, r17
    1a7a:	82 95       	swap	r24
    1a7c:	8f 70       	andi	r24, 0x0F	; 15
    1a7e:	80 93 ae 07 	sts	0x07AE, r24	; 0x8007ae <cy1>
								cy2 = buffer[HH]&0x0f;
    1a82:	1f 70       	andi	r17, 0x0F	; 15
    1a84:	10 93 af 07 	sts	0x07AF, r17	; 0x8007af <cy2>
								cy3 = buffer[MIN]>>4;
    1a88:	8f 2d       	mov	r24, r15
    1a8a:	82 95       	swap	r24
    1a8c:	8f 70       	andi	r24, 0x0F	; 15
    1a8e:	80 93 b0 07 	sts	0x07B0, r24	; 0x8007b0 <cy3>
								cy4 = buffer[MIN]&0x0f;
    1a92:	8f 2d       	mov	r24, r15
    1a94:	8f 70       	andi	r24, 0x0F	; 15
    1a96:	80 93 ad 07 	sts	0x07AD, r24	; 0x8007ad <cy4>
							}
					}

					if (led_display == 0)	// doesn't show a clock on LED display
    1a9a:	80 91 62 00 	lds	r24, 0x0062	; 0x800062 <led_display>
    1a9e:	81 11       	cpse	r24, r1
    1aa0:	09 c0       	rjmp	.+18     	; 0x1ab4 <main+0x2b6>
						{
							cy1=cy2=cy3=cy4=10;		// display nothing	
    1aa2:	8a e0       	ldi	r24, 0x0A	; 10
    1aa4:	80 93 ad 07 	sts	0x07AD, r24	; 0x8007ad <cy4>
    1aa8:	80 93 b0 07 	sts	0x07B0, r24	; 0x8007b0 <cy3>
    1aac:	80 93 af 07 	sts	0x07AF, r24	; 0x8007af <cy2>
    1ab0:	80 93 ae 07 	sts	0x07AE, r24	; 0x8007ae <cy1>
						}
				
				
					
					/*^^^^^^^^^^^^^^^^FUNCTIONALITY OF OLED DISPLAY - TIME^^^^^^^^^^^^^^^^*/
					lcd_gotoxy(0,0);	// displaying a time on OLED display
    1ab4:	60 e0       	ldi	r22, 0x00	; 0
    1ab6:	80 e0       	ldi	r24, 0x00	; 0
    1ab8:	0e 94 55 17 	call	0x2eaa	; 0x2eaa <lcd_gotoxy>
					lcd_puts_p(PSTR("Time: "));
    1abc:	81 e2       	ldi	r24, 0x21	; 33
    1abe:	92 e0       	ldi	r25, 0x02	; 2
    1ac0:	0e 94 68 19 	call	0x32d0	; 0x32d0 <lcd_puts_p>
					if( hh < 10 ) lcd_puts_p(PSTR("0"));
    1ac4:	80 91 d2 07 	lds	r24, 0x07D2	; 0x8007d2 <hh>
    1ac8:	8a 30       	cpi	r24, 0x0A	; 10
    1aca:	20 f4       	brcc	.+8      	; 0x1ad4 <main+0x2d6>
    1acc:	8f e1       	ldi	r24, 0x1F	; 31
    1ace:	92 e0       	ldi	r25, 0x02	; 2
    1ad0:	0e 94 68 19 	call	0x32d0	; 0x32d0 <lcd_puts_p>
					oled_int(hh);
    1ad4:	80 91 d2 07 	lds	r24, 0x07D2	; 0x8007d2 <hh>
    1ad8:	90 e0       	ldi	r25, 0x00	; 0
    1ada:	0e 94 77 19 	call	0x32ee	; 0x32ee <oled_int>
					lcd_puts_p(PSTR(":"));
    1ade:	8d e1       	ldi	r24, 0x1D	; 29
    1ae0:	92 e0       	ldi	r25, 0x02	; 2
    1ae2:	0e 94 68 19 	call	0x32d0	; 0x32d0 <lcd_puts_p>
					if( min < 10 ) lcd_puts_p(PSTR("0"));
    1ae6:	80 91 cd 07 	lds	r24, 0x07CD	; 0x8007cd <min>
    1aea:	8a 30       	cpi	r24, 0x0A	; 10
    1aec:	20 f4       	brcc	.+8      	; 0x1af6 <main+0x2f8>
    1aee:	8b e1       	ldi	r24, 0x1B	; 27
    1af0:	92 e0       	ldi	r25, 0x02	; 2
    1af2:	0e 94 68 19 	call	0x32d0	; 0x32d0 <lcd_puts_p>
					oled_int(min);
    1af6:	80 91 cd 07 	lds	r24, 0x07CD	; 0x8007cd <min>
    1afa:	90 e0       	ldi	r25, 0x00	; 0
    1afc:	0e 94 77 19 	call	0x32ee	; 0x32ee <oled_int>
					lcd_puts_p(PSTR(":"));
    1b00:	89 e1       	ldi	r24, 0x19	; 25
    1b02:	92 e0       	ldi	r25, 0x02	; 2
    1b04:	0e 94 68 19 	call	0x32d0	; 0x32d0 <lcd_puts_p>
					if( ss < 10 ) lcd_puts_p(PSTR("0"));
    1b08:	80 91 bd 07 	lds	r24, 0x07BD	; 0x8007bd <ss>
    1b0c:	8a 30       	cpi	r24, 0x0A	; 10
    1b0e:	20 f4       	brcc	.+8      	; 0x1b18 <main+0x31a>
    1b10:	87 e1       	ldi	r24, 0x17	; 23
    1b12:	92 e0       	ldi	r25, 0x02	; 2
    1b14:	0e 94 68 19 	call	0x32d0	; 0x32d0 <lcd_puts_p>
					oled_int(ss);
    1b18:	80 91 bd 07 	lds	r24, 0x07BD	; 0x8007bd <ss>
    1b1c:	90 e0       	ldi	r25, 0x00	; 0
    1b1e:	0e 94 77 19 	call	0x32ee	; 0x32ee <oled_int>
					
					
					
					/*^^^^^^^^^^^^^^^^FUNCTIONALITY OF OLED DISPLAY - DATE^^^^^^^^^^^^^^^^*/	
					lcd_gotoxy(0,1);	// displaying a date on OLED display
    1b22:	61 e0       	ldi	r22, 0x01	; 1
    1b24:	80 e0       	ldi	r24, 0x00	; 0
    1b26:	0e 94 55 17 	call	0x2eaa	; 0x2eaa <lcd_gotoxy>
					lcd_puts_p(PSTR("Date: "));
    1b2a:	80 e1       	ldi	r24, 0x10	; 16
    1b2c:	92 e0       	ldi	r25, 0x02	; 2
    1b2e:	0e 94 68 19 	call	0x32d0	; 0x32d0 <lcd_puts_p>
					oled_day_of_the_week(day);
    1b32:	80 91 d1 07 	lds	r24, 0x07D1	; 0x8007d1 <day>
    1b36:	0e 94 41 08 	call	0x1082	; 0x1082 <oled_day_of_the_week>
					lcd_puts_p(PSTR("/"));
    1b3a:	8e e0       	ldi	r24, 0x0E	; 14
    1b3c:	92 e0       	ldi	r25, 0x02	; 2
    1b3e:	0e 94 68 19 	call	0x32d0	; 0x32d0 <lcd_puts_p>
					oled_int(dd);
    1b42:	80 91 c2 07 	lds	r24, 0x07C2	; 0x8007c2 <dd>
    1b46:	90 e0       	ldi	r25, 0x00	; 0
    1b48:	0e 94 77 19 	call	0x32ee	; 0x32ee <oled_int>
					lcd_puts_p(PSTR("/"));
    1b4c:	8c e0       	ldi	r24, 0x0C	; 12
    1b4e:	92 e0       	ldi	r25, 0x02	; 2
    1b50:	0e 94 68 19 	call	0x32d0	; 0x32d0 <lcd_puts_p>
					oled_int(mm);
    1b54:	80 91 b7 07 	lds	r24, 0x07B7	; 0x8007b7 <mm>
    1b58:	90 e0       	ldi	r25, 0x00	; 0
    1b5a:	0e 94 77 19 	call	0x32ee	; 0x32ee <oled_int>
					lcd_puts_p(PSTR("/"));
    1b5e:	8a e0       	ldi	r24, 0x0A	; 10
    1b60:	92 e0       	ldi	r25, 0x02	; 2
    1b62:	0e 94 68 19 	call	0x32d0	; 0x32d0 <lcd_puts_p>
					if (yy != 0) lcd_puts_p(PSTR("20"));
    1b66:	80 91 cf 07 	lds	r24, 0x07CF	; 0x8007cf <yy>
    1b6a:	88 23       	and	r24, r24
    1b6c:	21 f0       	breq	.+8      	; 0x1b76 <main+0x378>
    1b6e:	87 e0       	ldi	r24, 0x07	; 7
    1b70:	92 e0       	ldi	r25, 0x02	; 2
    1b72:	0e 94 68 19 	call	0x32d0	; 0x32d0 <lcd_puts_p>
					oled_int(yy);
    1b76:	80 91 cf 07 	lds	r24, 0x07CF	; 0x8007cf <yy>
    1b7a:	90 e0       	ldi	r25, 0x00	; 0
    1b7c:	0e 94 77 19 	call	0x32ee	; 0x32ee <oled_int>
					if(dd < 10 || mm < 10) lcd_puts_p(PSTR("  "));
    1b80:	80 91 c2 07 	lds	r24, 0x07C2	; 0x8007c2 <dd>
    1b84:	8a 30       	cpi	r24, 0x0A	; 10
    1b86:	20 f0       	brcs	.+8      	; 0x1b90 <main+0x392>
    1b88:	80 91 b7 07 	lds	r24, 0x07B7	; 0x8007b7 <mm>
    1b8c:	8a 30       	cpi	r24, 0x0A	; 10
    1b8e:	20 f4       	brcc	.+8      	; 0x1b98 <main+0x39a>
    1b90:	84 e0       	ldi	r24, 0x04	; 4
    1b92:	92 e0       	ldi	r25, 0x02	; 2
    1b94:	0e 94 68 19 	call	0x32d0	; 0x32d0 <lcd_puts_p>
		

					/*^^^^^^^^^^^^^^^^FUNCTIONALITY OF DS18B20 SENSOR^^^^^^^^^^^^^^^^*/
					
					// read the temperature from the sensor every second, if detected. Display the temperature when the sensor is detected
					if( DS18X20_OK == DS18X20_read_meas(gSensorIDs[0], &subzero, &cel, &cel_fract_bits) ) oled_display_temp_DS18B20(2);
    1b98:	2a ec       	ldi	r18, 0xCA	; 202
    1b9a:	37 e0       	ldi	r19, 0x07	; 7
    1b9c:	40 ed       	ldi	r20, 0xD0	; 208
    1b9e:	57 e0       	ldi	r21, 0x07	; 7
    1ba0:	6c ec       	ldi	r22, 0xCC	; 204
    1ba2:	77 e0       	ldi	r23, 0x07	; 7
    1ba4:	8d e8       	ldi	r24, 0x8D	; 141
    1ba6:	97 e0       	ldi	r25, 0x07	; 7
    1ba8:	0e 94 98 03 	call	0x730	; 0x730 <DS18X20_read_meas>
    1bac:	81 11       	cpse	r24, r1
    1bae:	03 c0       	rjmp	.+6      	; 0x1bb6 <main+0x3b8>
    1bb0:	82 e0       	ldi	r24, 0x02	; 2
    1bb2:	0e 94 e5 07 	call	0xfca	; 0xfca <oled_display_temp_DS18B20>
							
					DS18X20_start_meas( DS18X20_POWER_EXTERN, NULL ); // start measuring of temperature for DS18B20
    1bb6:	60 e0       	ldi	r22, 0x00	; 0
    1bb8:	70 e0       	ldi	r23, 0x00	; 0
    1bba:	81 e0       	ldi	r24, 0x01	; 1
    1bbc:	0e 94 77 03 	call	0x6ee	; 0x6ee <DS18X20_start_meas>
									
			
			
					/*^^^^^^^^^^^^^^^^FUNCTIONALITY OF BME280 SENSOR^^^^^^^^^^^^^^^^*/
					lcd_gotoxy(0,3);	// display data from BME280 sensor
    1bc0:	63 e0       	ldi	r22, 0x03	; 3
    1bc2:	80 e0       	ldi	r24, 0x00	; 0
    1bc4:	0e 94 55 17 	call	0x2eaa	; 0x2eaa <lcd_gotoxy>
					lcd_puts_p(PSTR("----BME280 sensor----"));						
    1bc8:	8e ee       	ldi	r24, 0xEE	; 238
    1bca:	91 e0       	ldi	r25, 0x01	; 1
    1bcc:	0e 94 68 19 	call	0x32d0	; 0x32d0 <lcd_puts_p>
						
						
					
					/*^^^^^^^^^^^^^^^^DISPLAY TEMPERATURE FROM BME280 SENSOR^^^^^^^^^^^^^^^^*/
					if( 0 == mkp_read_temp(st_bme280, &t_int, &t_fract) )	// Reading and displaying a temperature in °C 
    1bd0:	4e eb       	ldi	r20, 0xBE	; 190
    1bd2:	57 e0       	ldi	r21, 0x07	; 7
    1bd4:	6b eb       	ldi	r22, 0xBB	; 187
    1bd6:	77 e0       	ldi	r23, 0x07	; 7
    1bd8:	84 e0       	ldi	r24, 0x04	; 4
    1bda:	0e 94 7a 16 	call	0x2cf4	; 0x2cf4 <mkp_read_temp>
    1bde:	81 11       	cpse	r24, r1
    1be0:	6f c0       	rjmp	.+222    	; 0x1cc0 <main+0x4c2>
						{													// (-40°C to 85°C) from BME280 sensor on OLED display
										
							if( t_int == 0 && t_fract < 0 )
    1be2:	80 91 bb 07 	lds	r24, 0x07BB	; 0x8007bb <t_int>
    1be6:	81 11       	cpse	r24, r1
    1be8:	12 c0       	rjmp	.+36     	; 0x1c0e <main+0x410>
    1bea:	90 91 be 07 	lds	r25, 0x07BE	; 0x8007be <t_fract>
    1bee:	99 23       	and	r25, r25
    1bf0:	74 f4       	brge	.+28     	; 0x1c0e <main+0x410>
								{
									t_fract = -t_fract;
    1bf2:	91 95       	neg	r25
    1bf4:	90 93 be 07 	sts	0x07BE, r25	; 0x8007be <t_fract>
									lcd_gotoxy(0,4);
    1bf8:	64 e0       	ldi	r22, 0x04	; 4
    1bfa:	0e 94 55 17 	call	0x2eaa	; 0x2eaa <lcd_gotoxy>
									lcd_puts_p(PSTR("Temperature:  -"));
    1bfe:	8e ed       	ldi	r24, 0xDE	; 222
    1c00:	91 e0       	ldi	r25, 0x01	; 1
    1c02:	0e 94 68 19 	call	0x32d0	; 0x32d0 <lcd_puts_p>
									t_fract_flag = 1;
    1c06:	81 e0       	ldi	r24, 0x01	; 1
    1c08:	80 93 55 03 	sts	0x0355, r24	; 0x800355 <t_fract_flag>
    1c0c:	1c c0       	rjmp	.+56     	; 0x1c46 <main+0x448>
								}
							else if( t_int < 0 && t_fract < 0 )
    1c0e:	88 23       	and	r24, r24
    1c10:	84 f4       	brge	.+32     	; 0x1c32 <main+0x434>
    1c12:	80 91 be 07 	lds	r24, 0x07BE	; 0x8007be <t_fract>
    1c16:	88 23       	and	r24, r24
    1c18:	64 f4       	brge	.+24     	; 0x1c32 <main+0x434>
								{
							 		t_fract = -t_fract;
    1c1a:	81 95       	neg	r24
    1c1c:	80 93 be 07 	sts	0x07BE, r24	; 0x8007be <t_fract>
									lcd_gotoxy(0,4);
    1c20:	64 e0       	ldi	r22, 0x04	; 4
    1c22:	80 e0       	ldi	r24, 0x00	; 0
    1c24:	0e 94 55 17 	call	0x2eaa	; 0x2eaa <lcd_gotoxy>
									lcd_puts_p(PSTR("Temperature:  "));
    1c28:	8f ec       	ldi	r24, 0xCF	; 207
    1c2a:	91 e0       	ldi	r25, 0x01	; 1
    1c2c:	0e 94 68 19 	call	0x32d0	; 0x32d0 <lcd_puts_p>
    1c30:	0a c0       	rjmp	.+20     	; 0x1c46 <main+0x448>
								}
							else
							{
								lcd_gotoxy(0,4);
    1c32:	64 e0       	ldi	r22, 0x04	; 4
    1c34:	80 e0       	ldi	r24, 0x00	; 0
    1c36:	0e 94 55 17 	call	0x2eaa	; 0x2eaa <lcd_gotoxy>
								lcd_puts_p(PSTR("Temperature:    "));
    1c3a:	8e eb       	ldi	r24, 0xBE	; 190
    1c3c:	91 e0       	ldi	r25, 0x01	; 1
    1c3e:	0e 94 68 19 	call	0x32d0	; 0x32d0 <lcd_puts_p>
								t_fract_flag = 0;
    1c42:	10 92 55 03 	sts	0x0355, r1	; 0x800355 <t_fract_flag>
							}
	
							
							if (t_int <= -10 ) lcd_gotoxy(13,4);
    1c46:	80 91 bb 07 	lds	r24, 0x07BB	; 0x8007bb <t_int>
    1c4a:	87 3f       	cpi	r24, 0xF7	; 247
    1c4c:	2c f4       	brge	.+10     	; 0x1c58 <main+0x45a>
    1c4e:	64 e0       	ldi	r22, 0x04	; 4
    1c50:	8d e0       	ldi	r24, 0x0D	; 13
    1c52:	0e 94 55 17 	call	0x2eaa	; 0x2eaa <lcd_gotoxy>
    1c56:	16 c0       	rjmp	.+44     	; 0x1c84 <main+0x486>
							else if (t_int > -10 && t_int < 0) lcd_gotoxy(14,4);
    1c58:	99 e0       	ldi	r25, 0x09	; 9
    1c5a:	98 0f       	add	r25, r24
    1c5c:	99 30       	cpi	r25, 0x09	; 9
    1c5e:	28 f4       	brcc	.+10     	; 0x1c6a <main+0x46c>
    1c60:	64 e0       	ldi	r22, 0x04	; 4
    1c62:	8e e0       	ldi	r24, 0x0E	; 14
    1c64:	0e 94 55 17 	call	0x2eaa	; 0x2eaa <lcd_gotoxy>
    1c68:	0d c0       	rjmp	.+26     	; 0x1c84 <main+0x486>
							else if (t_int >= 0 && t_int < 10) lcd_gotoxy(15,4);
    1c6a:	8a 30       	cpi	r24, 0x0A	; 10
    1c6c:	28 f4       	brcc	.+10     	; 0x1c78 <main+0x47a>
    1c6e:	64 e0       	ldi	r22, 0x04	; 4
    1c70:	8f e0       	ldi	r24, 0x0F	; 15
    1c72:	0e 94 55 17 	call	0x2eaa	; 0x2eaa <lcd_gotoxy>
    1c76:	06 c0       	rjmp	.+12     	; 0x1c84 <main+0x486>
							else if (t_int >= 10 ) lcd_gotoxy(14,4);
    1c78:	8a 30       	cpi	r24, 0x0A	; 10
    1c7a:	24 f0       	brlt	.+8      	; 0x1c84 <main+0x486>
    1c7c:	64 e0       	ldi	r22, 0x04	; 4
    1c7e:	8e e0       	ldi	r24, 0x0E	; 14
    1c80:	0e 94 55 17 	call	0x2eaa	; 0x2eaa <lcd_gotoxy>
							
							oled_int( t_int );
    1c84:	80 91 bb 07 	lds	r24, 0x07BB	; 0x8007bb <t_int>
    1c88:	08 2e       	mov	r0, r24
    1c8a:	00 0c       	add	r0, r0
    1c8c:	99 0b       	sbc	r25, r25
    1c8e:	0e 94 77 19 	call	0x32ee	; 0x32ee <oled_int>
							lcd_puts_p(PSTR("."));
    1c92:	8c eb       	ldi	r24, 0xBC	; 188
    1c94:	91 e0       	ldi	r25, 0x01	; 1
    1c96:	0e 94 68 19 	call	0x32d0	; 0x32d0 <lcd_puts_p>
							if( t_fract < 10 ) lcd_puts_p(PSTR("0"));
    1c9a:	80 91 be 07 	lds	r24, 0x07BE	; 0x8007be <t_fract>
    1c9e:	8a 30       	cpi	r24, 0x0A	; 10
    1ca0:	24 f4       	brge	.+8      	; 0x1caa <main+0x4ac>
    1ca2:	8a eb       	ldi	r24, 0xBA	; 186
    1ca4:	91 e0       	ldi	r25, 0x01	; 1
    1ca6:	0e 94 68 19 	call	0x32d0	; 0x32d0 <lcd_puts_p>
							oled_int( t_fract );
    1caa:	80 91 be 07 	lds	r24, 0x07BE	; 0x8007be <t_fract>
    1cae:	08 2e       	mov	r0, r24
    1cb0:	00 0c       	add	r0, r0
    1cb2:	99 0b       	sbc	r25, r25
    1cb4:	0e 94 77 19 	call	0x32ee	; 0x32ee <oled_int>
							lcd_puts_p(PSTR("°C"));
    1cb8:	87 eb       	ldi	r24, 0xB7	; 183
    1cba:	91 e0       	ldi	r25, 0x01	; 1
    1cbc:	0e 94 68 19 	call	0x32d0	; 0x32d0 <lcd_puts_p>
						}
						

						/*^^^^^^^^^^^^^^^^DISPLAY PRESSURE FROM BME280 SENSOR^^^^^^^^^^^^^^^^*/
						if( !mkp_read_pressure( st_bmp280, &hp_int, &hp_fract ) )	// Reading and displaying a pressure in hPa 
    1cc0:	46 eb       	ldi	r20, 0xB6	; 182
    1cc2:	57 e0       	ldi	r21, 0x07	; 7
    1cc4:	6f eb       	ldi	r22, 0xBF	; 191
    1cc6:	77 e0       	ldi	r23, 0x07	; 7
    1cc8:	82 e0       	ldi	r24, 0x02	; 2
    1cca:	0e 94 85 16 	call	0x2d0a	; 0x2d0a <mkp_read_pressure>
    1cce:	81 11       	cpse	r24, r1
    1cd0:	34 c0       	rjmp	.+104    	; 0x1d3a <main+0x53c>
						{															// (300 hPa to 1100 hPa) from BME280 sensor on OLED display
							lcd_gotoxy(0,5);
    1cd2:	65 e0       	ldi	r22, 0x05	; 5
    1cd4:	0e 94 55 17 	call	0x2eaa	; 0x2eaa <lcd_gotoxy>
							lcd_puts_p(PSTR("Pressure:   "));
    1cd8:	8a ea       	ldi	r24, 0xAA	; 170
    1cda:	91 e0       	ldi	r25, 0x01	; 1
    1cdc:	0e 94 68 19 	call	0x32d0	; 0x32d0 <lcd_puts_p>
							
							if(hp_int < 1000) lcd_gotoxy(11,5);
    1ce0:	80 91 bf 07 	lds	r24, 0x07BF	; 0x8007bf <hp_int>
    1ce4:	90 91 c0 07 	lds	r25, 0x07C0	; 0x8007c0 <hp_int+0x1>
    1ce8:	88 3e       	cpi	r24, 0xE8	; 232
    1cea:	93 40       	sbci	r25, 0x03	; 3
    1cec:	28 f4       	brcc	.+10     	; 0x1cf8 <main+0x4fa>
    1cee:	65 e0       	ldi	r22, 0x05	; 5
    1cf0:	8b e0       	ldi	r24, 0x0B	; 11
    1cf2:	0e 94 55 17 	call	0x2eaa	; 0x2eaa <lcd_gotoxy>
    1cf6:	04 c0       	rjmp	.+8      	; 0x1d00 <main+0x502>
							else lcd_gotoxy(10,5);
    1cf8:	65 e0       	ldi	r22, 0x05	; 5
    1cfa:	8a e0       	ldi	r24, 0x0A	; 10
    1cfc:	0e 94 55 17 	call	0x2eaa	; 0x2eaa <lcd_gotoxy>
							
							oled_long_int(hp_int);
    1d00:	60 91 bf 07 	lds	r22, 0x07BF	; 0x8007bf <hp_int>
    1d04:	70 91 c0 07 	lds	r23, 0x07C0	; 0x8007c0 <hp_int+0x1>
    1d08:	80 e0       	ldi	r24, 0x00	; 0
    1d0a:	90 e0       	ldi	r25, 0x00	; 0
    1d0c:	0e 94 a1 19 	call	0x3342	; 0x3342 <oled_long_int>
							lcd_puts_p(PSTR("."));
    1d10:	88 ea       	ldi	r24, 0xA8	; 168
    1d12:	91 e0       	ldi	r25, 0x01	; 1
    1d14:	0e 94 68 19 	call	0x32d0	; 0x32d0 <lcd_puts_p>
							if( hp_fract < 10 ) lcd_puts_p(PSTR("0") );
    1d18:	80 91 b6 07 	lds	r24, 0x07B6	; 0x8007b6 <hp_fract>
    1d1c:	8a 30       	cpi	r24, 0x0A	; 10
    1d1e:	20 f4       	brcc	.+8      	; 0x1d28 <main+0x52a>
    1d20:	86 ea       	ldi	r24, 0xA6	; 166
    1d22:	91 e0       	ldi	r25, 0x01	; 1
    1d24:	0e 94 68 19 	call	0x32d0	; 0x32d0 <lcd_puts_p>
							oled_int( hp_fract );
    1d28:	80 91 b6 07 	lds	r24, 0x07B6	; 0x8007b6 <hp_fract>
    1d2c:	90 e0       	ldi	r25, 0x00	; 0
    1d2e:	0e 94 77 19 	call	0x32ee	; 0x32ee <oled_int>
							lcd_puts_p(PSTR(" hPa"));
    1d32:	81 ea       	ldi	r24, 0xA1	; 161
    1d34:	91 e0       	ldi	r25, 0x01	; 1
    1d36:	0e 94 68 19 	call	0x32d0	; 0x32d0 <lcd_puts_p>
						}


						/*^^^^^^^^^^^^^^^^DISPLAY HUMIDITY FROM BME280 SENSOR^^^^^^^^^^^^^^^^*/
						if( !mkp_read_humidity( st_bme280, &hm_int, &hm_fract ) )	// Reading and displaying a humidity in % 
    1d3a:	4a eb       	ldi	r20, 0xBA	; 186
    1d3c:	57 e0       	ldi	r21, 0x07	; 7
    1d3e:	69 eb       	ldi	r22, 0xB9	; 185
    1d40:	77 e0       	ldi	r23, 0x07	; 7
    1d42:	84 e0       	ldi	r24, 0x04	; 4
    1d44:	0e 94 91 16 	call	0x2d22	; 0x2d22 <mkp_read_humidity>
    1d48:	81 11       	cpse	r24, r1
    1d4a:	32 c0       	rjmp	.+100    	; 0x1db0 <main+0x5b2>
						{															// (10% to 100% RH) from BME280 sensor on OLED display
							lcd_gotoxy(0,6);
    1d4c:	66 e0       	ldi	r22, 0x06	; 6
    1d4e:	0e 94 55 17 	call	0x2eaa	; 0x2eaa <lcd_gotoxy>
							lcd_puts_p(PSTR("Humidity: "));
    1d52:	86 e9       	ldi	r24, 0x96	; 150
    1d54:	91 e0       	ldi	r25, 0x01	; 1
    1d56:	0e 94 68 19 	call	0x32d0	; 0x32d0 <lcd_puts_p>
							
							if(hm_int < 10) lcd_gotoxy(15,6);
    1d5a:	80 91 b9 07 	lds	r24, 0x07B9	; 0x8007b9 <hm_int>
    1d5e:	8a 30       	cpi	r24, 0x0A	; 10
    1d60:	28 f4       	brcc	.+10     	; 0x1d6c <main+0x56e>
    1d62:	66 e0       	ldi	r22, 0x06	; 6
    1d64:	8f e0       	ldi	r24, 0x0F	; 15
    1d66:	0e 94 55 17 	call	0x2eaa	; 0x2eaa <lcd_gotoxy>
    1d6a:	04 c0       	rjmp	.+8      	; 0x1d74 <main+0x576>
							else lcd_gotoxy(14,6);
    1d6c:	66 e0       	ldi	r22, 0x06	; 6
    1d6e:	8e e0       	ldi	r24, 0x0E	; 14
    1d70:	0e 94 55 17 	call	0x2eaa	; 0x2eaa <lcd_gotoxy>
							
							oled_int(hm_int);
    1d74:	80 91 b9 07 	lds	r24, 0x07B9	; 0x8007b9 <hm_int>
    1d78:	90 e0       	ldi	r25, 0x00	; 0
    1d7a:	0e 94 77 19 	call	0x32ee	; 0x32ee <oled_int>
							lcd_puts_p(PSTR("."));
    1d7e:	84 e9       	ldi	r24, 0x94	; 148
    1d80:	91 e0       	ldi	r25, 0x01	; 1
    1d82:	0e 94 68 19 	call	0x32d0	; 0x32d0 <lcd_puts_p>
							if( hm_int < 100 && hm_fract < 10) lcd_puts_p(PSTR("0") );
    1d86:	80 91 b9 07 	lds	r24, 0x07B9	; 0x8007b9 <hm_int>
    1d8a:	84 36       	cpi	r24, 0x64	; 100
    1d8c:	40 f4       	brcc	.+16     	; 0x1d9e <main+0x5a0>
    1d8e:	80 91 ba 07 	lds	r24, 0x07BA	; 0x8007ba <hm_fract>
    1d92:	8a 30       	cpi	r24, 0x0A	; 10
    1d94:	20 f4       	brcc	.+8      	; 0x1d9e <main+0x5a0>
    1d96:	82 e9       	ldi	r24, 0x92	; 146
    1d98:	91 e0       	ldi	r25, 0x01	; 1
    1d9a:	0e 94 68 19 	call	0x32d0	; 0x32d0 <lcd_puts_p>
							oled_int(hm_fract);
    1d9e:	80 91 ba 07 	lds	r24, 0x07BA	; 0x8007ba <hm_fract>
    1da2:	90 e0       	ldi	r25, 0x00	; 0
    1da4:	0e 94 77 19 	call	0x32ee	; 0x32ee <oled_int>
							lcd_puts_p(PSTR(" %") );
    1da8:	8f e8       	ldi	r24, 0x8F	; 143
    1daa:	91 e0       	ldi	r25, 0x01	; 1
    1dac:	0e 94 68 19 	call	0x32d0	; 0x32d0 <lcd_puts_p>
						}
						
					
					
					if (uart_logs_data == 0) lcd_gotoxy(0,7), lcd_puts_p(PSTR("DATA don't send"));	// information for user about logging data with measurements
    1db0:	80 91 60 03 	lds	r24, 0x0360	; 0x800360 <uart_logs_data>
    1db4:	81 11       	cpse	r24, r1
    1db6:	07 c0       	rjmp	.+14     	; 0x1dc6 <main+0x5c8>
    1db8:	67 e0       	ldi	r22, 0x07	; 7
    1dba:	0e 94 55 17 	call	0x2eaa	; 0x2eaa <lcd_gotoxy>
    1dbe:	8f e7       	ldi	r24, 0x7F	; 127
    1dc0:	91 e0       	ldi	r25, 0x01	; 1
    1dc2:	0e 94 68 19 	call	0x32d0	; 0x32d0 <lcd_puts_p>
										
					lcd_display();	// display data on OLED display
    1dc6:	0e 94 cf 19 	call	0x339e	; 0x339e <lcd_display>
				
						
						
					/*^^^^^^^^^^^^^^^^FUNCTIONALITY OF UART DATA LOGGING^^^^^^^^^^^^^^^^*/
					 if (ss_memory != ss && uart_logs_data == 1) uart_data_logging();	// send measurements from sensors via UART every second when logging has been activated								
    1dca:	90 91 56 03 	lds	r25, 0x0356	; 0x800356 <ss_memory>
    1dce:	80 91 bd 07 	lds	r24, 0x07BD	; 0x8007bd <ss>
    1dd2:	98 17       	cp	r25, r24
    1dd4:	31 f0       	breq	.+12     	; 0x1de2 <main+0x5e4>
    1dd6:	80 91 60 03 	lds	r24, 0x0360	; 0x800360 <uart_logs_data>
    1dda:	81 30       	cpi	r24, 0x01	; 1
    1ddc:	11 f4       	brne	.+4      	; 0x1de2 <main+0x5e4>
    1dde:	0e 94 e9 0a 	call	0x15d2	; 0x15d2 <uart_data_logging>
					

					int0_flag = 0; // reset a flag for RTC event
    1de2:	10 92 60 00 	sts	0x0060, r1	; 0x800060 <__DATA_REGION_ORIGIN__>
		
		
					ss_memory = ss; // save actual value of seconds
    1de6:	80 91 bd 07 	lds	r24, 0x07BD	; 0x8007bd <ss>
    1dea:	80 93 56 03 	sts	0x0356, r24	; 0x800356 <ss_memory>
    1dee:	75 cd       	rjmp	.-1302   	; 0x18da <main+0xdc>

00001df0 <USART_Init>:



void USART_Init( uint16_t baud ) {
	/* Ustawienie prêdkoœci */
	UBRRH = (uint8_t)(baud>>8);
    1df0:	90 bd       	out	0x20, r25	; 32
	UBRRL = (uint8_t)baud;
    1df2:	89 b9       	out	0x09, r24	; 9
	/* Za³¹czenie nadajnika I odbiornika */
	UCSRB = (1<<RXEN)|(1<<TXEN);
    1df4:	88 e1       	ldi	r24, 0x18	; 24
    1df6:	8a b9       	out	0x0a, r24	; 10
	/* Ustawienie format ramki: 8bitów danych, 1 bit stopu */
	UCSRC = (1<<URSEL)|(3<<UCSZ0);
    1df8:	86 e8       	ldi	r24, 0x86	; 134
    1dfa:	80 bd       	out	0x20, r24	; 32
	#ifdef UART_DE_PORT
		// jeœli korzystamy z interefejsu RS485 za³¹czamy dodatkowe przerwanie TXCIE
		UCSRB |= (1<<RXEN)|(1<<TXEN)|(1<<RXCIE)|(1<<TXCIE);
	#else
		// jeœli nie  korzystamy z interefejsu RS485
		UCSRB |= (1<<RXEN)|(1<<TXEN)|(1<<RXCIE);
    1dfc:	8a b1       	in	r24, 0x0a	; 10
    1dfe:	88 69       	ori	r24, 0x98	; 152
    1e00:	8a b9       	out	0x0a, r24	; 10
    1e02:	08 95       	ret

00001e04 <uart_putc>:

// definiujemy funkcjê dodaj¹c¹ jeden bajtdoz bufora cyklicznego
void uart_putc( char data ) {
	uint8_t tmp_head;

    tmp_head  = (UART_TxHead + 1) & UART_TX_BUF_MASK;
    1e04:	20 91 d4 07 	lds	r18, 0x07D4	; 0x8007d4 <UART_TxHead>
    1e08:	2f 5f       	subi	r18, 0xFF	; 255
    1e0a:	21 70       	andi	r18, 0x01	; 1

          // pêtla oczekuje je¿eli brak miejsca w buforze cyklicznym na kolejne znaki
    while ( tmp_head == UART_TxTail ){}
    1e0c:	90 91 d5 07 	lds	r25, 0x07D5	; 0x8007d5 <UART_TxTail>
    1e10:	29 17       	cp	r18, r25
    1e12:	e1 f3       	breq	.-8      	; 0x1e0c <uart_putc+0x8>

    UART_TxBuf[tmp_head] = data;
    1e14:	e2 2f       	mov	r30, r18
    1e16:	f0 e0       	ldi	r31, 0x00	; 0
    1e18:	ea 52       	subi	r30, 0x2A	; 42
    1e1a:	f8 4f       	sbci	r31, 0xF8	; 248
    1e1c:	80 83       	st	Z, r24
    UART_TxHead = tmp_head;
    1e1e:	20 93 d4 07 	sts	0x07D4, r18	; 0x8007d4 <UART_TxHead>

    // inicjalizujemy przerwanie wystêpuj¹ce, gdy bufor jest pusty, dziêki
    // czemu w dalszej czêœci wysy³aniem danych zajmie siê ju¿ procedura
    // obs³ugi przerwania
    UCSRB |= (1<<UDRIE);
    1e22:	8a b1       	in	r24, 0x0a	; 10
    1e24:	80 62       	ori	r24, 0x20	; 32
    1e26:	8a b9       	out	0x0a, r24	; 10
    1e28:	08 95       	ret

00001e2a <uart_puts>:
}


void uart_puts(char *s)		// wysy³a ³añcuch z pamiêci RAM na UART
{
    1e2a:	cf 93       	push	r28
    1e2c:	df 93       	push	r29
    1e2e:	fc 01       	movw	r30, r24
  register char c;
  while ((c = *s++)) uart_putc(c);			// dopóki nie napotkasz 0 wysy³aj znak
    1e30:	03 c0       	rjmp	.+6      	; 0x1e38 <uart_puts+0xe>
    1e32:	0e 94 02 0f 	call	0x1e04	; 0x1e04 <uart_putc>
    1e36:	fe 01       	movw	r30, r28
    1e38:	ef 01       	movw	r28, r30
    1e3a:	21 96       	adiw	r28, 0x01	; 1
    1e3c:	80 81       	ld	r24, Z
    1e3e:	81 11       	cpse	r24, r1
    1e40:	f8 cf       	rjmp	.-16     	; 0x1e32 <uart_puts+0x8>
}
    1e42:	df 91       	pop	r29
    1e44:	cf 91       	pop	r28
    1e46:	08 95       	ret

00001e48 <uart_putint>:

void uart_putint(int value, int radix)	// wysy³a na port szeregowy tekst
{
    1e48:	cf 93       	push	r28
    1e4a:	df 93       	push	r29
    1e4c:	cd b7       	in	r28, 0x3d	; 61
    1e4e:	de b7       	in	r29, 0x3e	; 62
    1e50:	61 97       	sbiw	r28, 0x11	; 17
    1e52:	0f b6       	in	r0, 0x3f	; 63
    1e54:	f8 94       	cli
    1e56:	de bf       	out	0x3e, r29	; 62
    1e58:	0f be       	out	0x3f, r0	; 63
    1e5a:	cd bf       	out	0x3d, r28	; 61
    1e5c:	ab 01       	movw	r20, r22
extern __inline__ __ATTR_GNU_INLINE__
char *itoa (int __val, char *__s, int __radix)
{
    if (!__builtin_constant_p (__radix)) {
	extern char *__itoa (int, char *, int);
	return __itoa (__val, __s, __radix);
    1e5e:	be 01       	movw	r22, r28
    1e60:	6f 5f       	subi	r22, 0xFF	; 255
    1e62:	7f 4f       	sbci	r23, 0xFF	; 255
    1e64:	0e 94 e3 1b 	call	0x37c6	; 0x37c6 <itoa>
	char string[17];			// bufor na wynik funkcji itoa
	itoa(value, string, radix);		// konwersja value na ASCII
	uart_puts(string);			// wyœlij string na port szeregowy
    1e68:	ce 01       	movw	r24, r28
    1e6a:	01 96       	adiw	r24, 0x01	; 1
    1e6c:	0e 94 15 0f 	call	0x1e2a	; 0x1e2a <uart_puts>
}
    1e70:	61 96       	adiw	r28, 0x11	; 17
    1e72:	0f b6       	in	r0, 0x3f	; 63
    1e74:	f8 94       	cli
    1e76:	de bf       	out	0x3e, r29	; 62
    1e78:	0f be       	out	0x3f, r0	; 63
    1e7a:	cd bf       	out	0x3d, r28	; 61
    1e7c:	df 91       	pop	r29
    1e7e:	cf 91       	pop	r28
    1e80:	08 95       	ret

00001e82 <__vector_14>:


// definiujemy procedurê obs³ugi przerwania nadawczego, pobieraj¹c¹ dane z bufora cyklicznego
ISR( USART_UDRE_vect)  {
    1e82:	1f 92       	push	r1
    1e84:	0f 92       	push	r0
    1e86:	0f b6       	in	r0, 0x3f	; 63
    1e88:	0f 92       	push	r0
    1e8a:	11 24       	eor	r1, r1
    1e8c:	8f 93       	push	r24
    1e8e:	9f 93       	push	r25
    1e90:	ef 93       	push	r30
    1e92:	ff 93       	push	r31
    // sprawdzamy czy indeksy s¹ ró¿ne
    if ( UART_TxHead != UART_TxTail ) {
    1e94:	90 91 d4 07 	lds	r25, 0x07D4	; 0x8007d4 <UART_TxHead>
    1e98:	80 91 d5 07 	lds	r24, 0x07D5	; 0x8007d5 <UART_TxTail>
    1e9c:	98 17       	cp	r25, r24
    1e9e:	71 f0       	breq	.+28     	; 0x1ebc <__vector_14+0x3a>
    	// obliczamy i zapamiêtujemy nowy indeks ogona wê¿a (mo¿e siê zrównaæ z g³ow¹)
    	UART_TxTail = (UART_TxTail + 1) & UART_TX_BUF_MASK;
    1ea0:	80 91 d5 07 	lds	r24, 0x07D5	; 0x8007d5 <UART_TxTail>
    1ea4:	8f 5f       	subi	r24, 0xFF	; 255
    1ea6:	81 70       	andi	r24, 0x01	; 1
    1ea8:	80 93 d5 07 	sts	0x07D5, r24	; 0x8007d5 <UART_TxTail>
#ifdef UART_DE_PORT
    	UART_DE_NADAWANIE;	// prze³¹cz RS485 w tryb nadawania
#endif

    	// zwracamy bajt pobrany z bufora  jako rezultat funkcji
    	UDR = UART_TxBuf[UART_TxTail];
    1eac:	e0 91 d5 07 	lds	r30, 0x07D5	; 0x8007d5 <UART_TxTail>
    1eb0:	f0 e0       	ldi	r31, 0x00	; 0
    1eb2:	ea 52       	subi	r30, 0x2A	; 42
    1eb4:	f8 4f       	sbci	r31, 0xF8	; 248
    1eb6:	80 81       	ld	r24, Z
    1eb8:	8c b9       	out	0x0c, r24	; 12
    1eba:	03 c0       	rjmp	.+6      	; 0x1ec2 <__vector_14+0x40>
    } else {
	// zerujemy flagê przerwania wystêpuj¹cego gdy bufor pusty
	UCSRB &= ~(1<<UDRIE);
    1ebc:	8a b1       	in	r24, 0x0a	; 10
    1ebe:	8f 7d       	andi	r24, 0xDF	; 223
    1ec0:	8a b9       	out	0x0a, r24	; 10
    }
}
    1ec2:	ff 91       	pop	r31
    1ec4:	ef 91       	pop	r30
    1ec6:	9f 91       	pop	r25
    1ec8:	8f 91       	pop	r24
    1eca:	0f 90       	pop	r0
    1ecc:	0f be       	out	0x3f, r0	; 63
    1ece:	0f 90       	pop	r0
    1ed0:	1f 90       	pop	r1
    1ed2:	18 95       	reti

00001ed4 <uart_getc>:


// definiujemy funkcjê pobieraj¹c¹ jeden bajt z bufora cyklicznego
char uart_getc(void) {
    // sprawdzamy czy indeksy s¹ równe
    if ( UART_RxHead == UART_RxTail ) return 0;
    1ed4:	90 91 d8 07 	lds	r25, 0x07D8	; 0x8007d8 <UART_RxHead>
    1ed8:	80 91 d9 07 	lds	r24, 0x07D9	; 0x8007d9 <UART_RxTail>
    1edc:	98 17       	cp	r25, r24
    1ede:	69 f0       	breq	.+26     	; 0x1efa <uart_getc+0x26>

    // obliczamy i zapamiêtujemy nowy indeks „ogona wê¿a” (mo¿e siê zrównaæ z g³ow¹)
    UART_RxTail = (UART_RxTail + 1) & UART_RX_BUF_MASK;
    1ee0:	80 91 d9 07 	lds	r24, 0x07D9	; 0x8007d9 <UART_RxTail>
    1ee4:	8f 5f       	subi	r24, 0xFF	; 255
    1ee6:	8f 71       	andi	r24, 0x1F	; 31
    1ee8:	80 93 d9 07 	sts	0x07D9, r24	; 0x8007d9 <UART_RxTail>
    // zwracamy bajt pobrany z bufora  jako rezultat funkcji
    return UART_RxBuf[UART_RxTail];
    1eec:	e0 91 d9 07 	lds	r30, 0x07D9	; 0x8007d9 <UART_RxTail>
    1ef0:	f0 e0       	ldi	r31, 0x00	; 0
    1ef2:	e6 52       	subi	r30, 0x26	; 38
    1ef4:	f8 4f       	sbci	r31, 0xF8	; 248
    1ef6:	80 81       	ld	r24, Z
    1ef8:	08 95       	ret


// definiujemy funkcjê pobieraj¹c¹ jeden bajt z bufora cyklicznego
char uart_getc(void) {
    // sprawdzamy czy indeksy s¹ równe
    if ( UART_RxHead == UART_RxTail ) return 0;
    1efa:	80 e0       	ldi	r24, 0x00	; 0

    // obliczamy i zapamiêtujemy nowy indeks „ogona wê¿a” (mo¿e siê zrównaæ z g³ow¹)
    UART_RxTail = (UART_RxTail + 1) & UART_RX_BUF_MASK;
    // zwracamy bajt pobrany z bufora  jako rezultat funkcji
    return UART_RxBuf[UART_RxTail];
}
    1efc:	08 95       	ret

00001efe <__vector_13>:

// definiujemy procedurê obs³ugi przerwania odbiorczego, zapisuj¹c¹ dane do bufora cyklicznego
ISR( USART_RXC_vect ) {
    1efe:	1f 92       	push	r1
    1f00:	0f 92       	push	r0
    1f02:	0f b6       	in	r0, 0x3f	; 63
    1f04:	0f 92       	push	r0
    1f06:	11 24       	eor	r1, r1
    1f08:	8f 93       	push	r24
    1f0a:	9f 93       	push	r25
    1f0c:	ef 93       	push	r30
    1f0e:	ff 93       	push	r31

    uint8_t tmp_head;
    char data;

    data = UDR; //pobieramy natychmiast bajt danych z bufora sprzêtowego
    1f10:	9c b1       	in	r25, 0x0c	; 12

    // obliczamy nowy indeks „g³owy wê¿a”
    tmp_head = ( UART_RxHead + 1) & UART_RX_BUF_MASK;
    1f12:	e0 91 d8 07 	lds	r30, 0x07D8	; 0x8007d8 <UART_RxHead>
    1f16:	ef 5f       	subi	r30, 0xFF	; 255
    1f18:	ef 71       	andi	r30, 0x1F	; 31

    // sprawdzamy, czy w¹¿ nie zacznie zjadaæ w³asnego ogona
    if ( tmp_head == UART_RxTail ) {
    1f1a:	80 91 d9 07 	lds	r24, 0x07D9	; 0x8007d9 <UART_RxTail>
    1f1e:	e8 17       	cp	r30, r24
    1f20:	31 f0       	breq	.+12     	; 0x1f2e <__vector_13+0x30>
    	// tutaj mo¿emy w jakiœ wygodny dla nas sposób obs³u¿yæ  b³¹d spowodowany
    	// prób¹ nadpisania danych w buforze, mog³oby dojœæ do sytuacji gdzie
    	// nasz w¹¿ zacz¹³by zjadaæ w³asny ogon
    } else {
	UART_RxHead = tmp_head; 		// zapamiêtujemy nowy indeks
    1f22:	e0 93 d8 07 	sts	0x07D8, r30	; 0x8007d8 <UART_RxHead>
	UART_RxBuf[tmp_head] = data; 	// wpisujemy odebrany bajt do bufora
    1f26:	f0 e0       	ldi	r31, 0x00	; 0
    1f28:	e6 52       	subi	r30, 0x26	; 38
    1f2a:	f8 4f       	sbci	r31, 0xF8	; 248
    1f2c:	90 83       	st	Z, r25
    }
}
    1f2e:	ff 91       	pop	r31
    1f30:	ef 91       	pop	r30
    1f32:	9f 91       	pop	r25
    1f34:	8f 91       	pop	r24
    1f36:	0f 90       	pop	r0
    1f38:	0f be       	out	0x3f, r0	; 63
    1f3a:	0f 90       	pop	r0
    1f3c:	1f 90       	pop	r1
    1f3e:	18 95       	reti

00001f40 <bmpe280_read_byte>:
static int32_t tmp_temperature;
static TCALIBDATA bmpe_calib;



static uint8_t bmpe280_read_byte( uint8_t addr ) {
    1f40:	cf 93       	push	r28
    1f42:	c8 2f       	mov	r28, r24

    uint8_t value;

    i2c__start();
    1f44:	0e 94 c9 15 	call	0x2b92	; 0x2b92 <i2c__start>
    i2c_write(BMPE280_ADDR);
    1f48:	8c ee       	ldi	r24, 0xEC	; 236
    1f4a:	0e 94 17 16 	call	0x2c2e	; 0x2c2e <i2c_write>
    i2c_write(addr);
    1f4e:	8c 2f       	mov	r24, r28
    1f50:	0e 94 17 16 	call	0x2c2e	; 0x2c2e <i2c_write>
    i2c__start();
    1f54:	0e 94 c9 15 	call	0x2b92	; 0x2b92 <i2c__start>
    i2c_write(BMPE280_ADDR+1);
    1f58:	8d ee       	ldi	r24, 0xED	; 237
    1f5a:	0e 94 17 16 	call	0x2c2e	; 0x2c2e <i2c_write>

    value = i2c_read( NACK );
    1f5e:	80 e0       	ldi	r24, 0x00	; 0
    1f60:	0e 94 48 16 	call	0x2c90	; 0x2c90 <i2c_read>
    1f64:	c8 2f       	mov	r28, r24

    i2c__stop();
    1f66:	0e 94 f0 15 	call	0x2be0	; 0x2be0 <i2c__stop>

    return value;
}
    1f6a:	8c 2f       	mov	r24, r28
    1f6c:	cf 91       	pop	r28
    1f6e:	08 95       	ret

00001f70 <bmpe280_read_word>:

static uint16_t bmpe280_read_word( uint8_t addr ) {
    1f70:	cf 93       	push	r28
    1f72:	df 93       	push	r29
    1f74:	c8 2f       	mov	r28, r24

    uint16_t value;

    i2c__start();
    1f76:	0e 94 c9 15 	call	0x2b92	; 0x2b92 <i2c__start>
    i2c_write(BMPE280_ADDR);
    1f7a:	8c ee       	ldi	r24, 0xEC	; 236
    1f7c:	0e 94 17 16 	call	0x2c2e	; 0x2c2e <i2c_write>
    i2c_write(addr);
    1f80:	8c 2f       	mov	r24, r28
    1f82:	0e 94 17 16 	call	0x2c2e	; 0x2c2e <i2c_write>
    i2c__start();
    1f86:	0e 94 c9 15 	call	0x2b92	; 0x2b92 <i2c__start>
    i2c_write(BMPE280_ADDR+1);
    1f8a:	8d ee       	ldi	r24, 0xED	; 237
    1f8c:	0e 94 17 16 	call	0x2c2e	; 0x2c2e <i2c_write>

    value = i2c_read( ACK );
    1f90:	81 e0       	ldi	r24, 0x01	; 1
    1f92:	0e 94 48 16 	call	0x2c90	; 0x2c90 <i2c_read>
    1f96:	c8 2f       	mov	r28, r24
    1f98:	d0 e0       	ldi	r29, 0x00	; 0
    value <<= 8;
    1f9a:	dc 2f       	mov	r29, r28
    1f9c:	cc 27       	eor	r28, r28
    value |= i2c_read( NACK );
    1f9e:	80 e0       	ldi	r24, 0x00	; 0
    1fa0:	0e 94 48 16 	call	0x2c90	; 0x2c90 <i2c_read>
    1fa4:	c8 2b       	or	r28, r24

    i2c__stop();
    1fa6:	0e 94 f0 15 	call	0x2be0	; 0x2be0 <i2c__stop>

    return value;
}
    1faa:	ce 01       	movw	r24, r28
    1fac:	df 91       	pop	r29
    1fae:	cf 91       	pop	r28
    1fb0:	08 95       	ret

00001fb2 <bmpe280_read_uint16>:



static uint16_t bmpe280_read_uint16( uint8_t reg ) {

    uint16_t temp = bmpe280_read_word( reg );
    1fb2:	0e 94 b8 0f 	call	0x1f70	; 0x1f70 <bmpe280_read_word>
    return (temp >> 8) | (temp << 8);
}
    1fb6:	98 27       	eor	r25, r24
    1fb8:	89 27       	eor	r24, r25
    1fba:	98 27       	eor	r25, r24
    1fbc:	08 95       	ret

00001fbe <bmpe280_read_int16>:

static int16_t bmpe280_read_int16( uint8_t reg ) {

    return (int16_t)bmpe280_read_uint16( reg );
    1fbe:	0e 94 d9 0f 	call	0x1fb2	; 0x1fb2 <bmpe280_read_uint16>
}
    1fc2:	08 95       	ret

00001fc4 <bme280_readCoefficients>:


static void bme280_readCoefficients( void ) {
    1fc4:	0f 93       	push	r16
    1fc6:	1f 93       	push	r17
    1fc8:	cf 93       	push	r28
    1fca:	df 93       	push	r29

    bmpe_calib.T1 = bmpe280_read_uint16( BME280_REGISTER_T1 );
    1fcc:	88 e8       	ldi	r24, 0x88	; 136
    1fce:	0e 94 d9 0f 	call	0x1fb2	; 0x1fb2 <bmpe280_read_uint16>
    1fd2:	c4 e6       	ldi	r28, 0x64	; 100
    1fd4:	d3 e0       	ldi	r29, 0x03	; 3
    1fd6:	99 83       	std	Y+1, r25	; 0x01
    1fd8:	88 83       	st	Y, r24
    bmpe_calib.T2 = bmpe280_read_int16( BME280_REGISTER_T2 );
    1fda:	8a e8       	ldi	r24, 0x8A	; 138
    1fdc:	0e 94 df 0f 	call	0x1fbe	; 0x1fbe <bmpe280_read_int16>
    1fe0:	9b 83       	std	Y+3, r25	; 0x03
    1fe2:	8a 83       	std	Y+2, r24	; 0x02
    bmpe_calib.T3 = bmpe280_read_int16( BME280_REGISTER_T3 );
    1fe4:	8c e8       	ldi	r24, 0x8C	; 140
    1fe6:	0e 94 df 0f 	call	0x1fbe	; 0x1fbe <bmpe280_read_int16>
    1fea:	9d 83       	std	Y+5, r25	; 0x05
    1fec:	8c 83       	std	Y+4, r24	; 0x04

    bmpe_calib.P1 = bmpe280_read_uint16( BME280_REGISTER_P1 );
    1fee:	8e e8       	ldi	r24, 0x8E	; 142
    1ff0:	0e 94 d9 0f 	call	0x1fb2	; 0x1fb2 <bmpe280_read_uint16>
    1ff4:	9f 83       	std	Y+7, r25	; 0x07
    1ff6:	8e 83       	std	Y+6, r24	; 0x06
    bmpe_calib.P2 = bmpe280_read_int16( BME280_REGISTER_P2 );
    1ff8:	80 e9       	ldi	r24, 0x90	; 144
    1ffa:	0e 94 df 0f 	call	0x1fbe	; 0x1fbe <bmpe280_read_int16>
    1ffe:	99 87       	std	Y+9, r25	; 0x09
    2000:	88 87       	std	Y+8, r24	; 0x08
    bmpe_calib.P3 = bmpe280_read_int16( BME280_REGISTER_P3 );
    2002:	82 e9       	ldi	r24, 0x92	; 146
    2004:	0e 94 df 0f 	call	0x1fbe	; 0x1fbe <bmpe280_read_int16>
    2008:	9b 87       	std	Y+11, r25	; 0x0b
    200a:	8a 87       	std	Y+10, r24	; 0x0a
    bmpe_calib.P4 = bmpe280_read_int16( BME280_REGISTER_P4 );
    200c:	84 e9       	ldi	r24, 0x94	; 148
    200e:	0e 94 df 0f 	call	0x1fbe	; 0x1fbe <bmpe280_read_int16>
    2012:	9d 87       	std	Y+13, r25	; 0x0d
    2014:	8c 87       	std	Y+12, r24	; 0x0c
    bmpe_calib.P5 = bmpe280_read_int16( BME280_REGISTER_P5 );
    2016:	86 e9       	ldi	r24, 0x96	; 150
    2018:	0e 94 df 0f 	call	0x1fbe	; 0x1fbe <bmpe280_read_int16>
    201c:	9f 87       	std	Y+15, r25	; 0x0f
    201e:	8e 87       	std	Y+14, r24	; 0x0e
    bmpe_calib.P6 = bmpe280_read_int16( BME280_REGISTER_P6 );
    2020:	88 e9       	ldi	r24, 0x98	; 152
    2022:	0e 94 df 0f 	call	0x1fbe	; 0x1fbe <bmpe280_read_int16>
    2026:	99 8b       	std	Y+17, r25	; 0x11
    2028:	88 8b       	std	Y+16, r24	; 0x10
    bmpe_calib.P7 = bmpe280_read_int16( BME280_REGISTER_P7 );
    202a:	8a e9       	ldi	r24, 0x9A	; 154
    202c:	0e 94 df 0f 	call	0x1fbe	; 0x1fbe <bmpe280_read_int16>
    2030:	9b 8b       	std	Y+19, r25	; 0x13
    2032:	8a 8b       	std	Y+18, r24	; 0x12
    bmpe_calib.P8 = bmpe280_read_int16( BME280_REGISTER_P8 );
    2034:	8c e9       	ldi	r24, 0x9C	; 156
    2036:	0e 94 df 0f 	call	0x1fbe	; 0x1fbe <bmpe280_read_int16>
    203a:	9d 8b       	std	Y+21, r25	; 0x15
    203c:	8c 8b       	std	Y+20, r24	; 0x14
    bmpe_calib.P9 = bmpe280_read_int16( BME280_REGISTER_P9 );
    203e:	8e e9       	ldi	r24, 0x9E	; 158
    2040:	0e 94 df 0f 	call	0x1fbe	; 0x1fbe <bmpe280_read_int16>
    2044:	9f 8b       	std	Y+23, r25	; 0x17
    2046:	8e 8b       	std	Y+22, r24	; 0x16

    if( bmpe280_read_byte( BME280_REGISTER_CHIPID ) == 0x60 ) {
    2048:	80 ed       	ldi	r24, 0xD0	; 208
    204a:	0e 94 a0 0f 	call	0x1f40	; 0x1f40 <bmpe280_read_byte>
    204e:	80 36       	cpi	r24, 0x60	; 96
    2050:	71 f5       	brne	.+92     	; 0x20ae <bme280_readCoefficients+0xea>
        // it's a BME280
        bmpe_calib.H1 = bmpe280_read_byte( BME280_REGISTER_H1 );
    2052:	81 ea       	ldi	r24, 0xA1	; 161
    2054:	0e 94 a0 0f 	call	0x1f40	; 0x1f40 <bmpe280_read_byte>
    2058:	88 8f       	std	Y+24, r24	; 0x18
        bmpe_calib.H2 = bmpe280_read_int16( BME280_REGISTER_H2 );
    205a:	81 ee       	ldi	r24, 0xE1	; 225
    205c:	0e 94 df 0f 	call	0x1fbe	; 0x1fbe <bmpe280_read_int16>
    2060:	9a 8f       	std	Y+26, r25	; 0x1a
    2062:	89 8f       	std	Y+25, r24	; 0x19
        bmpe_calib.H3 = bmpe280_read_byte( BME280_REGISTER_H3 );
    2064:	83 ee       	ldi	r24, 0xE3	; 227
    2066:	0e 94 a0 0f 	call	0x1f40	; 0x1f40 <bmpe280_read_byte>
    206a:	8b 8f       	std	Y+27, r24	; 0x1b
        bmpe_calib.H4 = (bmpe280_read_byte( BME280_REGISTER_H4 ) << 4) | (bmpe280_read_byte( BME280_REGISTER_H4+1 ) & 0xF);
    206c:	84 ee       	ldi	r24, 0xE4	; 228
    206e:	0e 94 a0 0f 	call	0x1f40	; 0x1f40 <bmpe280_read_byte>
    2072:	90 e1       	ldi	r25, 0x10	; 16
    2074:	89 9f       	mul	r24, r25
    2076:	80 01       	movw	r16, r0
    2078:	11 24       	eor	r1, r1
    207a:	85 ee       	ldi	r24, 0xE5	; 229
    207c:	0e 94 a0 0f 	call	0x1f40	; 0x1f40 <bmpe280_read_byte>
    2080:	8f 70       	andi	r24, 0x0F	; 15
    2082:	08 2b       	or	r16, r24
    2084:	1d 8f       	std	Y+29, r17	; 0x1d
    2086:	0c 8f       	std	Y+28, r16	; 0x1c
        bmpe_calib.H5 = (bmpe280_read_byte( BME280_REGISTER_H5+1 ) << 4) | (bmpe280_read_byte( BME280_REGISTER_H5 ) >> 4);
    2088:	86 ee       	ldi	r24, 0xE6	; 230
    208a:	0e 94 a0 0f 	call	0x1f40	; 0x1f40 <bmpe280_read_byte>
    208e:	90 e1       	ldi	r25, 0x10	; 16
    2090:	89 9f       	mul	r24, r25
    2092:	80 01       	movw	r16, r0
    2094:	11 24       	eor	r1, r1
    2096:	85 ee       	ldi	r24, 0xE5	; 229
    2098:	0e 94 a0 0f 	call	0x1f40	; 0x1f40 <bmpe280_read_byte>
    209c:	82 95       	swap	r24
    209e:	8f 70       	andi	r24, 0x0F	; 15
    20a0:	08 2b       	or	r16, r24
    20a2:	1f 8f       	std	Y+31, r17	; 0x1f
    20a4:	0e 8f       	std	Y+30, r16	; 0x1e
        bmpe_calib.H6 = (int8_t)bmpe280_read_byte( BME280_REGISTER_H6 );
    20a6:	87 ee       	ldi	r24, 0xE7	; 231
    20a8:	0e 94 a0 0f 	call	0x1f40	; 0x1f40 <bmpe280_read_byte>
    20ac:	88 a3       	std	Y+32, r24	; 0x20
    }
}
    20ae:	df 91       	pop	r29
    20b0:	cf 91       	pop	r28
    20b2:	1f 91       	pop	r17
    20b4:	0f 91       	pop	r16
    20b6:	08 95       	ret

000020b8 <bmpe280_read_3bytes>:
    i2c__stop();

    return value;
}

static uint32_t bmpe280_read_3bytes( uint8_t addr ) {
    20b8:	cf 92       	push	r12
    20ba:	df 92       	push	r13
    20bc:	ef 92       	push	r14
    20be:	ff 92       	push	r15
    20c0:	f8 2e       	mov	r15, r24

    uint32_t value;
    i2c__start();
    20c2:	0e 94 c9 15 	call	0x2b92	; 0x2b92 <i2c__start>
    i2c_write(BMPE280_ADDR);
    20c6:	8c ee       	ldi	r24, 0xEC	; 236
    20c8:	0e 94 17 16 	call	0x2c2e	; 0x2c2e <i2c_write>
    i2c_write(addr);
    20cc:	8f 2d       	mov	r24, r15
    20ce:	0e 94 17 16 	call	0x2c2e	; 0x2c2e <i2c_write>
    i2c__start();
    20d2:	0e 94 c9 15 	call	0x2b92	; 0x2b92 <i2c__start>
    i2c_write(BMPE280_ADDR+1);
    20d6:	8d ee       	ldi	r24, 0xED	; 237
    20d8:	0e 94 17 16 	call	0x2c2e	; 0x2c2e <i2c_write>
    value = i2c_read( ACK );
    20dc:	81 e0       	ldi	r24, 0x01	; 1
    20de:	0e 94 48 16 	call	0x2c90	; 0x2c90 <i2c_read>
    20e2:	c8 2e       	mov	r12, r24
    20e4:	d1 2c       	mov	r13, r1
    20e6:	e1 2c       	mov	r14, r1
    20e8:	f1 2c       	mov	r15, r1

    value <<= 8;
    20ea:	fe 2c       	mov	r15, r14
    20ec:	ed 2c       	mov	r14, r13
    20ee:	dc 2c       	mov	r13, r12
    20f0:	cc 24       	eor	r12, r12
    value |= i2c_read( ACK );
    20f2:	81 e0       	ldi	r24, 0x01	; 1
    20f4:	0e 94 48 16 	call	0x2c90	; 0x2c90 <i2c_read>
    20f8:	c8 2a       	or	r12, r24
    value <<= 8;
    20fa:	fe 2c       	mov	r15, r14
    20fc:	ed 2c       	mov	r14, r13
    20fe:	dc 2c       	mov	r13, r12
    2100:	cc 24       	eor	r12, r12
    value |= i2c_read( NACK );
    2102:	80 e0       	ldi	r24, 0x00	; 0
    2104:	0e 94 48 16 	call	0x2c90	; 0x2c90 <i2c_read>
    2108:	c8 2a       	or	r12, r24

    i2c__stop();
    210a:	0e 94 f0 15 	call	0x2be0	; 0x2be0 <i2c__stop>

    return value;
}
    210e:	c7 01       	movw	r24, r14
    2110:	b6 01       	movw	r22, r12
    2112:	ff 90       	pop	r15
    2114:	ef 90       	pop	r14
    2116:	df 90       	pop	r13
    2118:	cf 90       	pop	r12
    211a:	08 95       	ret

0000211c <bmpe280_init>:
        bmpe_calib.H6 = (int8_t)bmpe280_read_byte( BME280_REGISTER_H6 );
    }
}


uint8_t bmpe280_init( void ) {
    211c:	cf 93       	push	r28

    uint8_t res = st_none;

	i2c__start();
    211e:	0e 94 c9 15 	call	0x2b92	; 0x2b92 <i2c__start>
	res = !i2c_write( BMPE280_ADDR );
    2122:	8c ee       	ldi	r24, 0xEC	; 236
    2124:	0e 94 17 16 	call	0x2c2e	; 0x2c2e <i2c_write>
    2128:	c8 2f       	mov	r28, r24
	i2c__stop();
    212a:	0e 94 f0 15 	call	0x2be0	; 0x2be0 <i2c__stop>

	if( res ) return 0xFF;
    212e:	cc 23       	and	r28, r28
    2130:	09 f4       	brne	.+2      	; 0x2134 <bmpe280_init+0x18>
    2132:	56 c0       	rjmp	.+172    	; 0x21e0 <bmpe280_init+0xc4>

    switch( bmpe280_read_byte( BME280_REGISTER_CHIPID ) ) {
    2134:	80 ed       	ldi	r24, 0xD0	; 208
    2136:	0e 94 a0 0f 	call	0x1f40	; 0x1f40 <bmpe280_read_byte>
    213a:	88 35       	cpi	r24, 0x58	; 88
    213c:	01 f1       	breq	.+64     	; 0x217e <bmpe280_init+0x62>
    213e:	80 36       	cpi	r24, 0x60	; 96
    2140:	09 f0       	breq	.+2      	; 0x2144 <bmpe280_init+0x28>
    2142:	50 c0       	rjmp	.+160    	; 0x21e4 <bmpe280_init+0xc8>

        case 0x60:
			// BME280 connected
			res = st_bme280;// 0x00;

			i2c__start();
    2144:	0e 94 c9 15 	call	0x2b92	; 0x2b92 <i2c__start>
			i2c_write( BMPE280_ADDR );
    2148:	8c ee       	ldi	r24, 0xEC	; 236
    214a:	0e 94 17 16 	call	0x2c2e	; 0x2c2e <i2c_write>
			i2c_write( BME280_REGISTER_SOFTRESET );
    214e:	80 ee       	ldi	r24, 0xE0	; 224
    2150:	0e 94 17 16 	call	0x2c2e	; 0x2c2e <i2c_write>
			i2c__stop();
    2154:	0e 94 f0 15 	call	0x2be0	; 0x2be0 <i2c__stop>
	#else
		//round up by default
		__ticks_dc = (uint32_t)(ceil(fabs(__tmp)));
	#endif

	__builtin_avr_delay_cycles(__ticks_dc);
    2158:	8f ef       	ldi	r24, 0xFF	; 255
    215a:	9b e6       	ldi	r25, 0x6B	; 107
    215c:	01 97       	sbiw	r24, 0x01	; 1
    215e:	f1 f7       	brne	.-4      	; 0x215c <bmpe280_init+0x40>
    2160:	00 c0       	rjmp	.+0      	; 0x2162 <bmpe280_init+0x46>
    2162:	00 00       	nop

			_delay_ms(10);

			i2c__start();
    2164:	0e 94 c9 15 	call	0x2b92	; 0x2b92 <i2c__start>
			i2c_write( BMPE280_ADDR );
    2168:	8c ee       	ldi	r24, 0xEC	; 236
    216a:	0e 94 17 16 	call	0x2c2e	; 0x2c2e <i2c_write>

			i2c_write( BME280_REGISTER_CONTROLHUMID );
    216e:	82 ef       	ldi	r24, 0xF2	; 242
    2170:	0e 94 17 16 	call	0x2c2e	; 0x2c2e <i2c_write>
			i2c_write( BME280_HUM_CONFIG );
    2174:	85 e0       	ldi	r24, 0x05	; 5
    2176:	0e 94 17 16 	call	0x2c2e	; 0x2c2e <i2c_write>

    switch( bmpe280_read_byte( BME280_REGISTER_CHIPID ) ) {

        case 0x60:
			// BME280 connected
			res = st_bme280;// 0x00;
    217a:	c4 e0       	ldi	r28, 0x04	; 4
			i2c__start();
			i2c_write( BMPE280_ADDR );

			i2c_write( BME280_REGISTER_CONTROLHUMID );
			i2c_write( BME280_HUM_CONFIG );
        break;
    217c:	19 c0       	rjmp	.+50     	; 0x21b0 <bmpe280_init+0x94>

        case 0x58:
			// BMP280 connected
			res = st_bmp280;// 0x01;

			i2c__start();
    217e:	0e 94 c9 15 	call	0x2b92	; 0x2b92 <i2c__start>
			i2c_write( BMPE280_ADDR );
    2182:	8c ee       	ldi	r24, 0xEC	; 236
    2184:	0e 94 17 16 	call	0x2c2e	; 0x2c2e <i2c_write>


			i2c_write( BME280_REGISTER_SOFTRESET );
    2188:	80 ee       	ldi	r24, 0xE0	; 224
    218a:	0e 94 17 16 	call	0x2c2e	; 0x2c2e <i2c_write>
			i2c_write( 0xB6 );
    218e:	86 eb       	ldi	r24, 0xB6	; 182
    2190:	0e 94 17 16 	call	0x2c2e	; 0x2c2e <i2c_write>
			i2c__stop();
    2194:	0e 94 f0 15 	call	0x2be0	; 0x2be0 <i2c__stop>
    2198:	8f ef       	ldi	r24, 0xFF	; 255
    219a:	9b e6       	ldi	r25, 0x6B	; 107
    219c:	01 97       	sbiw	r24, 0x01	; 1
    219e:	f1 f7       	brne	.-4      	; 0x219c <bmpe280_init+0x80>
    21a0:	00 c0       	rjmp	.+0      	; 0x21a2 <bmpe280_init+0x86>
    21a2:	00 00       	nop

			_delay_ms(10);

			i2c__start();
    21a4:	0e 94 c9 15 	call	0x2b92	; 0x2b92 <i2c__start>
			i2c_write( BMPE280_ADDR );
    21a8:	8c ee       	ldi	r24, 0xEC	; 236
    21aa:	0e 94 17 16 	call	0x2c2e	; 0x2c2e <i2c_write>
			i2c_write( BME280_HUM_CONFIG );
        break;

        case 0x58:
			// BMP280 connected
			res = st_bmp280;// 0x01;
    21ae:	c2 e0       	ldi	r28, 0x02	; 2
        default:
        // ERROR - bad chip-id
        return st_none; //0xff;
    }

    i2c_write( BME280_REGISTER_CONFIG );
    21b0:	85 ef       	ldi	r24, 0xF5	; 245
    21b2:	0e 94 17 16 	call	0x2c2e	; 0x2c2e <i2c_write>
    i2c_write( BME280_CONFIG );
    21b6:	8c e6       	ldi	r24, 0x6C	; 108
    21b8:	0e 94 17 16 	call	0x2c2e	; 0x2c2e <i2c_write>

    i2c_write( BME280_REGISTER_CONTROL );
    21bc:	84 ef       	ldi	r24, 0xF4	; 244
    21be:	0e 94 17 16 	call	0x2c2e	; 0x2c2e <i2c_write>
    i2c_write( (BME280_TEMP_CONFIG << 5)|(BME280_PRESS_CONFIG << 2)|(BME280_MODE_CONFIG) );
    21c2:	87 eb       	ldi	r24, 0xB7	; 183
    21c4:	0e 94 17 16 	call	0x2c2e	; 0x2c2e <i2c_write>

    i2c__stop();
    21c8:	0e 94 f0 15 	call	0x2be0	; 0x2be0 <i2c__stop>
    21cc:	8f ef       	ldi	r24, 0xFF	; 255
    21ce:	9b e6       	ldi	r25, 0x6B	; 107
    21d0:	01 97       	sbiw	r24, 0x01	; 1
    21d2:	f1 f7       	brne	.-4      	; 0x21d0 <bmpe280_init+0xb4>
    21d4:	00 c0       	rjmp	.+0      	; 0x21d6 <bmpe280_init+0xba>
    21d6:	00 00       	nop

    _delay_ms(10);

    bme280_readCoefficients();
    21d8:	0e 94 e2 0f 	call	0x1fc4	; 0x1fc4 <bme280_readCoefficients>

    return res;
    21dc:	8c 2f       	mov	r24, r28
    21de:	03 c0       	rjmp	.+6      	; 0x21e6 <bmpe280_init+0xca>

	i2c__start();
	res = !i2c_write( BMPE280_ADDR );
	i2c__stop();

	if( res ) return 0xFF;
    21e0:	8f ef       	ldi	r24, 0xFF	; 255
    21e2:	01 c0       	rjmp	.+2      	; 0x21e6 <bmpe280_init+0xca>
			i2c_write( BMPE280_ADDR );
        break;

        default:
        // ERROR - bad chip-id
        return st_none; //0xff;
    21e4:	80 e0       	ldi	r24, 0x00	; 0
    _delay_ms(10);

    bme280_readCoefficients();

    return res;
}
    21e6:	cf 91       	pop	r28
    21e8:	08 95       	ret

000021ea <bmpe280_read_temp>:


uint8_t bmpe280_read_temp( int8_t * at_int, int8_t * at_fract  ) {
    21ea:	4f 92       	push	r4
    21ec:	5f 92       	push	r5
    21ee:	6f 92       	push	r6
    21f0:	7f 92       	push	r7
    21f2:	8f 92       	push	r8
    21f4:	9f 92       	push	r9
    21f6:	af 92       	push	r10
    21f8:	bf 92       	push	r11
    21fa:	cf 92       	push	r12
    21fc:	df 92       	push	r13
    21fe:	ef 92       	push	r14
    2200:	ff 92       	push	r15
    2202:	0f 93       	push	r16
    2204:	1f 93       	push	r17
    2206:	cf 93       	push	r28
    2208:	df 93       	push	r29
    220a:	ec 01       	movw	r28, r24
    220c:	8b 01       	movw	r16, r22



    int32_t adc_T = bmpe280_read_3bytes( BME280_REGISTER_TEMPDATA );
    220e:	8a ef       	ldi	r24, 0xFA	; 250
    2210:	0e 94 5c 10 	call	0x20b8	; 0x20b8 <bmpe280_read_3bytes>
    2214:	6b 01       	movw	r12, r22
    2216:	7c 01       	movw	r14, r24

    if (adc_T == 0x800000) // ERROR if temperature measurement was disabled
    2218:	c1 14       	cp	r12, r1
    221a:	d1 04       	cpc	r13, r1
    221c:	80 e8       	ldi	r24, 0x80	; 128
    221e:	e8 06       	cpc	r14, r24
    2220:	f1 04       	cpc	r15, r1
    2222:	09 f4       	brne	.+2      	; 0x2226 <bmpe280_read_temp+0x3c>
    2224:	90 c0       	rjmp	.+288    	; 0x2346 <bmpe280_read_temp+0x15c>

    int32_t var1, var2;

    adc_T >>= 4;

    var1  = ((((adc_T>>3) - ((int32_t)bmpe_calib.T1 <<1))) *
    2226:	b7 01       	movw	r22, r14
    2228:	a6 01       	movw	r20, r12
    222a:	68 94       	set
    222c:	16 f8       	bld	r1, 6
    222e:	75 95       	asr	r23
    2230:	67 95       	ror	r22
    2232:	57 95       	ror	r21
    2234:	47 95       	ror	r20
    2236:	16 94       	lsr	r1
    2238:	d1 f7       	brne	.-12     	; 0x222e <bmpe280_read_temp+0x44>
    223a:	e4 e6       	ldi	r30, 0x64	; 100
    223c:	f3 e0       	ldi	r31, 0x03	; 3
    223e:	80 80       	ld	r8, Z
    2240:	91 80       	ldd	r9, Z+1	; 0x01
    2242:	a1 2c       	mov	r10, r1
    2244:	b1 2c       	mov	r11, r1
    2246:	d5 01       	movw	r26, r10
    2248:	c4 01       	movw	r24, r8
    224a:	88 0f       	add	r24, r24
    224c:	99 1f       	adc	r25, r25
    224e:	aa 1f       	adc	r26, r26
    2250:	bb 1f       	adc	r27, r27
    2252:	9a 01       	movw	r18, r20
    2254:	ab 01       	movw	r20, r22
    2256:	28 1b       	sub	r18, r24
    2258:	39 0b       	sbc	r19, r25
    225a:	4a 0b       	sbc	r20, r26
    225c:	5b 0b       	sbc	r21, r27
             ((int32_t)bmpe_calib.T2)) >> 11;
    225e:	a2 81       	ldd	r26, Z+2	; 0x02
    2260:	b3 81       	ldd	r27, Z+3	; 0x03

    int32_t var1, var2;

    adc_T >>= 4;

    var1  = ((((adc_T>>3) - ((int32_t)bmpe_calib.T1 <<1))) *
    2262:	0e 94 47 1a 	call	0x348e	; 0x348e <__mulshisi3>
    2266:	2b 01       	movw	r4, r22
    2268:	3c 01       	movw	r6, r24
    226a:	03 2e       	mov	r0, r19
    226c:	3b e0       	ldi	r19, 0x0B	; 11
    226e:	75 94       	asr	r7
    2270:	67 94       	ror	r6
    2272:	57 94       	ror	r5
    2274:	47 94       	ror	r4
    2276:	3a 95       	dec	r19
    2278:	d1 f7       	brne	.-12     	; 0x226e <bmpe280_read_temp+0x84>
    227a:	30 2d       	mov	r19, r0
             ((int32_t)bmpe_calib.T2)) >> 11;

    var2  = (((((adc_T>>4) - ((int32_t)bmpe_calib.T1)) *
    227c:	bb 27       	eor	r27, r27
    227e:	f7 fc       	sbrc	r15, 7
    2280:	ba 95       	dec	r27
    2282:	af 2d       	mov	r26, r15
    2284:	9e 2d       	mov	r25, r14
    2286:	8d 2d       	mov	r24, r13
               ((adc_T>>4) - ((int32_t)bmpe_calib.T1))) >> 12) *
    2288:	bc 01       	movw	r22, r24
    228a:	cd 01       	movw	r24, r26
    228c:	68 19       	sub	r22, r8
    228e:	79 09       	sbc	r23, r9
    2290:	8a 09       	sbc	r24, r10
    2292:	9b 09       	sbc	r25, r11
    adc_T >>= 4;

    var1  = ((((adc_T>>3) - ((int32_t)bmpe_calib.T1 <<1))) *
             ((int32_t)bmpe_calib.T2)) >> 11;

    var2  = (((((adc_T>>4) - ((int32_t)bmpe_calib.T1)) *
    2294:	9b 01       	movw	r18, r22
    2296:	ac 01       	movw	r20, r24
    2298:	0e 94 e5 19 	call	0x33ca	; 0x33ca <__mulsi3>
               ((adc_T>>4) - ((int32_t)bmpe_calib.T1))) >> 12) *
    229c:	9b 01       	movw	r18, r22
    229e:	ac 01       	movw	r20, r24
    22a0:	01 2e       	mov	r0, r17
    22a2:	1c e0       	ldi	r17, 0x0C	; 12
    22a4:	55 95       	asr	r21
    22a6:	47 95       	ror	r20
    22a8:	37 95       	ror	r19
    22aa:	27 95       	ror	r18
    22ac:	1a 95       	dec	r17
    22ae:	d1 f7       	brne	.-12     	; 0x22a4 <bmpe280_read_temp+0xba>
    22b0:	10 2d       	mov	r17, r0
             ((int32_t)bmpe_calib.T3)) >> 14;
    22b2:	a4 81       	ldd	r26, Z+4	; 0x04
    22b4:	b5 81       	ldd	r27, Z+5	; 0x05

    var1  = ((((adc_T>>3) - ((int32_t)bmpe_calib.T1 <<1))) *
             ((int32_t)bmpe_calib.T2)) >> 11;

    var2  = (((((adc_T>>4) - ((int32_t)bmpe_calib.T1)) *
               ((adc_T>>4) - ((int32_t)bmpe_calib.T1))) >> 12) *
    22b6:	0e 94 47 1a 	call	0x348e	; 0x348e <__mulshisi3>
    adc_T >>= 4;

    var1  = ((((adc_T>>3) - ((int32_t)bmpe_calib.T1 <<1))) *
             ((int32_t)bmpe_calib.T2)) >> 11;

    var2  = (((((adc_T>>4) - ((int32_t)bmpe_calib.T1)) *
    22ba:	dc 01       	movw	r26, r24
    22bc:	cb 01       	movw	r24, r22
    22be:	07 2e       	mov	r0, r23
    22c0:	7e e0       	ldi	r23, 0x0E	; 14
    22c2:	b5 95       	asr	r27
    22c4:	a7 95       	ror	r26
    22c6:	97 95       	ror	r25
    22c8:	87 95       	ror	r24
    22ca:	7a 95       	dec	r23
    22cc:	d1 f7       	brne	.-12     	; 0x22c2 <bmpe280_read_temp+0xd8>
    22ce:	70 2d       	mov	r23, r0
               ((adc_T>>4) - ((int32_t)bmpe_calib.T1))) >> 12) *
             ((int32_t)bmpe_calib.T3)) >> 14;

    tmp_temperature = var1 + var2;
    22d0:	48 0e       	add	r4, r24
    22d2:	59 1e       	adc	r5, r25
    22d4:	6a 1e       	adc	r6, r26
    22d6:	7b 1e       	adc	r7, r27
    22d8:	40 92 85 03 	sts	0x0385, r4	; 0x800385 <tmp_temperature>
    22dc:	50 92 86 03 	sts	0x0386, r5	; 0x800386 <tmp_temperature+0x1>
    22e0:	60 92 87 03 	sts	0x0387, r6	; 0x800387 <tmp_temperature+0x2>
    22e4:	70 92 88 03 	sts	0x0388, r7	; 0x800388 <tmp_temperature+0x3>

    adc_T = (tmp_temperature * 5 + 128) >> 8;
    22e8:	d3 01       	movw	r26, r6
    22ea:	c2 01       	movw	r24, r4
    22ec:	88 0f       	add	r24, r24
    22ee:	99 1f       	adc	r25, r25
    22f0:	aa 1f       	adc	r26, r26
    22f2:	bb 1f       	adc	r27, r27
    22f4:	88 0f       	add	r24, r24
    22f6:	99 1f       	adc	r25, r25
    22f8:	aa 1f       	adc	r26, r26
    22fa:	bb 1f       	adc	r27, r27
    22fc:	48 0e       	add	r4, r24
    22fe:	59 1e       	adc	r5, r25
    2300:	6a 1e       	adc	r6, r26
    2302:	7b 1e       	adc	r7, r27
    2304:	e0 e8       	ldi	r30, 0x80	; 128
    2306:	4e 0e       	add	r4, r30
    2308:	51 1c       	adc	r5, r1
    230a:	61 1c       	adc	r6, r1
    230c:	71 1c       	adc	r7, r1
    230e:	45 2c       	mov	r4, r5
    2310:	56 2c       	mov	r5, r6
    2312:	67 2c       	mov	r6, r7
    2314:	77 24       	eor	r7, r7
    2316:	67 fc       	sbrc	r6, 7
    2318:	7a 94       	dec	r7
	
    if( at_int && at_fract ) {
    231a:	20 97       	sbiw	r28, 0x00	; 0
    231c:	b1 f0       	breq	.+44     	; 0x234a <bmpe280_read_temp+0x160>
    231e:	01 15       	cp	r16, r1
    2320:	11 05       	cpc	r17, r1
    2322:	a9 f0       	breq	.+42     	; 0x234e <bmpe280_read_temp+0x164>
    	*at_int = adc_T / 100;
    2324:	c3 01       	movw	r24, r6
    2326:	b2 01       	movw	r22, r4
    2328:	24 e6       	ldi	r18, 0x64	; 100
    232a:	30 e0       	ldi	r19, 0x00	; 0
    232c:	40 e0       	ldi	r20, 0x00	; 0
    232e:	50 e0       	ldi	r21, 0x00	; 0
    2330:	0e 94 17 1a 	call	0x342e	; 0x342e <__divmodsi4>
    2334:	28 83       	st	Y, r18
    	*at_fract = adc_T - (*at_int*100);	
    2336:	f4 e6       	ldi	r31, 0x64	; 100
    2338:	2f 9f       	mul	r18, r31
    233a:	40 18       	sub	r4, r0
    233c:	11 24       	eor	r1, r1
    233e:	f8 01       	movw	r30, r16
    2340:	40 82       	st	Z, r4
    }
	return 0;
    2342:	80 e0       	ldi	r24, 0x00	; 0
    2344:	05 c0       	rjmp	.+10     	; 0x2350 <bmpe280_read_temp+0x166>


    int32_t adc_T = bmpe280_read_3bytes( BME280_REGISTER_TEMPDATA );

    if (adc_T == 0x800000) // ERROR if temperature measurement was disabled
        return 0xFF;
    2346:	8f ef       	ldi	r24, 0xFF	; 255
    2348:	03 c0       	rjmp	.+6      	; 0x2350 <bmpe280_read_temp+0x166>
	
    if( at_int && at_fract ) {
    	*at_int = adc_T / 100;
    	*at_fract = adc_T - (*at_int*100);	
    }
	return 0;
    234a:	80 e0       	ldi	r24, 0x00	; 0
    234c:	01 c0       	rjmp	.+2      	; 0x2350 <bmpe280_read_temp+0x166>
    234e:	80 e0       	ldi	r24, 0x00	; 0
}
    2350:	df 91       	pop	r29
    2352:	cf 91       	pop	r28
    2354:	1f 91       	pop	r17
    2356:	0f 91       	pop	r16
    2358:	ff 90       	pop	r15
    235a:	ef 90       	pop	r14
    235c:	df 90       	pop	r13
    235e:	cf 90       	pop	r12
    2360:	bf 90       	pop	r11
    2362:	af 90       	pop	r10
    2364:	9f 90       	pop	r9
    2366:	8f 90       	pop	r8
    2368:	7f 90       	pop	r7
    236a:	6f 90       	pop	r6
    236c:	5f 90       	pop	r5
    236e:	4f 90       	pop	r4
    2370:	08 95       	ret

00002372 <bmpe280_read_pressure>:



uint32_t bmpe280_read_pressure( uint16_t * hp_int, uint8_t * hp_fract ) {
    2372:	2f 92       	push	r2
    2374:	3f 92       	push	r3
    2376:	4f 92       	push	r4
    2378:	5f 92       	push	r5
    237a:	6f 92       	push	r6
    237c:	7f 92       	push	r7
    237e:	8f 92       	push	r8
    2380:	9f 92       	push	r9
    2382:	af 92       	push	r10
    2384:	bf 92       	push	r11
    2386:	cf 92       	push	r12
    2388:	df 92       	push	r13
    238a:	ef 92       	push	r14
    238c:	ff 92       	push	r15
    238e:	0f 93       	push	r16
    2390:	1f 93       	push	r17
    2392:	cf 93       	push	r28
    2394:	df 93       	push	r29
    2396:	cd b7       	in	r28, 0x3d	; 61
    2398:	de b7       	in	r29, 0x3e	; 62
    239a:	6c 97       	sbiw	r28, 0x1c	; 28
    239c:	0f b6       	in	r0, 0x3f	; 63
    239e:	f8 94       	cli
    23a0:	de bf       	out	0x3e, r29	; 62
    23a2:	0f be       	out	0x3f, r0	; 63
    23a4:	cd bf       	out	0x3d, r28	; 61
    23a6:	9a 8b       	std	Y+18, r25	; 0x12
    23a8:	89 8b       	std	Y+17, r24	; 0x11
    23aa:	7c 8b       	std	Y+20, r23	; 0x14
    23ac:	6b 8b       	std	Y+19, r22	; 0x13


    int64_t var1, var2, p;

    bmpe280_read_temp( 0, 0 );
    23ae:	60 e0       	ldi	r22, 0x00	; 0
    23b0:	70 e0       	ldi	r23, 0x00	; 0
    23b2:	80 e0       	ldi	r24, 0x00	; 0
    23b4:	90 e0       	ldi	r25, 0x00	; 0
    23b6:	0e 94 f5 10 	call	0x21ea	; 0x21ea <bmpe280_read_temp>

    int32_t adc_P = bmpe280_read_3bytes( BME280_REGISTER_PRESSUREDATA );
    23ba:	87 ef       	ldi	r24, 0xF7	; 247
    23bc:	0e 94 5c 10 	call	0x20b8	; 0x20b8 <bmpe280_read_3bytes>
    if (adc_P == 0x800000) // ERROR if pressure measurement was disabled
    23c0:	61 15       	cp	r22, r1
    23c2:	71 05       	cpc	r23, r1
    23c4:	20 e8       	ldi	r18, 0x80	; 128
    23c6:	82 07       	cpc	r24, r18
    23c8:	91 05       	cpc	r25, r1
    23ca:	09 f4       	brne	.+2      	; 0x23ce <bmpe280_read_pressure+0x5c>
    23cc:	7d c2       	rjmp	.+1274   	; 0x28c8 <bmpe280_read_pressure+0x556>
        return 0xFF;
    adc_P >>= 4;
    23ce:	9b 01       	movw	r18, r22
    23d0:	ac 01       	movw	r20, r24
    23d2:	68 94       	set
    23d4:	13 f8       	bld	r1, 3
    23d6:	55 95       	asr	r21
    23d8:	47 95       	ror	r20
    23da:	37 95       	ror	r19
    23dc:	27 95       	ror	r18
    23de:	16 94       	lsr	r1
    23e0:	d1 f7       	brne	.-12     	; 0x23d6 <bmpe280_read_pressure+0x64>
    23e2:	2d 8b       	std	Y+21, r18	; 0x15
    23e4:	3e 8b       	std	Y+22, r19	; 0x16
    23e6:	4f 8b       	std	Y+23, r20	; 0x17
    23e8:	58 8f       	std	Y+24, r21	; 0x18

    var1 = ((int64_t)tmp_temperature) - 128000ul;
    23ea:	80 91 85 03 	lds	r24, 0x0385	; 0x800385 <tmp_temperature>
    23ee:	90 91 86 03 	lds	r25, 0x0386	; 0x800386 <tmp_temperature+0x1>
    23f2:	a0 91 87 03 	lds	r26, 0x0387	; 0x800387 <tmp_temperature+0x2>
    23f6:	b0 91 88 03 	lds	r27, 0x0388	; 0x800388 <tmp_temperature+0x3>
    23fa:	6c 01       	movw	r12, r24
    23fc:	7d 01       	movw	r14, r26
    23fe:	ff 0c       	add	r15, r15
    2400:	cc 08       	sbc	r12, r12
    2402:	dc 2c       	mov	r13, r12
    2404:	76 01       	movw	r14, r12
    2406:	28 2f       	mov	r18, r24
    2408:	39 2f       	mov	r19, r25
    240a:	4a 2f       	mov	r20, r26
    240c:	5b 2f       	mov	r21, r27
    240e:	6c 2d       	mov	r22, r12
    2410:	7c 2d       	mov	r23, r12
    2412:	8c 2d       	mov	r24, r12
    2414:	9c 2d       	mov	r25, r12
    2416:	34 5f       	subi	r19, 0xF4	; 244
    2418:	41 40       	sbci	r20, 0x01	; 1
    241a:	51 09       	sbc	r21, r1
    241c:	61 09       	sbc	r22, r1
    241e:	71 09       	sbc	r23, r1
    2420:	81 09       	sbc	r24, r1
    2422:	91 09       	sbc	r25, r1
    2424:	29 83       	std	Y+1, r18	; 0x01
    2426:	3a 83       	std	Y+2, r19	; 0x02
    2428:	4b 83       	std	Y+3, r20	; 0x03
    242a:	5c 83       	std	Y+4, r21	; 0x04
    242c:	26 2e       	mov	r2, r22
    242e:	37 2e       	mov	r3, r23
    2430:	48 2e       	mov	r4, r24
    2432:	59 2e       	mov	r5, r25
    var2 = var1 * var1 * (int64_t)bmpe_calib.P6;
    2434:	a2 2e       	mov	r10, r18
    2436:	b3 2e       	mov	r11, r19
    2438:	c4 2e       	mov	r12, r20
    243a:	d5 2e       	mov	r13, r21
    243c:	e6 2e       	mov	r14, r22
    243e:	f7 2e       	mov	r15, r23
    2440:	08 2f       	mov	r16, r24
    2442:	19 2f       	mov	r17, r25
    2444:	0e 94 4f 1a 	call	0x349e	; 0x349e <__muldi3>
    2448:	2d 83       	std	Y+5, r18	; 0x05
    244a:	3e 83       	std	Y+6, r19	; 0x06
    244c:	4f 83       	std	Y+7, r20	; 0x07
    244e:	58 87       	std	Y+8, r21	; 0x08
    2450:	69 87       	std	Y+9, r22	; 0x09
    2452:	7a 87       	std	Y+10, r23	; 0x0a
    2454:	8b 87       	std	Y+11, r24	; 0x0b
    2456:	9c 87       	std	Y+12, r25	; 0x0c
    2458:	b0 90 75 03 	lds	r11, 0x0375	; 0x800375 <bmpe_calib+0x11>
    245c:	a0 90 74 03 	lds	r10, 0x0374	; 0x800374 <bmpe_calib+0x10>
    2460:	1b 2d       	mov	r17, r11
    2462:	11 0f       	add	r17, r17
    2464:	11 0b       	sbc	r17, r17
    2466:	c1 2e       	mov	r12, r17
    2468:	d1 2e       	mov	r13, r17
    246a:	e1 2e       	mov	r14, r17
    246c:	f1 2e       	mov	r15, r17
    246e:	01 2f       	mov	r16, r17
    2470:	0e 94 4f 1a 	call	0x349e	; 0x349e <__muldi3>
    2474:	2d 87       	std	Y+13, r18	; 0x0d
    2476:	3e 87       	std	Y+14, r19	; 0x0e
    2478:	4f 87       	std	Y+15, r20	; 0x0f
    247a:	58 8b       	std	Y+16, r21	; 0x10
    247c:	66 2e       	mov	r6, r22
    247e:	77 2e       	mov	r7, r23
    2480:	88 2e       	mov	r8, r24
    2482:	99 2e       	mov	r9, r25
    var2 = var2 + ((var1*(int64_t)bmpe_calib.P5)<<17);
    2484:	b0 90 73 03 	lds	r11, 0x0373	; 0x800373 <bmpe_calib+0xf>
    2488:	a0 90 72 03 	lds	r10, 0x0372	; 0x800372 <bmpe_calib+0xe>
    248c:	1b 2d       	mov	r17, r11
    248e:	11 0f       	add	r17, r17
    2490:	11 0b       	sbc	r17, r17
    2492:	c1 2e       	mov	r12, r17
    2494:	d1 2e       	mov	r13, r17
    2496:	e1 2e       	mov	r14, r17
    2498:	f1 2e       	mov	r15, r17
    249a:	01 2f       	mov	r16, r17
    249c:	29 81       	ldd	r18, Y+1	; 0x01
    249e:	3a 81       	ldd	r19, Y+2	; 0x02
    24a0:	4b 81       	ldd	r20, Y+3	; 0x03
    24a2:	5c 81       	ldd	r21, Y+4	; 0x04
    24a4:	62 2d       	mov	r22, r2
    24a6:	73 2d       	mov	r23, r3
    24a8:	84 2d       	mov	r24, r4
    24aa:	95 2d       	mov	r25, r5
    24ac:	0e 94 4f 1a 	call	0x349e	; 0x349e <__muldi3>
    24b0:	01 e1       	ldi	r16, 0x11	; 17
    24b2:	0e 94 7f 1b 	call	0x36fe	; 0x36fe <__ashldi3>
    24b6:	a2 2e       	mov	r10, r18
    24b8:	b3 2e       	mov	r11, r19
    24ba:	c4 2e       	mov	r12, r20
    24bc:	d5 2e       	mov	r13, r21
    24be:	e6 2e       	mov	r14, r22
    24c0:	f7 2e       	mov	r15, r23
    24c2:	08 2f       	mov	r16, r24
    24c4:	19 2f       	mov	r17, r25
    24c6:	2d 85       	ldd	r18, Y+13	; 0x0d
    24c8:	3e 85       	ldd	r19, Y+14	; 0x0e
    24ca:	4f 85       	ldd	r20, Y+15	; 0x0f
    24cc:	58 89       	ldd	r21, Y+16	; 0x10
    24ce:	66 2d       	mov	r22, r6
    24d0:	77 2d       	mov	r23, r7
    24d2:	88 2d       	mov	r24, r8
    24d4:	99 2d       	mov	r25, r9
    24d6:	0e 94 b6 1b 	call	0x376c	; 0x376c <__adddi3>
    24da:	62 2e       	mov	r6, r18
    24dc:	73 2e       	mov	r7, r19
    24de:	84 2e       	mov	r8, r20
    24e0:	95 2e       	mov	r9, r21
    24e2:	b6 2f       	mov	r27, r22
    24e4:	a7 2f       	mov	r26, r23
    24e6:	f8 2f       	mov	r31, r24
    24e8:	e9 2f       	mov	r30, r25
    var2 = var2 + (((int64_t)bmpe_calib.P4)<<35);
    24ea:	30 91 71 03 	lds	r19, 0x0371	; 0x800371 <bmpe_calib+0xd>
    24ee:	20 91 70 03 	lds	r18, 0x0370	; 0x800370 <bmpe_calib+0xc>
    24f2:	93 2f       	mov	r25, r19
    24f4:	99 0f       	add	r25, r25
    24f6:	99 0b       	sbc	r25, r25
    24f8:	49 2f       	mov	r20, r25
    24fa:	59 2f       	mov	r21, r25
    24fc:	69 2f       	mov	r22, r25
    24fe:	79 2f       	mov	r23, r25
    2500:	89 2f       	mov	r24, r25
    2502:	03 e2       	ldi	r16, 0x23	; 35
    2504:	0e 94 7f 1b 	call	0x36fe	; 0x36fe <__ashldi3>
    2508:	a2 2e       	mov	r10, r18
    250a:	b3 2e       	mov	r11, r19
    250c:	c4 2e       	mov	r12, r20
    250e:	d5 2e       	mov	r13, r21
    2510:	e6 2e       	mov	r14, r22
    2512:	f7 2e       	mov	r15, r23
    2514:	08 2f       	mov	r16, r24
    2516:	19 2f       	mov	r17, r25
    2518:	26 2d       	mov	r18, r6
    251a:	37 2d       	mov	r19, r7
    251c:	48 2d       	mov	r20, r8
    251e:	59 2d       	mov	r21, r9
    2520:	6b 2f       	mov	r22, r27
    2522:	7a 2f       	mov	r23, r26
    2524:	8f 2f       	mov	r24, r31
    2526:	9e 2f       	mov	r25, r30
    2528:	0e 94 b6 1b 	call	0x376c	; 0x376c <__adddi3>
    252c:	2d 87       	std	Y+13, r18	; 0x0d
    252e:	3e 87       	std	Y+14, r19	; 0x0e
    2530:	4f 87       	std	Y+15, r20	; 0x0f
    2532:	58 8b       	std	Y+16, r21	; 0x10
    2534:	69 8f       	std	Y+25, r22	; 0x19
    2536:	7a 8f       	std	Y+26, r23	; 0x1a
    2538:	8b 8f       	std	Y+27, r24	; 0x1b
    253a:	9c 8f       	std	Y+28, r25	; 0x1c
    var1 = ((var1 * var1 * (int64_t)bmpe_calib.P3)>>8) +
    253c:	b0 90 6f 03 	lds	r11, 0x036F	; 0x80036f <bmpe_calib+0xb>
    2540:	a0 90 6e 03 	lds	r10, 0x036E	; 0x80036e <bmpe_calib+0xa>
    2544:	1b 2d       	mov	r17, r11
    2546:	11 0f       	add	r17, r17
    2548:	11 0b       	sbc	r17, r17
    254a:	c1 2e       	mov	r12, r17
    254c:	d1 2e       	mov	r13, r17
    254e:	e1 2e       	mov	r14, r17
    2550:	f1 2e       	mov	r15, r17
    2552:	01 2f       	mov	r16, r17
    2554:	2d 81       	ldd	r18, Y+5	; 0x05
    2556:	3e 81       	ldd	r19, Y+6	; 0x06
    2558:	4f 81       	ldd	r20, Y+7	; 0x07
    255a:	58 85       	ldd	r21, Y+8	; 0x08
    255c:	69 85       	ldd	r22, Y+9	; 0x09
    255e:	7a 85       	ldd	r23, Y+10	; 0x0a
    2560:	8b 85       	ldd	r24, Y+11	; 0x0b
    2562:	9c 85       	ldd	r25, Y+12	; 0x0c
    2564:	0e 94 4f 1a 	call	0x349e	; 0x349e <__muldi3>
    2568:	08 e0       	ldi	r16, 0x08	; 8
    256a:	0e 94 98 1b 	call	0x3730	; 0x3730 <__ashrdi3>
    256e:	2d 83       	std	Y+5, r18	; 0x05
    2570:	3e 83       	std	Y+6, r19	; 0x06
    2572:	4f 83       	std	Y+7, r20	; 0x07
    2574:	58 87       	std	Y+8, r21	; 0x08
    2576:	66 2e       	mov	r6, r22
    2578:	77 2e       	mov	r7, r23
    257a:	88 2e       	mov	r8, r24
    257c:	99 2e       	mov	r9, r25
    ((var1 * (int64_t)bmpe_calib.P2)<<12);
    257e:	b0 90 6d 03 	lds	r11, 0x036D	; 0x80036d <bmpe_calib+0x9>
    2582:	a0 90 6c 03 	lds	r10, 0x036C	; 0x80036c <bmpe_calib+0x8>
    2586:	1b 2d       	mov	r17, r11
    2588:	11 0f       	add	r17, r17
    258a:	11 0b       	sbc	r17, r17
    258c:	c1 2e       	mov	r12, r17
    258e:	d1 2e       	mov	r13, r17
    2590:	e1 2e       	mov	r14, r17
    2592:	f1 2e       	mov	r15, r17
    2594:	01 2f       	mov	r16, r17
    2596:	29 81       	ldd	r18, Y+1	; 0x01
    2598:	3a 81       	ldd	r19, Y+2	; 0x02
    259a:	4b 81       	ldd	r20, Y+3	; 0x03
    259c:	5c 81       	ldd	r21, Y+4	; 0x04
    259e:	62 2d       	mov	r22, r2
    25a0:	73 2d       	mov	r23, r3
    25a2:	84 2d       	mov	r24, r4
    25a4:	95 2d       	mov	r25, r5
    25a6:	0e 94 4f 1a 	call	0x349e	; 0x349e <__muldi3>
    25aa:	0c e0       	ldi	r16, 0x0C	; 12
    25ac:	0e 94 7f 1b 	call	0x36fe	; 0x36fe <__ashldi3>
    25b0:	a2 2e       	mov	r10, r18
    25b2:	b3 2e       	mov	r11, r19
    25b4:	c4 2e       	mov	r12, r20
    25b6:	d5 2e       	mov	r13, r21
    25b8:	e6 2e       	mov	r14, r22
    25ba:	f7 2e       	mov	r15, r23
    25bc:	08 2f       	mov	r16, r24
    25be:	19 2f       	mov	r17, r25

    var1 = ((int64_t)tmp_temperature) - 128000ul;
    var2 = var1 * var1 * (int64_t)bmpe_calib.P6;
    var2 = var2 + ((var1*(int64_t)bmpe_calib.P5)<<17);
    var2 = var2 + (((int64_t)bmpe_calib.P4)<<35);
    var1 = ((var1 * var1 * (int64_t)bmpe_calib.P3)>>8) +
    25c0:	2d 81       	ldd	r18, Y+5	; 0x05
    25c2:	3e 81       	ldd	r19, Y+6	; 0x06
    25c4:	4f 81       	ldd	r20, Y+7	; 0x07
    25c6:	58 85       	ldd	r21, Y+8	; 0x08
    25c8:	66 2d       	mov	r22, r6
    25ca:	77 2d       	mov	r23, r7
    25cc:	88 2d       	mov	r24, r8
    25ce:	99 2d       	mov	r25, r9
    25d0:	0e 94 b6 1b 	call	0x376c	; 0x376c <__adddi3>
    ((var1 * (int64_t)bmpe_calib.P2)<<12);
    var1 = (((((int64_t)1)<<47)+var1))*((int64_t)bmpe_calib.P1)>>33;
    25d4:	70 58       	subi	r23, 0x80	; 128
    25d6:	8f 4f       	sbci	r24, 0xFF	; 255
    25d8:	9f 4f       	sbci	r25, 0xFF	; 255
    25da:	20 90 6a 03 	lds	r2, 0x036A	; 0x80036a <bmpe_calib+0x6>
    25de:	30 90 6b 03 	lds	r3, 0x036B	; 0x80036b <bmpe_calib+0x7>
    25e2:	a2 2c       	mov	r10, r2
    25e4:	b3 2c       	mov	r11, r3
    25e6:	c1 2c       	mov	r12, r1
    25e8:	d1 2c       	mov	r13, r1
    25ea:	e1 2c       	mov	r14, r1
    25ec:	f1 2c       	mov	r15, r1
    25ee:	00 e0       	ldi	r16, 0x00	; 0
    25f0:	10 e0       	ldi	r17, 0x00	; 0
    25f2:	0e 94 4f 1a 	call	0x349e	; 0x349e <__muldi3>
    25f6:	01 e2       	ldi	r16, 0x21	; 33
    25f8:	0e 94 98 1b 	call	0x3730	; 0x3730 <__ashrdi3>
    25fc:	42 2e       	mov	r4, r18
    25fe:	53 2e       	mov	r5, r19
    2600:	64 2e       	mov	r6, r20
    2602:	75 2e       	mov	r7, r21
    2604:	86 2e       	mov	r8, r22
    2606:	97 2e       	mov	r9, r23
    2608:	8a 83       	std	Y+2, r24	; 0x02
    260a:	99 83       	std	Y+1, r25	; 0x01

    if (var1 == 0) {
    260c:	a0 e0       	ldi	r26, 0x00	; 0
    260e:	0e 94 c8 1b 	call	0x3790	; 0x3790 <__cmpdi2_s8>
    2612:	09 f4       	brne	.+2      	; 0x2616 <bmpe280_read_pressure+0x2a4>
    2614:	5e c1       	rjmp	.+700    	; 0x28d2 <bmpe280_read_pressure+0x560>
        return 0xff; // ERROR avoid exception caused by division by zero
    }
    p = 1048576ul - adc_P;
    2616:	80 e0       	ldi	r24, 0x00	; 0
    2618:	90 e0       	ldi	r25, 0x00	; 0
    261a:	a0 e1       	ldi	r26, 0x10	; 16
    261c:	b0 e0       	ldi	r27, 0x00	; 0
    261e:	2d 89       	ldd	r18, Y+21	; 0x15
    2620:	3e 89       	ldd	r19, Y+22	; 0x16
    2622:	4f 89       	ldd	r20, Y+23	; 0x17
    2624:	58 8d       	ldd	r21, Y+24	; 0x18
    2626:	82 1b       	sub	r24, r18
    2628:	93 0b       	sbc	r25, r19
    262a:	a4 0b       	sbc	r26, r20
    262c:	b5 0b       	sbc	r27, r21
    262e:	5c 01       	movw	r10, r24
    2630:	6d 01       	movw	r12, r26
    p = (((p<<31) - var2)*3125ul) / var1;
    2632:	28 2f       	mov	r18, r24
    2634:	3b 2d       	mov	r19, r11
    2636:	4c 2d       	mov	r20, r12
    2638:	5d 2d       	mov	r21, r13
    263a:	60 e0       	ldi	r22, 0x00	; 0
    263c:	70 e0       	ldi	r23, 0x00	; 0
    263e:	80 e0       	ldi	r24, 0x00	; 0
    2640:	90 e0       	ldi	r25, 0x00	; 0
    2642:	0f e1       	ldi	r16, 0x1F	; 31
    2644:	0e 94 7f 1b 	call	0x36fe	; 0x36fe <__ashldi3>
    2648:	ad 84       	ldd	r10, Y+13	; 0x0d
    264a:	be 84       	ldd	r11, Y+14	; 0x0e
    264c:	cf 84       	ldd	r12, Y+15	; 0x0f
    264e:	d8 88       	ldd	r13, Y+16	; 0x10
    2650:	e9 8c       	ldd	r14, Y+25	; 0x19
    2652:	fa 8c       	ldd	r15, Y+26	; 0x1a
    2654:	0b 8d       	ldd	r16, Y+27	; 0x1b
    2656:	1c 8d       	ldd	r17, Y+28	; 0x1c
    2658:	0e 94 bf 1b 	call	0x377e	; 0x377e <__subdi3>
    265c:	0f 2e       	mov	r0, r31
    265e:	f5 e3       	ldi	r31, 0x35	; 53
    2660:	af 2e       	mov	r10, r31
    2662:	f0 2d       	mov	r31, r0
    2664:	0f 2e       	mov	r0, r31
    2666:	fc e0       	ldi	r31, 0x0C	; 12
    2668:	bf 2e       	mov	r11, r31
    266a:	f0 2d       	mov	r31, r0
    266c:	c1 2c       	mov	r12, r1
    266e:	d1 2c       	mov	r13, r1
    2670:	e1 2c       	mov	r14, r1
    2672:	f1 2c       	mov	r15, r1
    2674:	00 e0       	ldi	r16, 0x00	; 0
    2676:	10 e0       	ldi	r17, 0x00	; 0
    2678:	0e 94 4f 1a 	call	0x349e	; 0x349e <__muldi3>
    267c:	a4 2c       	mov	r10, r4
    267e:	b5 2c       	mov	r11, r5
    2680:	c6 2c       	mov	r12, r6
    2682:	d7 2c       	mov	r13, r7
    2684:	e8 2c       	mov	r14, r8
    2686:	f9 2c       	mov	r15, r9
    2688:	0a 81       	ldd	r16, Y+2	; 0x02
    268a:	19 81       	ldd	r17, Y+1	; 0x01
    268c:	0e 94 aa 1a 	call	0x3554	; 0x3554 <__divdi3>
    2690:	29 83       	std	Y+1, r18	; 0x01
    2692:	3a 83       	std	Y+2, r19	; 0x02
    2694:	4b 83       	std	Y+3, r20	; 0x03
    2696:	5c 83       	std	Y+4, r21	; 0x04
    2698:	6d 83       	std	Y+5, r22	; 0x05
    269a:	7e 83       	std	Y+6, r23	; 0x06
    269c:	8f 83       	std	Y+7, r24	; 0x07
    269e:	98 87       	std	Y+8, r25	; 0x08
    var1 = (((int64_t)bmpe_calib.P9) * (p>>13) * (p>>13)) >> 25;
    26a0:	f0 91 7b 03 	lds	r31, 0x037B	; 0x80037b <bmpe_calib+0x17>
    26a4:	a0 91 7a 03 	lds	r26, 0x037A	; 0x80037a <bmpe_calib+0x16>
    26a8:	ef 2f       	mov	r30, r31
    26aa:	ee 0f       	add	r30, r30
    26ac:	ee 0b       	sbc	r30, r30
    26ae:	0d e0       	ldi	r16, 0x0D	; 13
    26b0:	0e 94 98 1b 	call	0x3730	; 0x3730 <__ashrdi3>
    26b4:	22 2e       	mov	r2, r18
    26b6:	33 2e       	mov	r3, r19
    26b8:	44 2e       	mov	r4, r20
    26ba:	55 2e       	mov	r5, r21
    26bc:	66 2e       	mov	r6, r22
    26be:	77 2e       	mov	r7, r23
    26c0:	88 2e       	mov	r8, r24
    26c2:	99 2e       	mov	r9, r25
    26c4:	a2 2e       	mov	r10, r18
    26c6:	b3 2e       	mov	r11, r19
    26c8:	c4 2e       	mov	r12, r20
    26ca:	d5 2e       	mov	r13, r21
    26cc:	e6 2e       	mov	r14, r22
    26ce:	f7 2e       	mov	r15, r23
    26d0:	08 2f       	mov	r16, r24
    26d2:	19 2f       	mov	r17, r25
    26d4:	2a 2f       	mov	r18, r26
    26d6:	3f 2f       	mov	r19, r31
    26d8:	4e 2f       	mov	r20, r30
    26da:	5e 2f       	mov	r21, r30
    26dc:	6e 2f       	mov	r22, r30
    26de:	7e 2f       	mov	r23, r30
    26e0:	8e 2f       	mov	r24, r30
    26e2:	9e 2f       	mov	r25, r30
    26e4:	0e 94 4f 1a 	call	0x349e	; 0x349e <__muldi3>
    26e8:	a2 2e       	mov	r10, r18
    26ea:	b3 2e       	mov	r11, r19
    26ec:	c4 2e       	mov	r12, r20
    26ee:	d5 2e       	mov	r13, r21
    26f0:	e6 2e       	mov	r14, r22
    26f2:	f7 2e       	mov	r15, r23
    26f4:	08 2f       	mov	r16, r24
    26f6:	19 2f       	mov	r17, r25
    26f8:	22 2d       	mov	r18, r2
    26fa:	33 2d       	mov	r19, r3
    26fc:	44 2d       	mov	r20, r4
    26fe:	55 2d       	mov	r21, r5
    2700:	66 2d       	mov	r22, r6
    2702:	77 2d       	mov	r23, r7
    2704:	88 2d       	mov	r24, r8
    2706:	99 2d       	mov	r25, r9
    2708:	0e 94 4f 1a 	call	0x349e	; 0x349e <__muldi3>
    270c:	09 e1       	ldi	r16, 0x19	; 25
    270e:	0e 94 98 1b 	call	0x3730	; 0x3730 <__ashrdi3>
    2712:	52 2e       	mov	r5, r18
    2714:	43 2e       	mov	r4, r19
    2716:	34 2e       	mov	r3, r20
    2718:	25 2e       	mov	r2, r21
    271a:	69 87       	std	Y+9, r22	; 0x09
    271c:	7a 87       	std	Y+10, r23	; 0x0a
    271e:	8b 87       	std	Y+11, r24	; 0x0b
    2720:	9c 87       	std	Y+12, r25	; 0x0c
    var2 = (((int64_t)bmpe_calib.P8) * p) >> 19;
    2722:	b0 90 79 03 	lds	r11, 0x0379	; 0x800379 <bmpe_calib+0x15>
    2726:	a0 90 78 03 	lds	r10, 0x0378	; 0x800378 <bmpe_calib+0x14>
    272a:	1b 2d       	mov	r17, r11
    272c:	11 0f       	add	r17, r17
    272e:	11 0b       	sbc	r17, r17
    2730:	c1 2e       	mov	r12, r17
    2732:	d1 2e       	mov	r13, r17
    2734:	e1 2e       	mov	r14, r17
    2736:	f1 2e       	mov	r15, r17
    2738:	01 2f       	mov	r16, r17
    273a:	29 81       	ldd	r18, Y+1	; 0x01
    273c:	3a 81       	ldd	r19, Y+2	; 0x02
    273e:	4b 81       	ldd	r20, Y+3	; 0x03
    2740:	5c 81       	ldd	r21, Y+4	; 0x04
    2742:	6d 81       	ldd	r22, Y+5	; 0x05
    2744:	7e 81       	ldd	r23, Y+6	; 0x06
    2746:	8f 81       	ldd	r24, Y+7	; 0x07
    2748:	98 85       	ldd	r25, Y+8	; 0x08
    274a:	0e 94 4f 1a 	call	0x349e	; 0x349e <__muldi3>
    274e:	03 e1       	ldi	r16, 0x13	; 19
    2750:	0e 94 98 1b 	call	0x3730	; 0x3730 <__ashrdi3>
    2754:	62 2e       	mov	r6, r18
    2756:	73 2e       	mov	r7, r19
    2758:	84 2e       	mov	r8, r20
    275a:	95 2e       	mov	r9, r21
    275c:	b6 2f       	mov	r27, r22
    275e:	a7 2f       	mov	r26, r23
    2760:	f8 2f       	mov	r31, r24
    2762:	e9 2f       	mov	r30, r25

    p = ((p + var1 + var2) >> 8) + (((int64_t)bmpe_calib.P7)<<4);
    2764:	29 81       	ldd	r18, Y+1	; 0x01
    2766:	3a 81       	ldd	r19, Y+2	; 0x02
    2768:	4b 81       	ldd	r20, Y+3	; 0x03
    276a:	5c 81       	ldd	r21, Y+4	; 0x04
    276c:	6d 81       	ldd	r22, Y+5	; 0x05
    276e:	7e 81       	ldd	r23, Y+6	; 0x06
    2770:	8f 81       	ldd	r24, Y+7	; 0x07
    2772:	98 85       	ldd	r25, Y+8	; 0x08
    2774:	a5 2c       	mov	r10, r5
    2776:	b4 2c       	mov	r11, r4
    2778:	c3 2c       	mov	r12, r3
    277a:	d2 2c       	mov	r13, r2
    277c:	e9 84       	ldd	r14, Y+9	; 0x09
    277e:	fa 84       	ldd	r15, Y+10	; 0x0a
    2780:	0b 85       	ldd	r16, Y+11	; 0x0b
    2782:	1c 85       	ldd	r17, Y+12	; 0x0c
    2784:	0e 94 b6 1b 	call	0x376c	; 0x376c <__adddi3>
    2788:	a2 2e       	mov	r10, r18
    278a:	b3 2e       	mov	r11, r19
    278c:	c4 2e       	mov	r12, r20
    278e:	d5 2e       	mov	r13, r21
    2790:	e6 2e       	mov	r14, r22
    2792:	f7 2e       	mov	r15, r23
    2794:	08 2f       	mov	r16, r24
    2796:	19 2f       	mov	r17, r25
    2798:	26 2d       	mov	r18, r6
    279a:	37 2d       	mov	r19, r7
    279c:	48 2d       	mov	r20, r8
    279e:	59 2d       	mov	r21, r9
    27a0:	6b 2f       	mov	r22, r27
    27a2:	7a 2f       	mov	r23, r26
    27a4:	8f 2f       	mov	r24, r31
    27a6:	9e 2f       	mov	r25, r30
    27a8:	0e 94 b6 1b 	call	0x376c	; 0x376c <__adddi3>
    27ac:	08 e0       	ldi	r16, 0x08	; 8
    27ae:	0e 94 98 1b 	call	0x3730	; 0x3730 <__ashrdi3>
    27b2:	82 2e       	mov	r8, r18
    27b4:	93 2e       	mov	r9, r19
    27b6:	64 2e       	mov	r6, r20
    27b8:	75 2e       	mov	r7, r21
    27ba:	b6 2f       	mov	r27, r22
    27bc:	a7 2f       	mov	r26, r23
    27be:	f8 2f       	mov	r31, r24
    27c0:	e9 2f       	mov	r30, r25
    27c2:	30 91 77 03 	lds	r19, 0x0377	; 0x800377 <bmpe_calib+0x13>
    27c6:	20 91 76 03 	lds	r18, 0x0376	; 0x800376 <bmpe_calib+0x12>
    27ca:	93 2f       	mov	r25, r19
    27cc:	99 0f       	add	r25, r25
    27ce:	99 0b       	sbc	r25, r25
    27d0:	49 2f       	mov	r20, r25
    27d2:	59 2f       	mov	r21, r25
    27d4:	69 2f       	mov	r22, r25
    27d6:	79 2f       	mov	r23, r25
    27d8:	89 2f       	mov	r24, r25
    27da:	04 e0       	ldi	r16, 0x04	; 4
    27dc:	0e 94 7f 1b 	call	0x36fe	; 0x36fe <__ashldi3>
    27e0:	a2 2e       	mov	r10, r18
    27e2:	b3 2e       	mov	r11, r19
    27e4:	c4 2e       	mov	r12, r20
    27e6:	d5 2e       	mov	r13, r21
    27e8:	e6 2e       	mov	r14, r22
    27ea:	f7 2e       	mov	r15, r23
    27ec:	08 2f       	mov	r16, r24
    27ee:	19 2f       	mov	r17, r25
    27f0:	28 2d       	mov	r18, r8
    27f2:	39 2d       	mov	r19, r9
    27f4:	46 2d       	mov	r20, r6
    27f6:	57 2d       	mov	r21, r7
    27f8:	6b 2f       	mov	r22, r27
    27fa:	7a 2f       	mov	r23, r26
    27fc:	8f 2f       	mov	r24, r31
    27fe:	9e 2f       	mov	r25, r30
    2800:	0e 94 b6 1b 	call	0x376c	; 0x376c <__adddi3>
    2804:	2d 83       	std	Y+5, r18	; 0x05
    2806:	3c 83       	std	Y+4, r19	; 0x04
    2808:	b4 2f       	mov	r27, r20
    280a:	f5 2f       	mov	r31, r21
    280c:	e6 2f       	mov	r30, r22
    280e:	79 83       	std	Y+1, r23	; 0x01
    2810:	8a 83       	std	Y+2, r24	; 0x02
    2812:	9b 83       	std	Y+3, r25	; 0x03

    p /= 256ul;
    2814:	c2 2e       	mov	r12, r18
    2816:	d3 2e       	mov	r13, r19
    2818:	e4 2e       	mov	r14, r20
    281a:	f5 2e       	mov	r15, r21
    281c:	06 2f       	mov	r16, r22
    281e:	17 2f       	mov	r17, r23
    2820:	a8 2e       	mov	r10, r24
    2822:	b9 2e       	mov	r11, r25
    2824:	a0 e0       	ldi	r26, 0x00	; 0
    2826:	0e 94 c8 1b 	call	0x3790	; 0x3790 <__cmpdi2_s8>
    282a:	84 f4       	brge	.+32     	; 0x284c <bmpe280_read_pressure+0x4da>
    282c:	21 50       	subi	r18, 0x01	; 1
    282e:	3f 4f       	sbci	r19, 0xFF	; 255
    2830:	4f 4f       	sbci	r20, 0xFF	; 255
    2832:	5f 4f       	sbci	r21, 0xFF	; 255
    2834:	6f 4f       	sbci	r22, 0xFF	; 255
    2836:	7f 4f       	sbci	r23, 0xFF	; 255
    2838:	8f 4f       	sbci	r24, 0xFF	; 255
    283a:	9f 4f       	sbci	r25, 0xFF	; 255
    283c:	c2 2e       	mov	r12, r18
    283e:	d3 2e       	mov	r13, r19
    2840:	e4 2e       	mov	r14, r20
    2842:	f5 2e       	mov	r15, r21
    2844:	06 2f       	mov	r16, r22
    2846:	17 2f       	mov	r17, r23
    2848:	a8 2e       	mov	r10, r24
    284a:	b9 2e       	mov	r11, r25
    284c:	2c 2d       	mov	r18, r12
    284e:	3d 2d       	mov	r19, r13
    2850:	4e 2d       	mov	r20, r14
    2852:	5f 2d       	mov	r21, r15
    2854:	60 2f       	mov	r22, r16
    2856:	71 2f       	mov	r23, r17
    2858:	8a 2d       	mov	r24, r10
    285a:	9b 2d       	mov	r25, r11
    285c:	08 e0       	ldi	r16, 0x08	; 8
    285e:	0e 94 98 1b 	call	0x3730	; 0x3730 <__ashrdi3>
    2862:	22 2e       	mov	r2, r18
    2864:	33 2e       	mov	r3, r19
    2866:	44 2e       	mov	r4, r20
    2868:	55 2e       	mov	r5, r21

    if( hp_int && hp_fract ) {
    286a:	49 89       	ldd	r20, Y+17	; 0x11
    286c:	5a 89       	ldd	r21, Y+18	; 0x12
    286e:	45 2b       	or	r20, r21
    2870:	31 f1       	breq	.+76     	; 0x28be <bmpe280_read_pressure+0x54c>
    2872:	8b 89       	ldd	r24, Y+19	; 0x13
    2874:	9c 89       	ldd	r25, Y+20	; 0x14
    2876:	89 2b       	or	r24, r25
    2878:	11 f1       	breq	.+68     	; 0x28be <bmpe280_read_pressure+0x54c>
    	*hp_int = p/100ul;
    287a:	a1 2c       	mov	r10, r1
    287c:	0f 2e       	mov	r0, r31
    287e:	f4 e6       	ldi	r31, 0x64	; 100
    2880:	bf 2e       	mov	r11, r31
    2882:	f0 2d       	mov	r31, r0
    2884:	c1 2c       	mov	r12, r1
    2886:	d1 2c       	mov	r13, r1
    2888:	e1 2c       	mov	r14, r1
    288a:	f1 2c       	mov	r15, r1
    288c:	00 e0       	ldi	r16, 0x00	; 0
    288e:	10 e0       	ldi	r17, 0x00	; 0
    2890:	2d 81       	ldd	r18, Y+5	; 0x05
    2892:	3c 81       	ldd	r19, Y+4	; 0x04
    2894:	4b 2f       	mov	r20, r27
    2896:	5f 2f       	mov	r21, r31
    2898:	6e 2f       	mov	r22, r30
    289a:	79 81       	ldd	r23, Y+1	; 0x01
    289c:	8a 81       	ldd	r24, Y+2	; 0x02
    289e:	9b 81       	ldd	r25, Y+3	; 0x03
    28a0:	0e 94 aa 1a 	call	0x3554	; 0x3554 <__divdi3>
    28a4:	82 2f       	mov	r24, r18
    28a6:	e9 89       	ldd	r30, Y+17	; 0x11
    28a8:	fa 89       	ldd	r31, Y+18	; 0x12
    28aa:	20 83       	st	Z, r18
    28ac:	31 83       	std	Z+1, r19	; 0x01
    	*hp_fract = p - (*hp_int*100);
    28ae:	22 2d       	mov	r18, r2
    28b0:	f4 e6       	ldi	r31, 0x64	; 100
    28b2:	8f 9f       	mul	r24, r31
    28b4:	20 19       	sub	r18, r0
    28b6:	11 24       	eor	r1, r1
    28b8:	eb 89       	ldd	r30, Y+19	; 0x13
    28ba:	fc 89       	ldd	r31, Y+20	; 0x14
    28bc:	20 83       	st	Z, r18
    }

    return (p<<8);	// OK
    28be:	94 2d       	mov	r25, r4
    28c0:	83 2d       	mov	r24, r3
    28c2:	72 2d       	mov	r23, r2
    28c4:	66 27       	eor	r22, r22
    28c6:	09 c0       	rjmp	.+18     	; 0x28da <bmpe280_read_pressure+0x568>

    bmpe280_read_temp( 0, 0 );

    int32_t adc_P = bmpe280_read_3bytes( BME280_REGISTER_PRESSUREDATA );
    if (adc_P == 0x800000) // ERROR if pressure measurement was disabled
        return 0xFF;
    28c8:	6f ef       	ldi	r22, 0xFF	; 255
    28ca:	70 e0       	ldi	r23, 0x00	; 0
    28cc:	80 e0       	ldi	r24, 0x00	; 0
    28ce:	90 e0       	ldi	r25, 0x00	; 0
    28d0:	04 c0       	rjmp	.+8      	; 0x28da <bmpe280_read_pressure+0x568>
    var1 = ((var1 * var1 * (int64_t)bmpe_calib.P3)>>8) +
    ((var1 * (int64_t)bmpe_calib.P2)<<12);
    var1 = (((((int64_t)1)<<47)+var1))*((int64_t)bmpe_calib.P1)>>33;

    if (var1 == 0) {
        return 0xff; // ERROR avoid exception caused by division by zero
    28d2:	6f ef       	ldi	r22, 0xFF	; 255
    28d4:	70 e0       	ldi	r23, 0x00	; 0
    28d6:	80 e0       	ldi	r24, 0x00	; 0
    28d8:	90 e0       	ldi	r25, 0x00	; 0
    	*hp_fract = p - (*hp_int*100);
    }

    return (p<<8);	// OK

}
    28da:	6c 96       	adiw	r28, 0x1c	; 28
    28dc:	0f b6       	in	r0, 0x3f	; 63
    28de:	f8 94       	cli
    28e0:	de bf       	out	0x3e, r29	; 62
    28e2:	0f be       	out	0x3f, r0	; 63
    28e4:	cd bf       	out	0x3d, r28	; 61
    28e6:	df 91       	pop	r29
    28e8:	cf 91       	pop	r28
    28ea:	1f 91       	pop	r17
    28ec:	0f 91       	pop	r16
    28ee:	ff 90       	pop	r15
    28f0:	ef 90       	pop	r14
    28f2:	df 90       	pop	r13
    28f4:	cf 90       	pop	r12
    28f6:	bf 90       	pop	r11
    28f8:	af 90       	pop	r10
    28fa:	9f 90       	pop	r9
    28fc:	8f 90       	pop	r8
    28fe:	7f 90       	pop	r7
    2900:	6f 90       	pop	r6
    2902:	5f 90       	pop	r5
    2904:	4f 90       	pop	r4
    2906:	3f 90       	pop	r3
    2908:	2f 90       	pop	r2
    290a:	08 95       	ret

0000290c <bmpe280_read_humidity>:


uint8_t bmpe280_read_humidity( uint8_t * hm_int, uint8_t * hm_fract ) {
    290c:	4f 92       	push	r4
    290e:	5f 92       	push	r5
    2910:	6f 92       	push	r6
    2912:	7f 92       	push	r7
    2914:	8f 92       	push	r8
    2916:	9f 92       	push	r9
    2918:	af 92       	push	r10
    291a:	bf 92       	push	r11
    291c:	cf 92       	push	r12
    291e:	df 92       	push	r13
    2920:	ef 92       	push	r14
    2922:	ff 92       	push	r15
    2924:	0f 93       	push	r16
    2926:	1f 93       	push	r17
    2928:	cf 93       	push	r28
    292a:	df 93       	push	r29
    292c:	ec 01       	movw	r28, r24
    292e:	8b 01       	movw	r16, r22


    if( bmpe280_read_byte( BME280_REGISTER_CHIPID ) != 0x60 ) // ERROR if it is BMP280 - not BME280
    2930:	80 ed       	ldi	r24, 0xD0	; 208
    2932:	0e 94 a0 0f 	call	0x1f40	; 0x1f40 <bmpe280_read_byte>
    2936:	80 36       	cpi	r24, 0x60	; 96
    2938:	09 f0       	breq	.+2      	; 0x293c <bmpe280_read_humidity+0x30>
    293a:	13 c1       	rjmp	.+550    	; 0x2b62 <bmpe280_read_humidity+0x256>
        return 0xFF;

    bmpe280_read_temp( 0, 0 );
    293c:	60 e0       	ldi	r22, 0x00	; 0
    293e:	70 e0       	ldi	r23, 0x00	; 0
    2940:	80 e0       	ldi	r24, 0x00	; 0
    2942:	90 e0       	ldi	r25, 0x00	; 0
    2944:	0e 94 f5 10 	call	0x21ea	; 0x21ea <bmpe280_read_temp>

    int32_t adc_H = bmpe280_read_word( BME280_REGISTER_HUMIDDATA );
    2948:	8d ef       	ldi	r24, 0xFD	; 253
    294a:	0e 94 b8 0f 	call	0x1f70	; 0x1f70 <bmpe280_read_word>
    294e:	a0 e0       	ldi	r26, 0x00	; 0
    2950:	b0 e0       	ldi	r27, 0x00	; 0
    if( adc_H == 0x8000 ) // ERROR if humidity measurement was disabled
    2952:	81 15       	cp	r24, r1
    2954:	20 e8       	ldi	r18, 0x80	; 128
    2956:	92 07       	cpc	r25, r18
    2958:	a1 05       	cpc	r26, r1
    295a:	b1 05       	cpc	r27, r1
    295c:	09 f4       	brne	.+2      	; 0x2960 <bmpe280_read_humidity+0x54>
    295e:	03 c1       	rjmp	.+518    	; 0x2b66 <bmpe280_read_humidity+0x25a>
        return 0xFF;

    int32_t v_x1_u32r;

    v_x1_u32r = (tmp_temperature - ((int32_t)76800));
    2960:	80 90 85 03 	lds	r8, 0x0385	; 0x800385 <tmp_temperature>
    2964:	90 90 86 03 	lds	r9, 0x0386	; 0x800386 <tmp_temperature+0x1>
    2968:	a0 90 87 03 	lds	r10, 0x0387	; 0x800387 <tmp_temperature+0x2>
    296c:	b0 90 88 03 	lds	r11, 0x0388	; 0x800388 <tmp_temperature+0x3>
    2970:	3c e2       	ldi	r19, 0x2C	; 44
    2972:	93 1a       	sub	r9, r19
    2974:	31 e0       	ldi	r19, 0x01	; 1
    2976:	a3 0a       	sbc	r10, r19
    2978:	b1 08       	sbc	r11, r1

    v_x1_u32r = (((((adc_H << 14) - (((int32_t)bmpe_calib.H4) << 20) -
    297a:	07 2e       	mov	r0, r23
    297c:	7e e0       	ldi	r23, 0x0E	; 14
    297e:	88 0f       	add	r24, r24
    2980:	99 1f       	adc	r25, r25
    2982:	aa 1f       	adc	r26, r26
    2984:	bb 1f       	adc	r27, r27
    2986:	7a 95       	dec	r23
    2988:	d1 f7       	brne	.-12     	; 0x297e <bmpe280_read_humidity+0x72>
    298a:	70 2d       	mov	r23, r0
    298c:	e4 e6       	ldi	r30, 0x64	; 100
    298e:	f3 e0       	ldi	r31, 0x03	; 3
    2990:	44 8d       	ldd	r20, Z+28	; 0x1c
    2992:	55 8d       	ldd	r21, Z+29	; 0x1d
    2994:	05 2e       	mov	r0, r21
    2996:	00 0c       	add	r0, r0
    2998:	66 0b       	sbc	r22, r22
    299a:	77 0b       	sbc	r23, r23
    299c:	03 2e       	mov	r0, r19
    299e:	34 e1       	ldi	r19, 0x14	; 20
    29a0:	44 0f       	add	r20, r20
    29a2:	55 1f       	adc	r21, r21
    29a4:	66 1f       	adc	r22, r22
    29a6:	77 1f       	adc	r23, r23
    29a8:	3a 95       	dec	r19
    29aa:	d1 f7       	brne	.-12     	; 0x29a0 <bmpe280_read_humidity+0x94>
    29ac:	30 2d       	mov	r19, r0
    29ae:	6c 01       	movw	r12, r24
    29b0:	7d 01       	movw	r14, r26
    29b2:	c4 1a       	sub	r12, r20
    29b4:	d5 0a       	sbc	r13, r21
    29b6:	e6 0a       	sbc	r14, r22
    29b8:	f7 0a       	sbc	r15, r23
                    (((int32_t)bmpe_calib.H5) * v_x1_u32r)) + ((int32_t)16384)) >> 15) *
    29ba:	a6 8d       	ldd	r26, Z+30	; 0x1e
    29bc:	b7 8d       	ldd	r27, Z+31	; 0x1f
    29be:	a5 01       	movw	r20, r10
    29c0:	94 01       	movw	r18, r8
    29c2:	0e 94 47 1a 	call	0x348e	; 0x348e <__mulshisi3>

    int32_t v_x1_u32r;

    v_x1_u32r = (tmp_temperature - ((int32_t)76800));

    v_x1_u32r = (((((adc_H << 14) - (((int32_t)bmpe_calib.H4) << 20) -
    29c6:	c6 1a       	sub	r12, r22
    29c8:	d7 0a       	sbc	r13, r23
    29ca:	e8 0a       	sbc	r14, r24
    29cc:	f9 0a       	sbc	r15, r25
                    (((int32_t)bmpe_calib.H5) * v_x1_u32r)) + ((int32_t)16384)) >> 15) *
    29ce:	40 e4       	ldi	r20, 0x40	; 64
    29d0:	d4 0e       	add	r13, r20
    29d2:	e1 1c       	adc	r14, r1
    29d4:	f1 1c       	adc	r15, r1
    29d6:	0b 2e       	mov	r0, r27
    29d8:	bf e0       	ldi	r27, 0x0F	; 15
    29da:	f5 94       	asr	r15
    29dc:	e7 94       	ror	r14
    29de:	d7 94       	ror	r13
    29e0:	c7 94       	ror	r12
    29e2:	ba 95       	dec	r27
    29e4:	d1 f7       	brne	.-12     	; 0x29da <bmpe280_read_humidity+0xce>
    29e6:	b0 2d       	mov	r27, r0
                 (((((((v_x1_u32r * ((int32_t)bmpe_calib.H6)) >> 10) *
    29e8:	a0 a1       	ldd	r26, Z+32	; 0x20
    29ea:	0a 2e       	mov	r0, r26
    29ec:	00 0c       	add	r0, r0
    29ee:	bb 0b       	sbc	r27, r27
    29f0:	a5 01       	movw	r20, r10
    29f2:	94 01       	movw	r18, r8
    29f4:	0e 94 47 1a 	call	0x348e	; 0x348e <__mulshisi3>
    29f8:	2b 01       	movw	r4, r22
    29fa:	3c 01       	movw	r6, r24
    29fc:	03 2e       	mov	r0, r19
    29fe:	3a e0       	ldi	r19, 0x0A	; 10
    2a00:	75 94       	asr	r7
    2a02:	67 94       	ror	r6
    2a04:	57 94       	ror	r5
    2a06:	47 94       	ror	r4
    2a08:	3a 95       	dec	r19
    2a0a:	d1 f7       	brne	.-12     	; 0x2a00 <bmpe280_read_humidity+0xf4>
    2a0c:	30 2d       	mov	r19, r0
                      (((v_x1_u32r * ((int32_t)bmpe_calib.H3)) >> 11) + ((int32_t)32768))) >> 10) +
    2a0e:	a3 8d       	ldd	r26, Z+27	; 0x1b
    2a10:	b0 e0       	ldi	r27, 0x00	; 0
    2a12:	0e 94 3c 1a 	call	0x3478	; 0x3478 <__muluhisi3>
    2a16:	dc 01       	movw	r26, r24
    2a18:	cb 01       	movw	r24, r22
    2a1a:	07 2e       	mov	r0, r23
    2a1c:	7b e0       	ldi	r23, 0x0B	; 11
    2a1e:	b5 95       	asr	r27
    2a20:	a7 95       	ror	r26
    2a22:	97 95       	ror	r25
    2a24:	87 95       	ror	r24
    2a26:	7a 95       	dec	r23
    2a28:	d1 f7       	brne	.-12     	; 0x2a1e <bmpe280_read_humidity+0x112>
    2a2a:	70 2d       	mov	r23, r0
    2a2c:	bc 01       	movw	r22, r24
    2a2e:	cd 01       	movw	r24, r26
    2a30:	70 58       	subi	r23, 0x80	; 128
    2a32:	8f 4f       	sbci	r24, 0xFF	; 255
    2a34:	9f 4f       	sbci	r25, 0xFF	; 255

    v_x1_u32r = (tmp_temperature - ((int32_t)76800));

    v_x1_u32r = (((((adc_H << 14) - (((int32_t)bmpe_calib.H4) << 20) -
                    (((int32_t)bmpe_calib.H5) * v_x1_u32r)) + ((int32_t)16384)) >> 15) *
                 (((((((v_x1_u32r * ((int32_t)bmpe_calib.H6)) >> 10) *
    2a36:	a3 01       	movw	r20, r6
    2a38:	92 01       	movw	r18, r4
    2a3a:	0e 94 e5 19 	call	0x33ca	; 0x33ca <__mulsi3>
                      (((v_x1_u32r * ((int32_t)bmpe_calib.H3)) >> 11) + ((int32_t)32768))) >> 10) +
    2a3e:	dc 01       	movw	r26, r24
    2a40:	cb 01       	movw	r24, r22
    2a42:	07 2e       	mov	r0, r23
    2a44:	7a e0       	ldi	r23, 0x0A	; 10
    2a46:	b5 95       	asr	r27
    2a48:	a7 95       	ror	r26
    2a4a:	97 95       	ror	r25
    2a4c:	87 95       	ror	r24
    2a4e:	7a 95       	dec	r23
    2a50:	d1 f7       	brne	.-12     	; 0x2a46 <bmpe280_read_humidity+0x13a>
    2a52:	70 2d       	mov	r23, r0
    2a54:	9c 01       	movw	r18, r24
    2a56:	ad 01       	movw	r20, r26
    2a58:	40 5e       	subi	r20, 0xE0	; 224
    2a5a:	5f 4f       	sbci	r21, 0xFF	; 255
                    ((int32_t)2097152)) * ((int32_t)bmpe_calib.H2) + 8192) >> 14));
    2a5c:	a1 8d       	ldd	r26, Z+25	; 0x19
    2a5e:	b2 8d       	ldd	r27, Z+26	; 0x1a
    2a60:	0e 94 47 1a 	call	0x348e	; 0x348e <__mulshisi3>
    2a64:	dc 01       	movw	r26, r24
    2a66:	cb 01       	movw	r24, r22
    2a68:	90 5e       	subi	r25, 0xE0	; 224
    2a6a:	af 4f       	sbci	r26, 0xFF	; 255
    2a6c:	bf 4f       	sbci	r27, 0xFF	; 255
    2a6e:	bc 01       	movw	r22, r24
    2a70:	cd 01       	movw	r24, r26
    2a72:	05 2e       	mov	r0, r21
    2a74:	5e e0       	ldi	r21, 0x0E	; 14
    2a76:	95 95       	asr	r25
    2a78:	87 95       	ror	r24
    2a7a:	77 95       	ror	r23
    2a7c:	67 95       	ror	r22
    2a7e:	5a 95       	dec	r21
    2a80:	d1 f7       	brne	.-12     	; 0x2a76 <bmpe280_read_humidity+0x16a>
    2a82:	50 2d       	mov	r21, r0

    int32_t v_x1_u32r;

    v_x1_u32r = (tmp_temperature - ((int32_t)76800));

    v_x1_u32r = (((((adc_H << 14) - (((int32_t)bmpe_calib.H4) << 20) -
    2a84:	a7 01       	movw	r20, r14
    2a86:	96 01       	movw	r18, r12
    2a88:	0e 94 e5 19 	call	0x33ca	; 0x33ca <__mulsi3>
    2a8c:	6b 01       	movw	r12, r22
    2a8e:	7c 01       	movw	r14, r24
                    (((int32_t)bmpe_calib.H5) * v_x1_u32r)) + ((int32_t)16384)) >> 15) *
                 (((((((v_x1_u32r * ((int32_t)bmpe_calib.H6)) >> 10) *
                      (((v_x1_u32r * ((int32_t)bmpe_calib.H3)) >> 11) + ((int32_t)32768))) >> 10) +
                    ((int32_t)2097152)) * ((int32_t)bmpe_calib.H2) + 8192) >> 14));

    v_x1_u32r = (v_x1_u32r - (((((v_x1_u32r >> 15) * (v_x1_u32r >> 15)) >> 7) *
    2a90:	05 2e       	mov	r0, r21
    2a92:	5f e0       	ldi	r21, 0x0F	; 15
    2a94:	95 95       	asr	r25
    2a96:	87 95       	ror	r24
    2a98:	77 95       	ror	r23
    2a9a:	67 95       	ror	r22
    2a9c:	5a 95       	dec	r21
    2a9e:	d1 f7       	brne	.-12     	; 0x2a94 <bmpe280_read_humidity+0x188>
    2aa0:	50 2d       	mov	r21, r0
    2aa2:	9b 01       	movw	r18, r22
    2aa4:	ac 01       	movw	r20, r24
    2aa6:	0e 94 e5 19 	call	0x33ca	; 0x33ca <__mulsi3>
    2aaa:	9b 01       	movw	r18, r22
    2aac:	ac 01       	movw	r20, r24
    2aae:	68 94       	set
    2ab0:	16 f8       	bld	r1, 6
    2ab2:	55 95       	asr	r21
    2ab4:	47 95       	ror	r20
    2ab6:	37 95       	ror	r19
    2ab8:	27 95       	ror	r18
    2aba:	16 94       	lsr	r1
    2abc:	d1 f7       	brne	.-12     	; 0x2ab2 <bmpe280_read_humidity+0x1a6>
                               ((int32_t)bmpe_calib.H1)) >> 4));
    2abe:	a0 8d       	ldd	r26, Z+24	; 0x18
                    (((int32_t)bmpe_calib.H5) * v_x1_u32r)) + ((int32_t)16384)) >> 15) *
                 (((((((v_x1_u32r * ((int32_t)bmpe_calib.H6)) >> 10) *
                      (((v_x1_u32r * ((int32_t)bmpe_calib.H3)) >> 11) + ((int32_t)32768))) >> 10) +
                    ((int32_t)2097152)) * ((int32_t)bmpe_calib.H2) + 8192) >> 14));

    v_x1_u32r = (v_x1_u32r - (((((v_x1_u32r >> 15) * (v_x1_u32r >> 15)) >> 7) *
    2ac0:	b0 e0       	ldi	r27, 0x00	; 0
    2ac2:	0e 94 3c 1a 	call	0x3478	; 0x3478 <__muluhisi3>
                               ((int32_t)bmpe_calib.H1)) >> 4));
    2ac6:	dc 01       	movw	r26, r24
    2ac8:	cb 01       	movw	r24, r22
    2aca:	68 94       	set
    2acc:	13 f8       	bld	r1, 3
    2ace:	b5 95       	asr	r27
    2ad0:	a7 95       	ror	r26
    2ad2:	97 95       	ror	r25
    2ad4:	87 95       	ror	r24
    2ad6:	16 94       	lsr	r1
    2ad8:	d1 f7       	brne	.-12     	; 0x2ace <bmpe280_read_humidity+0x1c2>

    v_x1_u32r = (v_x1_u32r < 0) ? 0 : v_x1_u32r;
    2ada:	a7 01       	movw	r20, r14
    2adc:	96 01       	movw	r18, r12
    2ade:	28 1b       	sub	r18, r24
    2ae0:	39 0b       	sbc	r19, r25
    2ae2:	4a 0b       	sbc	r20, r26
    2ae4:	5b 0b       	sbc	r21, r27
    2ae6:	da 01       	movw	r26, r20
    2ae8:	c9 01       	movw	r24, r18
    2aea:	1a f4       	brpl	.+6      	; 0x2af2 <bmpe280_read_humidity+0x1e6>
    2aec:	80 e0       	ldi	r24, 0x00	; 0
    2aee:	90 e0       	ldi	r25, 0x00	; 0
    2af0:	dc 01       	movw	r26, r24
    v_x1_u32r = (v_x1_u32r > 419430400) ? 419430400 : v_x1_u32r;
    2af2:	81 30       	cpi	r24, 0x01	; 1
    2af4:	91 05       	cpc	r25, r1
    2af6:	a1 05       	cpc	r26, r1
    2af8:	39 e1       	ldi	r19, 0x19	; 25
    2afa:	b3 07       	cpc	r27, r19
    2afc:	24 f0       	brlt	.+8      	; 0x2b06 <bmpe280_read_humidity+0x1fa>
    2afe:	80 e0       	ldi	r24, 0x00	; 0
    2b00:	90 e0       	ldi	r25, 0x00	; 0
    2b02:	a0 e0       	ldi	r26, 0x00	; 0
    2b04:	b9 e1       	ldi	r27, 0x19	; 25


    uint32_t h = (v_x1_u32r >> 12);
    2b06:	9c 01       	movw	r18, r24
    2b08:	ad 01       	movw	r20, r26
    2b0a:	01 2e       	mov	r0, r17
    2b0c:	1c e0       	ldi	r17, 0x0C	; 12
    2b0e:	55 95       	asr	r21
    2b10:	47 95       	ror	r20
    2b12:	37 95       	ror	r19
    2b14:	27 95       	ror	r18
    2b16:	1a 95       	dec	r17
    2b18:	d1 f7       	brne	.-12     	; 0x2b0e <bmpe280_read_humidity+0x202>
    2b1a:	10 2d       	mov	r17, r0
    h *= 100;
    2b1c:	a4 e6       	ldi	r26, 0x64	; 100
    2b1e:	b0 e0       	ldi	r27, 0x00	; 0
    2b20:	0e 94 3c 1a 	call	0x3478	; 0x3478 <__muluhisi3>
    h /= 1024;
    2b24:	6b 01       	movw	r12, r22
    2b26:	7c 01       	movw	r14, r24
    2b28:	0b 2e       	mov	r0, r27
    2b2a:	ba e0       	ldi	r27, 0x0A	; 10
    2b2c:	f6 94       	lsr	r15
    2b2e:	e7 94       	ror	r14
    2b30:	d7 94       	ror	r13
    2b32:	c7 94       	ror	r12
    2b34:	ba 95       	dec	r27
    2b36:	d1 f7       	brne	.-12     	; 0x2b2c <bmpe280_read_humidity+0x220>
    2b38:	b0 2d       	mov	r27, r0

    if( hm_int && hm_fract ) {
    2b3a:	20 97       	sbiw	r28, 0x00	; 0
    2b3c:	b1 f0       	breq	.+44     	; 0x2b6a <bmpe280_read_humidity+0x25e>
    2b3e:	01 15       	cp	r16, r1
    2b40:	11 05       	cpc	r17, r1
    2b42:	a9 f0       	breq	.+42     	; 0x2b6e <bmpe280_read_humidity+0x262>
    	*hm_int = h/100ul;
    2b44:	20 e0       	ldi	r18, 0x00	; 0
    2b46:	30 e9       	ldi	r19, 0x90	; 144
    2b48:	41 e0       	ldi	r20, 0x01	; 1
    2b4a:	50 e0       	ldi	r21, 0x00	; 0
    2b4c:	0e 94 f5 19 	call	0x33ea	; 0x33ea <__udivmodsi4>
    2b50:	28 83       	st	Y, r18
    	*hm_fract = h - (*hm_int*100);
    2b52:	44 e6       	ldi	r20, 0x64	; 100
    2b54:	24 9f       	mul	r18, r20
    2b56:	c0 18       	sub	r12, r0
    2b58:	11 24       	eor	r1, r1
    2b5a:	f8 01       	movw	r30, r16
    2b5c:	c0 82       	st	Z, r12
    }

    return 0; // OK
    2b5e:	80 e0       	ldi	r24, 0x00	; 0
    2b60:	07 c0       	rjmp	.+14     	; 0x2b70 <bmpe280_read_humidity+0x264>

uint8_t bmpe280_read_humidity( uint8_t * hm_int, uint8_t * hm_fract ) {


    if( bmpe280_read_byte( BME280_REGISTER_CHIPID ) != 0x60 ) // ERROR if it is BMP280 - not BME280
        return 0xFF;
    2b62:	8f ef       	ldi	r24, 0xFF	; 255
    2b64:	05 c0       	rjmp	.+10     	; 0x2b70 <bmpe280_read_humidity+0x264>

    bmpe280_read_temp( 0, 0 );

    int32_t adc_H = bmpe280_read_word( BME280_REGISTER_HUMIDDATA );
    if( adc_H == 0x8000 ) // ERROR if humidity measurement was disabled
        return 0xFF;
    2b66:	8f ef       	ldi	r24, 0xFF	; 255
    2b68:	03 c0       	rjmp	.+6      	; 0x2b70 <bmpe280_read_humidity+0x264>
    if( hm_int && hm_fract ) {
    	*hm_int = h/100ul;
    	*hm_fract = h - (*hm_int*100);
    }

    return 0; // OK
    2b6a:	80 e0       	ldi	r24, 0x00	; 0
    2b6c:	01 c0       	rjmp	.+2      	; 0x2b70 <bmpe280_read_humidity+0x264>
    2b6e:	80 e0       	ldi	r24, 0x00	; 0
}
    2b70:	df 91       	pop	r29
    2b72:	cf 91       	pop	r28
    2b74:	1f 91       	pop	r17
    2b76:	0f 91       	pop	r16
    2b78:	ff 90       	pop	r15
    2b7a:	ef 90       	pop	r14
    2b7c:	df 90       	pop	r13
    2b7e:	cf 90       	pop	r12
    2b80:	bf 90       	pop	r11
    2b82:	af 90       	pop	r10
    2b84:	9f 90       	pop	r9
    2b86:	8f 90       	pop	r8
    2b88:	7f 90       	pop	r7
    2b8a:	6f 90       	pop	r6
    2b8c:	5f 90       	pop	r5
    2b8e:	4f 90       	pop	r4
    2b90:	08 95       	ret

00002b92 <i2c__start>:

void i2c__start( void ) {

#if USE_SOFT_I2C == 0

	if( i2c_error_flag && i2c_damage_callback ) i2c_damage_callback();
    2b92:	80 91 fa 07 	lds	r24, 0x07FA	; 0x8007fa <i2c_error_flag>
    2b96:	88 23       	and	r24, r24
    2b98:	39 f0       	breq	.+14     	; 0x2ba8 <i2c__start+0x16>
    2b9a:	e0 91 89 03 	lds	r30, 0x0389	; 0x800389 <i2c_damage_callback>
    2b9e:	f0 91 8a 03 	lds	r31, 0x038A	; 0x80038a <i2c_damage_callback+0x1>
    2ba2:	30 97       	sbiw	r30, 0x00	; 0
    2ba4:	09 f0       	breq	.+2      	; 0x2ba8 <i2c__start+0x16>
    2ba6:	09 95       	icall
	TWCR = (1<<TWINT)|(1<<TWEN)|(1<<TWSTA);
    2ba8:	84 ea       	ldi	r24, 0xA4	; 164
    2baa:	86 bf       	out	0x36, r24	; 54
	i2c_tmo = I2C_TIMEOUT;
    2bac:	8f ef       	ldi	r24, 0xFF	; 255
    2bae:	9f ef       	ldi	r25, 0xFF	; 255
    2bb0:	90 93 64 00 	sts	0x0064, r25	; 0x800064 <i2c_tmo+0x1>
    2bb4:	80 93 63 00 	sts	0x0063, r24	; 0x800063 <i2c_tmo>
	while ( !(TWCR&(1<<TWINT)) ) {
    2bb8:	0f c0       	rjmp	.+30     	; 0x2bd8 <i2c__start+0x46>
		if( --i2c_tmo == 0 ) {
    2bba:	80 91 63 00 	lds	r24, 0x0063	; 0x800063 <i2c_tmo>
    2bbe:	90 91 64 00 	lds	r25, 0x0064	; 0x800064 <i2c_tmo+0x1>
    2bc2:	01 97       	sbiw	r24, 0x01	; 1
    2bc4:	90 93 64 00 	sts	0x0064, r25	; 0x800064 <i2c_tmo+0x1>
    2bc8:	80 93 63 00 	sts	0x0063, r24	; 0x800063 <i2c_tmo>
    2bcc:	89 2b       	or	r24, r25
    2bce:	21 f4       	brne	.+8      	; 0x2bd8 <i2c__start+0x46>
			i2c_error_flag = 1;
    2bd0:	81 e0       	ldi	r24, 0x01	; 1
    2bd2:	80 93 fa 07 	sts	0x07FA, r24	; 0x8007fa <i2c_error_flag>
			break;
    2bd6:	08 95       	ret
#if USE_SOFT_I2C == 0

	if( i2c_error_flag && i2c_damage_callback ) i2c_damage_callback();
	TWCR = (1<<TWINT)|(1<<TWEN)|(1<<TWSTA);
	i2c_tmo = I2C_TIMEOUT;
	while ( !(TWCR&(1<<TWINT)) ) {
    2bd8:	06 b6       	in	r0, 0x36	; 54
    2bda:	07 fe       	sbrs	r0, 7
    2bdc:	ee cf       	rjmp	.-36     	; 0x2bba <i2c__start+0x28>
    2bde:	08 95       	ret

00002be0 <i2c__stop>:

void i2c__stop( void ) {

#if USE_SOFT_I2C == 0

	if( i2c_error_flag && i2c_damage_callback ) i2c_damage_callback();
    2be0:	80 91 fa 07 	lds	r24, 0x07FA	; 0x8007fa <i2c_error_flag>
    2be4:	88 23       	and	r24, r24
    2be6:	39 f0       	breq	.+14     	; 0x2bf6 <i2c__stop+0x16>
    2be8:	e0 91 89 03 	lds	r30, 0x0389	; 0x800389 <i2c_damage_callback>
    2bec:	f0 91 8a 03 	lds	r31, 0x038A	; 0x80038a <i2c_damage_callback+0x1>
    2bf0:	30 97       	sbiw	r30, 0x00	; 0
    2bf2:	09 f0       	breq	.+2      	; 0x2bf6 <i2c__stop+0x16>
    2bf4:	09 95       	icall
	TWCR = (1<<TWINT)|(1<<TWEN)|(1<<TWSTO);
    2bf6:	84 e9       	ldi	r24, 0x94	; 148
    2bf8:	86 bf       	out	0x36, r24	; 54
	i2c_tmo = I2C_TIMEOUT;
    2bfa:	8f ef       	ldi	r24, 0xFF	; 255
    2bfc:	9f ef       	ldi	r25, 0xFF	; 255
    2bfe:	90 93 64 00 	sts	0x0064, r25	; 0x800064 <i2c_tmo+0x1>
    2c02:	80 93 63 00 	sts	0x0063, r24	; 0x800063 <i2c_tmo>
	while ( (TWCR&(1<<TWSTO)) ) {
    2c06:	0f c0       	rjmp	.+30     	; 0x2c26 <i2c__stop+0x46>
		if( --i2c_tmo == 0 ) {
    2c08:	80 91 63 00 	lds	r24, 0x0063	; 0x800063 <i2c_tmo>
    2c0c:	90 91 64 00 	lds	r25, 0x0064	; 0x800064 <i2c_tmo+0x1>
    2c10:	01 97       	sbiw	r24, 0x01	; 1
    2c12:	90 93 64 00 	sts	0x0064, r25	; 0x800064 <i2c_tmo+0x1>
    2c16:	80 93 63 00 	sts	0x0063, r24	; 0x800063 <i2c_tmo>
    2c1a:	89 2b       	or	r24, r25
    2c1c:	21 f4       	brne	.+8      	; 0x2c26 <i2c__stop+0x46>
			i2c_error_flag = 1;
    2c1e:	81 e0       	ldi	r24, 0x01	; 1
    2c20:	80 93 fa 07 	sts	0x07FA, r24	; 0x8007fa <i2c_error_flag>
			break;
    2c24:	08 95       	ret
#if USE_SOFT_I2C == 0

	if( i2c_error_flag && i2c_damage_callback ) i2c_damage_callback();
	TWCR = (1<<TWINT)|(1<<TWEN)|(1<<TWSTO);
	i2c_tmo = I2C_TIMEOUT;
	while ( (TWCR&(1<<TWSTO)) ) {
    2c26:	06 b6       	in	r0, 0x36	; 54
    2c28:	04 fc       	sbrc	r0, 4
    2c2a:	ee cf       	rjmp	.-36     	; 0x2c08 <i2c__stop+0x28>
    2c2c:	08 95       	ret

00002c2e <i2c_write>:
	SDA_HI;
	H_DEL;
#endif
}

uint8_t i2c_write( uint8_t byte ) {
    2c2e:	cf 93       	push	r28
    2c30:	c8 2f       	mov	r28, r24

#if USE_SOFT_I2C == 0

	if( i2c_error_flag && i2c_damage_callback ) i2c_damage_callback();
    2c32:	80 91 fa 07 	lds	r24, 0x07FA	; 0x8007fa <i2c_error_flag>
    2c36:	88 23       	and	r24, r24
    2c38:	39 f0       	breq	.+14     	; 0x2c48 <i2c_write+0x1a>
    2c3a:	e0 91 89 03 	lds	r30, 0x0389	; 0x800389 <i2c_damage_callback>
    2c3e:	f0 91 8a 03 	lds	r31, 0x038A	; 0x80038a <i2c_damage_callback+0x1>
    2c42:	30 97       	sbiw	r30, 0x00	; 0
    2c44:	09 f0       	breq	.+2      	; 0x2c48 <i2c_write+0x1a>
    2c46:	09 95       	icall
	TWDR = byte;
    2c48:	c3 b9       	out	0x03, r28	; 3
	TWCR = (1<<TWINT)|(1<<TWEN);
    2c4a:	84 e8       	ldi	r24, 0x84	; 132
    2c4c:	86 bf       	out	0x36, r24	; 54
	i2c_tmo = I2C_TIMEOUT;
    2c4e:	8f ef       	ldi	r24, 0xFF	; 255
    2c50:	9f ef       	ldi	r25, 0xFF	; 255
    2c52:	90 93 64 00 	sts	0x0064, r25	; 0x800064 <i2c_tmo+0x1>
    2c56:	80 93 63 00 	sts	0x0063, r24	; 0x800063 <i2c_tmo>
	while ( !(TWCR&(1<<TWINT))) {
    2c5a:	0f c0       	rjmp	.+30     	; 0x2c7a <i2c_write+0x4c>
		if( --i2c_tmo == 0 ) {
    2c5c:	80 91 63 00 	lds	r24, 0x0063	; 0x800063 <i2c_tmo>
    2c60:	90 91 64 00 	lds	r25, 0x0064	; 0x800064 <i2c_tmo+0x1>
    2c64:	01 97       	sbiw	r24, 0x01	; 1
    2c66:	90 93 64 00 	sts	0x0064, r25	; 0x800064 <i2c_tmo+0x1>
    2c6a:	80 93 63 00 	sts	0x0063, r24	; 0x800063 <i2c_tmo>
    2c6e:	89 2b       	or	r24, r25
    2c70:	21 f4       	brne	.+8      	; 0x2c7a <i2c_write+0x4c>
			i2c_error_flag = 1;
    2c72:	81 e0       	ldi	r24, 0x01	; 1
    2c74:	80 93 fa 07 	sts	0x07FA, r24	; 0x8007fa <i2c_error_flag>
			break;
    2c78:	03 c0       	rjmp	.+6      	; 0x2c80 <i2c_write+0x52>

	if( i2c_error_flag && i2c_damage_callback ) i2c_damage_callback();
	TWDR = byte;
	TWCR = (1<<TWINT)|(1<<TWEN);
	i2c_tmo = I2C_TIMEOUT;
	while ( !(TWCR&(1<<TWINT))) {
    2c7a:	06 b6       	in	r0, 0x36	; 54
    2c7c:	07 fe       	sbrs	r0, 7
    2c7e:	ee cf       	rjmp	.-36     	; 0x2c5c <i2c_write+0x2e>
		if( --i2c_tmo == 0 ) {
			i2c_error_flag = 1;
			break;
		}
	}
	return (TWSR & 0xF8) == 0x18;
    2c80:	91 b1       	in	r25, 0x01	; 1
    2c82:	98 7f       	andi	r25, 0xF8	; 248
    2c84:	81 e0       	ldi	r24, 0x01	; 1
    2c86:	98 31       	cpi	r25, 0x18	; 24
    2c88:	09 f0       	breq	.+2      	; 0x2c8c <i2c_write+0x5e>
    2c8a:	80 e0       	ldi	r24, 0x00	; 0
	SCL_LO;
	H_DEL;

	return ack;
#endif
}
    2c8c:	cf 91       	pop	r28
    2c8e:	08 95       	ret

00002c90 <i2c_read>:

uint8_t i2c_read( uint8_t ack ) {
    2c90:	cf 93       	push	r28
    2c92:	c8 2f       	mov	r28, r24

#if USE_SOFT_I2C == 0
	if( i2c_error_flag && i2c_damage_callback ) i2c_damage_callback();
    2c94:	80 91 fa 07 	lds	r24, 0x07FA	; 0x8007fa <i2c_error_flag>
    2c98:	88 23       	and	r24, r24
    2c9a:	39 f0       	breq	.+14     	; 0x2caa <i2c_read+0x1a>
    2c9c:	e0 91 89 03 	lds	r30, 0x0389	; 0x800389 <i2c_damage_callback>
    2ca0:	f0 91 8a 03 	lds	r31, 0x038A	; 0x80038a <i2c_damage_callback+0x1>
    2ca4:	30 97       	sbiw	r30, 0x00	; 0
    2ca6:	09 f0       	breq	.+2      	; 0x2caa <i2c_read+0x1a>
    2ca8:	09 95       	icall
	TWCR = (1<<TWINT)|(ack<<TWEA)|(1<<TWEN);
    2caa:	20 e4       	ldi	r18, 0x40	; 64
    2cac:	c2 9f       	mul	r28, r18
    2cae:	c0 01       	movw	r24, r0
    2cb0:	11 24       	eor	r1, r1
    2cb2:	84 68       	ori	r24, 0x84	; 132
    2cb4:	86 bf       	out	0x36, r24	; 54
	i2c_tmo = I2C_TIMEOUT;
    2cb6:	8f ef       	ldi	r24, 0xFF	; 255
    2cb8:	9f ef       	ldi	r25, 0xFF	; 255
    2cba:	90 93 64 00 	sts	0x0064, r25	; 0x800064 <i2c_tmo+0x1>
    2cbe:	80 93 63 00 	sts	0x0063, r24	; 0x800063 <i2c_tmo>
	while ( !(TWCR & (1<<TWINT))) {
    2cc2:	0f c0       	rjmp	.+30     	; 0x2ce2 <i2c_read+0x52>
		if( --i2c_tmo == 0 ) {
    2cc4:	80 91 63 00 	lds	r24, 0x0063	; 0x800063 <i2c_tmo>
    2cc8:	90 91 64 00 	lds	r25, 0x0064	; 0x800064 <i2c_tmo+0x1>
    2ccc:	01 97       	sbiw	r24, 0x01	; 1
    2cce:	90 93 64 00 	sts	0x0064, r25	; 0x800064 <i2c_tmo+0x1>
    2cd2:	80 93 63 00 	sts	0x0063, r24	; 0x800063 <i2c_tmo>
    2cd6:	89 2b       	or	r24, r25
    2cd8:	21 f4       	brne	.+8      	; 0x2ce2 <i2c_read+0x52>
			i2c_error_flag = 1;
    2cda:	81 e0       	ldi	r24, 0x01	; 1
    2cdc:	80 93 fa 07 	sts	0x07FA, r24	; 0x8007fa <i2c_error_flag>
			break;
    2ce0:	03 c0       	rjmp	.+6      	; 0x2ce8 <i2c_read+0x58>

#if USE_SOFT_I2C == 0
	if( i2c_error_flag && i2c_damage_callback ) i2c_damage_callback();
	TWCR = (1<<TWINT)|(ack<<TWEA)|(1<<TWEN);
	i2c_tmo = I2C_TIMEOUT;
	while ( !(TWCR & (1<<TWINT))) {
    2ce2:	06 b6       	in	r0, 0x36	; 54
    2ce4:	07 fe       	sbrs	r0, 7
    2ce6:	ee cf       	rjmp	.-36     	; 0x2cc4 <i2c_read+0x34>
		if( --i2c_tmo == 0 ) {
			i2c_error_flag = 1;
			break;
		}
	}
	return TWDR;
    2ce8:	83 b1       	in	r24, 0x03	; 3
	H_DEL;

	return data;

#endif
}
    2cea:	cf 91       	pop	r28
    2cec:	08 95       	ret

00002cee <mk_press_hum_init>:
uint8_t mk_press_hum_init( void ) {

	uint8_t res = st_none;

#if USE_BME_BMP_280 == 1
	res |= bmpe280_init();
    2cee:	0e 94 8e 10 	call	0x211c	; 0x211c <bmpe280_init>
	res |= hih6131_init();
#endif

	return res;

}
    2cf2:	08 95       	ret

00002cf4 <mkp_read_temp>:


uint8_t mkp_read_temp( uint8_t sensor_type, int8_t * at_int, int8_t * at_fract ) {

#if USE_BME_BMP_280 == 1
	if( (sensor_type & st_bmp280) || (sensor_type & st_bme280) ) {
    2cf4:	81 fd       	sbrc	r24, 1
    2cf6:	02 c0       	rjmp	.+4      	; 0x2cfc <mkp_read_temp+0x8>
    2cf8:	82 ff       	sbrs	r24, 2
    2cfa:	05 c0       	rjmp	.+10     	; 0x2d06 <mkp_read_temp+0x12>
    2cfc:	cb 01       	movw	r24, r22
		return bmpe280_read_temp( at_int, at_fract );
    2cfe:	ba 01       	movw	r22, r20
    2d00:	0e 94 f5 10 	call	0x21ea	; 0x21ea <bmpe280_read_temp>
    2d04:	08 95       	ret
	if( (sensor_type & st_hih6131) ) {
		return hih6131_read_temp( at_int, at_fract );
	}
#endif

	return 0xFF;	// error
    2d06:	8f ef       	ldi	r24, 0xFF	; 255
}
    2d08:	08 95       	ret

00002d0a <mkp_read_pressure>:


uint8_t mkp_read_pressure( uint8_t sensor_type, uint16_t * hp_int, uint8_t * hp_fract ) {

#if USE_BME_BMP_280 == 1
	if( (sensor_type & st_bmp280) || (sensor_type & st_bme280) ) {
    2d0a:	81 fd       	sbrc	r24, 1
    2d0c:	02 c0       	rjmp	.+4      	; 0x2d12 <mkp_read_pressure+0x8>
    2d0e:	82 ff       	sbrs	r24, 2
    2d10:	06 c0       	rjmp	.+12     	; 0x2d1e <mkp_read_pressure+0x14>
    2d12:	cb 01       	movw	r24, r22
		return bmpe280_read_pressure( hp_int, hp_fract );
    2d14:	ba 01       	movw	r22, r20
    2d16:	0e 94 b9 11 	call	0x2372	; 0x2372 <bmpe280_read_pressure>
    2d1a:	86 2f       	mov	r24, r22
    2d1c:	08 95       	ret
	if( (sensor_type & st_hih6131) ) {
		return 0xFF;	// error
	}
#endif

	return 0xFF;	// error
    2d1e:	8f ef       	ldi	r24, 0xFF	; 255

}
    2d20:	08 95       	ret

00002d22 <mkp_read_humidity>:

uint8_t mkp_read_humidity( uint8_t sensor_type, uint8_t * hm_int, uint8_t * hm_fract ) {


#if USE_BME_BMP_280 == 1
	if( sensor_type & st_bme280 ) {
    2d22:	82 ff       	sbrs	r24, 2
    2d24:	05 c0       	rjmp	.+10     	; 0x2d30 <mkp_read_humidity+0xe>
    2d26:	cb 01       	movw	r24, r22
		return bmpe280_read_humidity( hm_int, hm_fract );
    2d28:	ba 01       	movw	r22, r20
    2d2a:	0e 94 86 14 	call	0x290c	; 0x290c <bmpe280_read_humidity>
    2d2e:	08 95       	ret
	if( (sensor_type & st_hih6131) ) {
		return hih6131_read_humidity( hm_int, hm_fract );
	}
#endif

	return 0xFF;	// error
    2d30:	8f ef       	ldi	r24, 0xFF	; 255
}
    2d32:	08 95       	ret

00002d34 <i2c_init>:
            break;
        case 64:
            TWSR = 0x3;
            break;
        default:
            TWSR = 0x00;
    2d34:	11 b8       	out	0x01, r1	; 1
            break;
    }
    TWBR = (uint8_t)SET_TWBR;
    2d36:	8f e2       	ldi	r24, 0x2F	; 47
    2d38:	80 b9       	out	0x00, r24	; 0
    // enable
    TWCR = (1 << TWEN);
    2d3a:	84 e0       	ldi	r24, 0x04	; 4
    2d3c:	86 bf       	out	0x36, r24	; 54
    2d3e:	08 95       	ret

00002d40 <i2c_start>:
 
 Return Value: none
 **********************************************/
void i2c_start(uint8_t i2c_addr){
    // i2c start
    TWCR = (1 << TWINT)|(1 << TWSTA)|(1 << TWEN);
    2d40:	94 ea       	ldi	r25, 0xA4	; 164
    2d42:	96 bf       	out	0x36, r25	; 54
	uint16_t timeout = F_CPU/F_I2C*2.0;
    2d44:	2c ed       	ldi	r18, 0xDC	; 220
    2d46:	30 e0       	ldi	r19, 0x00	; 0
    while((TWCR & (1 << TWINT)) == 0 &&
    2d48:	09 c0       	rjmp	.+18     	; 0x2d5c <i2c_start+0x1c>
		timeout !=0){
		timeout--;
    2d4a:	21 50       	subi	r18, 0x01	; 1
    2d4c:	31 09       	sbc	r19, r1
		if(timeout == 0){
    2d4e:	31 f4       	brne	.+12     	; 0x2d5c <i2c_start+0x1c>
			I2C_ErrorCode |= (1 << I2C_START);
    2d50:	80 91 fb 07 	lds	r24, 0x07FB	; 0x8007fb <I2C_ErrorCode>
    2d54:	81 60       	ori	r24, 0x01	; 1
    2d56:	80 93 fb 07 	sts	0x07FB, r24	; 0x8007fb <I2C_ErrorCode>
			return;
    2d5a:	08 95       	ret
 **********************************************/
void i2c_start(uint8_t i2c_addr){
    // i2c start
    TWCR = (1 << TWINT)|(1 << TWSTA)|(1 << TWEN);
	uint16_t timeout = F_CPU/F_I2C*2.0;
    while((TWCR & (1 << TWINT)) == 0 &&
    2d5c:	06 b6       	in	r0, 0x36	; 54
    2d5e:	07 fc       	sbrc	r0, 7
    2d60:	03 c0       	rjmp	.+6      	; 0x2d68 <i2c_start+0x28>
    2d62:	21 15       	cp	r18, r1
    2d64:	31 05       	cpc	r19, r1
    2d66:	89 f7       	brne	.-30     	; 0x2d4a <i2c_start+0xa>
			I2C_ErrorCode |= (1 << I2C_START);
			return;
		}
	};
    // send adress
    TWDR = i2c_addr;
    2d68:	83 b9       	out	0x03, r24	; 3
    TWCR = (1 << TWINT)|( 1 << TWEN);
    2d6a:	84 e8       	ldi	r24, 0x84	; 132
    2d6c:	86 bf       	out	0x36, r24	; 54
    timeout = F_CPU/F_I2C*2.0;
    2d6e:	8c ed       	ldi	r24, 0xDC	; 220
    2d70:	90 e0       	ldi	r25, 0x00	; 0
    while((TWCR & (1 << TWINT)) == 0 &&
    2d72:	08 c0       	rjmp	.+16     	; 0x2d84 <i2c_start+0x44>
		  timeout !=0){
		timeout--;
    2d74:	01 97       	sbiw	r24, 0x01	; 1
		if(timeout == 0){
    2d76:	31 f4       	brne	.+12     	; 0x2d84 <i2c_start+0x44>
			I2C_ErrorCode |= (1 << I2C_SENDADRESS);
    2d78:	80 91 fb 07 	lds	r24, 0x07FB	; 0x8007fb <I2C_ErrorCode>
    2d7c:	82 60       	ori	r24, 0x02	; 2
    2d7e:	80 93 fb 07 	sts	0x07FB, r24	; 0x8007fb <I2C_ErrorCode>
			return;
    2d82:	08 95       	ret
	};
    // send adress
    TWDR = i2c_addr;
    TWCR = (1 << TWINT)|( 1 << TWEN);
    timeout = F_CPU/F_I2C*2.0;
    while((TWCR & (1 << TWINT)) == 0 &&
    2d84:	06 b6       	in	r0, 0x36	; 54
    2d86:	07 fc       	sbrc	r0, 7
    2d88:	02 c0       	rjmp	.+4      	; 0x2d8e <i2c_start+0x4e>
    2d8a:	00 97       	sbiw	r24, 0x00	; 0
    2d8c:	99 f7       	brne	.-26     	; 0x2d74 <i2c_start+0x34>
    2d8e:	08 95       	ret

00002d90 <i2c_stop>:
 
 Return Value: none
 **********************************************/
void i2c_stop(void){
    // i2c stop
    TWCR = (1 << TWINT)|(1 << TWSTO)|(1 << TWEN);
    2d90:	84 e9       	ldi	r24, 0x94	; 148
    2d92:	86 bf       	out	0x36, r24	; 54
    2d94:	08 95       	ret

00002d96 <i2c_byte>:
 - uint8_t byte: Byte to send to reciever
 
 Return Value: none
 **********************************************/
void i2c_byte(uint8_t byte){
    TWDR = byte;
    2d96:	83 b9       	out	0x03, r24	; 3
    TWCR = (1 << TWINT)|( 1 << TWEN);
    2d98:	84 e8       	ldi	r24, 0x84	; 132
    2d9a:	86 bf       	out	0x36, r24	; 54
    uint16_t timeout = F_CPU/F_I2C*2.0;
    2d9c:	8c ed       	ldi	r24, 0xDC	; 220
    2d9e:	90 e0       	ldi	r25, 0x00	; 0
    while((TWCR & (1 << TWINT)) == 0 &&
    2da0:	08 c0       	rjmp	.+16     	; 0x2db2 <i2c_byte+0x1c>
		  timeout !=0){
		timeout--;
    2da2:	01 97       	sbiw	r24, 0x01	; 1
		if(timeout == 0){
    2da4:	31 f4       	brne	.+12     	; 0x2db2 <i2c_byte+0x1c>
			I2C_ErrorCode |= (1 << I2C_BYTE);
    2da6:	80 91 fb 07 	lds	r24, 0x07FB	; 0x8007fb <I2C_ErrorCode>
    2daa:	84 60       	ori	r24, 0x04	; 4
    2dac:	80 93 fb 07 	sts	0x07FB, r24	; 0x8007fb <I2C_ErrorCode>
			return;
    2db0:	08 95       	ret
 **********************************************/
void i2c_byte(uint8_t byte){
    TWDR = byte;
    TWCR = (1 << TWINT)|( 1 << TWEN);
    uint16_t timeout = F_CPU/F_I2C*2.0;
    while((TWCR & (1 << TWINT)) == 0 &&
    2db2:	06 b6       	in	r0, 0x36	; 54
    2db4:	07 fc       	sbrc	r0, 7
    2db6:	02 c0       	rjmp	.+4      	; 0x2dbc <i2c_byte+0x26>
    2db8:	00 97       	sbiw	r24, 0x00	; 0
    2dba:	99 f7       	brne	.-26     	; 0x2da2 <i2c_byte+0xc>
    2dbc:	08 95       	ret

00002dbe <lcd_command>:
                result = lcd_drawPixel(x+i, y+j, !color);
            }
        }
    }
    return result;
}
    2dbe:	0f 93       	push	r16
    2dc0:	1f 93       	push	r17
    2dc2:	cf 93       	push	r28
    2dc4:	df 93       	push	r29
    2dc6:	8c 01       	movw	r16, r24
    2dc8:	d6 2f       	mov	r29, r22
    2dca:	88 e7       	ldi	r24, 0x78	; 120
    2dcc:	0e 94 a0 16 	call	0x2d40	; 0x2d40 <i2c_start>
    2dd0:	80 e0       	ldi	r24, 0x00	; 0
    2dd2:	0e 94 cb 16 	call	0x2d96	; 0x2d96 <i2c_byte>
    2dd6:	c0 e0       	ldi	r28, 0x00	; 0
    2dd8:	07 c0       	rjmp	.+14     	; 0x2de8 <lcd_command+0x2a>
    2dda:	f8 01       	movw	r30, r16
    2ddc:	ec 0f       	add	r30, r28
    2dde:	f1 1d       	adc	r31, r1
    2de0:	80 81       	ld	r24, Z
    2de2:	0e 94 cb 16 	call	0x2d96	; 0x2d96 <i2c_byte>
    2de6:	cf 5f       	subi	r28, 0xFF	; 255
    2de8:	cd 17       	cp	r28, r29
    2dea:	b8 f3       	brcs	.-18     	; 0x2dda <lcd_command+0x1c>
    2dec:	0e 94 c8 16 	call	0x2d90	; 0x2d90 <i2c_stop>
    2df0:	df 91       	pop	r29
    2df2:	cf 91       	pop	r28
    2df4:	1f 91       	pop	r17
    2df6:	0f 91       	pop	r16
    2df8:	08 95       	ret

00002dfa <lcd_data>:
    2dfa:	ef 92       	push	r14
    2dfc:	ff 92       	push	r15
    2dfe:	0f 93       	push	r16
    2e00:	1f 93       	push	r17
    2e02:	cf 93       	push	r28
    2e04:	df 93       	push	r29
    2e06:	7c 01       	movw	r14, r24
    2e08:	8b 01       	movw	r16, r22
    2e0a:	88 e7       	ldi	r24, 0x78	; 120
    2e0c:	0e 94 a0 16 	call	0x2d40	; 0x2d40 <i2c_start>
    2e10:	80 e4       	ldi	r24, 0x40	; 64
    2e12:	0e 94 cb 16 	call	0x2d96	; 0x2d96 <i2c_byte>
    2e16:	c0 e0       	ldi	r28, 0x00	; 0
    2e18:	d0 e0       	ldi	r29, 0x00	; 0
    2e1a:	07 c0       	rjmp	.+14     	; 0x2e2a <lcd_data+0x30>
    2e1c:	f7 01       	movw	r30, r14
    2e1e:	ec 0f       	add	r30, r28
    2e20:	fd 1f       	adc	r31, r29
    2e22:	80 81       	ld	r24, Z
    2e24:	0e 94 cb 16 	call	0x2d96	; 0x2d96 <i2c_byte>
    2e28:	21 96       	adiw	r28, 0x01	; 1
    2e2a:	c0 17       	cp	r28, r16
    2e2c:	d1 07       	cpc	r29, r17
    2e2e:	b0 f3       	brcs	.-20     	; 0x2e1c <lcd_data+0x22>
    2e30:	0e 94 c8 16 	call	0x2d90	; 0x2d90 <i2c_stop>
    2e34:	df 91       	pop	r29
    2e36:	cf 91       	pop	r28
    2e38:	1f 91       	pop	r17
    2e3a:	0f 91       	pop	r16
    2e3c:	ff 90       	pop	r15
    2e3e:	ef 90       	pop	r14
    2e40:	08 95       	ret

00002e42 <lcd_goto_xpix_y>:
    2e42:	cf 93       	push	r28
    2e44:	df 93       	push	r29
    2e46:	00 d0       	rcall	.+0      	; 0x2e48 <lcd_goto_xpix_y+0x6>
    2e48:	00 d0       	rcall	.+0      	; 0x2e4a <lcd_goto_xpix_y+0x8>
    2e4a:	1f 92       	push	r1
    2e4c:	cd b7       	in	r28, 0x3d	; 61
    2e4e:	de b7       	in	r29, 0x3e	; 62
    2e50:	81 38       	cpi	r24, 0x81	; 129
    2e52:	18 f5       	brcc	.+70     	; 0x2e9a <lcd_goto_xpix_y+0x58>
    2e54:	68 30       	cpi	r22, 0x08	; 8
    2e56:	08 f5       	brcc	.+66     	; 0x2e9a <lcd_goto_xpix_y+0x58>
    2e58:	eb e8       	ldi	r30, 0x8B	; 139
    2e5a:	f7 e0       	ldi	r31, 0x07	; 7
    2e5c:	80 83       	st	Z, r24
    2e5e:	61 83       	std	Z+1, r22	; 0x01
    2e60:	60 55       	subi	r22, 0x50	; 80
    2e62:	69 83       	std	Y+1, r22	; 0x01
    2e64:	91 e2       	ldi	r25, 0x21	; 33
    2e66:	9a 83       	std	Y+2, r25	; 0x02
    2e68:	92 e0       	ldi	r25, 0x02	; 2
    2e6a:	98 0f       	add	r25, r24
    2e6c:	9f 70       	andi	r25, 0x0F	; 15
    2e6e:	9b 83       	std	Y+3, r25	; 0x03
    2e70:	90 e0       	ldi	r25, 0x00	; 0
    2e72:	02 96       	adiw	r24, 0x02	; 2
    2e74:	80 7f       	andi	r24, 0xF0	; 240
    2e76:	99 27       	eor	r25, r25
    2e78:	95 95       	asr	r25
    2e7a:	87 95       	ror	r24
    2e7c:	95 95       	asr	r25
    2e7e:	87 95       	ror	r24
    2e80:	95 95       	asr	r25
    2e82:	87 95       	ror	r24
    2e84:	95 95       	asr	r25
    2e86:	87 95       	ror	r24
    2e88:	80 5f       	subi	r24, 0xF0	; 240
    2e8a:	8c 83       	std	Y+4, r24	; 0x04
    2e8c:	8f e7       	ldi	r24, 0x7F	; 127
    2e8e:	8d 83       	std	Y+5, r24	; 0x05
    2e90:	65 e0       	ldi	r22, 0x05	; 5
    2e92:	ce 01       	movw	r24, r28
    2e94:	01 96       	adiw	r24, 0x01	; 1
    2e96:	0e 94 df 16 	call	0x2dbe	; 0x2dbe <lcd_command>
    2e9a:	0f 90       	pop	r0
    2e9c:	0f 90       	pop	r0
    2e9e:	0f 90       	pop	r0
    2ea0:	0f 90       	pop	r0
    2ea2:	0f 90       	pop	r0
    2ea4:	df 91       	pop	r29
    2ea6:	cf 91       	pop	r28
    2ea8:	08 95       	ret

00002eaa <lcd_gotoxy>:
    2eaa:	98 2f       	mov	r25, r24
    2eac:	99 0f       	add	r25, r25
    2eae:	98 0f       	add	r25, r24
    2eb0:	89 2f       	mov	r24, r25
    2eb2:	88 0f       	add	r24, r24
    2eb4:	0e 94 21 17 	call	0x2e42	; 0x2e42 <lcd_goto_xpix_y>
    2eb8:	08 95       	ret

00002eba <lcd_home>:
    2eba:	60 e0       	ldi	r22, 0x00	; 0
    2ebc:	80 e0       	ldi	r24, 0x00	; 0
    2ebe:	0e 94 55 17 	call	0x2eaa	; 0x2eaa <lcd_gotoxy>
    2ec2:	08 95       	ret

00002ec4 <lcd_clrscr>:
    2ec4:	0f 93       	push	r16
    2ec6:	1f 93       	push	r17
    2ec8:	cf 93       	push	r28
    2eca:	c0 e0       	ldi	r28, 0x00	; 0
    2ecc:	15 c0       	rjmp	.+42     	; 0x2ef8 <lcd_clrscr+0x34>
    2ece:	80 e8       	ldi	r24, 0x80	; 128
    2ed0:	c8 9f       	mul	r28, r24
    2ed2:	80 01       	movw	r16, r0
    2ed4:	11 24       	eor	r1, r1
    2ed6:	05 57       	subi	r16, 0x75	; 117
    2ed8:	1c 4f       	sbci	r17, 0xFC	; 252
    2eda:	80 e8       	ldi	r24, 0x80	; 128
    2edc:	f8 01       	movw	r30, r16
    2ede:	11 92       	st	Z+, r1
    2ee0:	8a 95       	dec	r24
    2ee2:	e9 f7       	brne	.-6      	; 0x2ede <lcd_clrscr+0x1a>
    2ee4:	6c 2f       	mov	r22, r28
    2ee6:	80 e0       	ldi	r24, 0x00	; 0
    2ee8:	0e 94 55 17 	call	0x2eaa	; 0x2eaa <lcd_gotoxy>
    2eec:	60 e8       	ldi	r22, 0x80	; 128
    2eee:	70 e0       	ldi	r23, 0x00	; 0
    2ef0:	c8 01       	movw	r24, r16
    2ef2:	0e 94 fd 16 	call	0x2dfa	; 0x2dfa <lcd_data>
    2ef6:	cf 5f       	subi	r28, 0xFF	; 255
    2ef8:	c8 30       	cpi	r28, 0x08	; 8
    2efa:	48 f3       	brcs	.-46     	; 0x2ece <lcd_clrscr+0xa>
    2efc:	0e 94 5d 17 	call	0x2eba	; 0x2eba <lcd_home>
    2f00:	cf 91       	pop	r28
    2f02:	1f 91       	pop	r17
    2f04:	0f 91       	pop	r16
    2f06:	08 95       	ret

00002f08 <lcd_oled_init>:
    2f08:	1f 93       	push	r17
    2f0a:	cf 93       	push	r28
    2f0c:	df 93       	push	r29
    2f0e:	cd b7       	in	r28, 0x3d	; 61
    2f10:	de b7       	in	r29, 0x3e	; 62
    2f12:	6c 97       	sbiw	r28, 0x1c	; 28
    2f14:	0f b6       	in	r0, 0x3f	; 63
    2f16:	f8 94       	cli
    2f18:	de bf       	out	0x3e, r29	; 62
    2f1a:	0f be       	out	0x3f, r0	; 63
    2f1c:	cd bf       	out	0x3d, r28	; 61
    2f1e:	18 2f       	mov	r17, r24
    2f20:	0e 94 9a 16 	call	0x2d34	; 0x2d34 <i2c_init>
    2f24:	20 e0       	ldi	r18, 0x00	; 0
    2f26:	0e c0       	rjmp	.+28     	; 0x2f44 <lcd_oled_init+0x3c>
    2f28:	82 2f       	mov	r24, r18
    2f2a:	90 e0       	ldi	r25, 0x00	; 0
    2f2c:	fc 01       	movw	r30, r24
    2f2e:	e4 54       	subi	r30, 0x44	; 68
    2f30:	fb 4f       	sbci	r31, 0xFB	; 251
    2f32:	e4 91       	lpm	r30, Z
    2f34:	a1 e0       	ldi	r26, 0x01	; 1
    2f36:	b0 e0       	ldi	r27, 0x00	; 0
    2f38:	ac 0f       	add	r26, r28
    2f3a:	bd 1f       	adc	r27, r29
    2f3c:	a8 0f       	add	r26, r24
    2f3e:	b9 1f       	adc	r27, r25
    2f40:	ec 93       	st	X, r30
    2f42:	2f 5f       	subi	r18, 0xFF	; 255
    2f44:	2b 31       	cpi	r18, 0x1B	; 27
    2f46:	80 f3       	brcs	.-32     	; 0x2f28 <lcd_oled_init+0x20>
    2f48:	1c 8f       	std	Y+28, r17	; 0x1c
    2f4a:	6c e1       	ldi	r22, 0x1C	; 28
    2f4c:	ce 01       	movw	r24, r28
    2f4e:	01 96       	adiw	r24, 0x01	; 1
    2f50:	0e 94 df 16 	call	0x2dbe	; 0x2dbe <lcd_command>
    2f54:	0e 94 62 17 	call	0x2ec4	; 0x2ec4 <lcd_clrscr>
    2f58:	6c 96       	adiw	r28, 0x1c	; 28
    2f5a:	0f b6       	in	r0, 0x3f	; 63
    2f5c:	f8 94       	cli
    2f5e:	de bf       	out	0x3e, r29	; 62
    2f60:	0f be       	out	0x3f, r0	; 63
    2f62:	cd bf       	out	0x3d, r28	; 61
    2f64:	df 91       	pop	r29
    2f66:	cf 91       	pop	r28
    2f68:	1f 91       	pop	r17
    2f6a:	08 95       	ret

00002f6c <lcd_sleep>:
    2f6c:	cf 93       	push	r28
    2f6e:	df 93       	push	r29
    2f70:	1f 92       	push	r1
    2f72:	cd b7       	in	r28, 0x3d	; 61
    2f74:	de b7       	in	r29, 0x3e	; 62
    2f76:	81 30       	cpi	r24, 0x01	; 1
    2f78:	19 f0       	breq	.+6      	; 0x2f80 <lcd_sleep+0x14>
    2f7a:	8f ea       	ldi	r24, 0xAF	; 175
    2f7c:	89 83       	std	Y+1, r24	; 0x01
    2f7e:	02 c0       	rjmp	.+4      	; 0x2f84 <lcd_sleep+0x18>
    2f80:	8e ea       	ldi	r24, 0xAE	; 174
    2f82:	89 83       	std	Y+1, r24	; 0x01
    2f84:	61 e0       	ldi	r22, 0x01	; 1
    2f86:	ce 01       	movw	r24, r28
    2f88:	01 96       	adiw	r24, 0x01	; 1
    2f8a:	0e 94 df 16 	call	0x2dbe	; 0x2dbe <lcd_command>
    2f8e:	0f 90       	pop	r0
    2f90:	df 91       	pop	r29
    2f92:	cf 91       	pop	r28
    2f94:	08 95       	ret

00002f96 <lcd_set_contrast>:
    2f96:	cf 93       	push	r28
    2f98:	df 93       	push	r29
    2f9a:	00 d0       	rcall	.+0      	; 0x2f9c <lcd_set_contrast+0x6>
    2f9c:	cd b7       	in	r28, 0x3d	; 61
    2f9e:	de b7       	in	r29, 0x3e	; 62
    2fa0:	91 e8       	ldi	r25, 0x81	; 129
    2fa2:	99 83       	std	Y+1, r25	; 0x01
    2fa4:	8a 83       	std	Y+2, r24	; 0x02
    2fa6:	62 e0       	ldi	r22, 0x02	; 2
    2fa8:	ce 01       	movw	r24, r28
    2faa:	01 96       	adiw	r24, 0x01	; 1
    2fac:	0e 94 df 16 	call	0x2dbe	; 0x2dbe <lcd_command>
    2fb0:	0f 90       	pop	r0
    2fb2:	0f 90       	pop	r0
    2fb4:	df 91       	pop	r29
    2fb6:	cf 91       	pop	r28
    2fb8:	08 95       	ret

00002fba <lcd_putc>:
    2fba:	df 92       	push	r13
    2fbc:	ef 92       	push	r14
    2fbe:	ff 92       	push	r15
    2fc0:	0f 93       	push	r16
    2fc2:	1f 93       	push	r17
    2fc4:	cf 93       	push	r28
    2fc6:	df 93       	push	r29
    2fc8:	cd b7       	in	r28, 0x3d	; 61
    2fca:	de b7       	in	r29, 0x3e	; 62
    2fcc:	2c 97       	sbiw	r28, 0x0c	; 12
    2fce:	0f b6       	in	r0, 0x3f	; 63
    2fd0:	f8 94       	cli
    2fd2:	de bf       	out	0x3e, r29	; 62
    2fd4:	0f be       	out	0x3f, r0	; 63
    2fd6:	cd bf       	out	0x3d, r28	; 61
    2fd8:	89 30       	cpi	r24, 0x09	; 9
    2fda:	09 f1       	breq	.+66     	; 0x301e <lcd_putc+0x64>
    2fdc:	18 f4       	brcc	.+6      	; 0x2fe4 <lcd_putc+0x2a>
    2fde:	88 30       	cpi	r24, 0x08	; 8
    2fe0:	39 f0       	breq	.+14     	; 0x2ff0 <lcd_putc+0x36>
    2fe2:	53 c0       	rjmp	.+166    	; 0x308a <lcd_putc+0xd0>
    2fe4:	8a 30       	cpi	r24, 0x0A	; 10
    2fe6:	f1 f1       	breq	.+124    	; 0x3064 <lcd_putc+0xaa>
    2fe8:	8d 30       	cpi	r24, 0x0D	; 13
    2fea:	09 f4       	brne	.+2      	; 0x2fee <lcd_putc+0x34>
    2fec:	48 c0       	rjmp	.+144    	; 0x307e <lcd_putc+0xc4>
    2fee:	4d c0       	rjmp	.+154    	; 0x308a <lcd_putc+0xd0>
    2ff0:	0b e8       	ldi	r16, 0x8B	; 139
    2ff2:	17 e0       	ldi	r17, 0x07	; 7
    2ff4:	d8 01       	movw	r26, r16
    2ff6:	8c 91       	ld	r24, X
    2ff8:	90 91 65 00 	lds	r25, 0x0065	; 0x800065 <charMode>
    2ffc:	11 96       	adiw	r26, 0x01	; 1
    2ffe:	6c 91       	ld	r22, X
    3000:	89 1b       	sub	r24, r25
    3002:	0e 94 55 17 	call	0x2eaa	; 0x2eaa <lcd_gotoxy>
    3006:	80 e2       	ldi	r24, 0x20	; 32
    3008:	0e 94 dd 17 	call	0x2fba	; 0x2fba <lcd_putc>
    300c:	f8 01       	movw	r30, r16
    300e:	80 81       	ld	r24, Z
    3010:	90 91 65 00 	lds	r25, 0x0065	; 0x800065 <charMode>
    3014:	61 81       	ldd	r22, Z+1	; 0x01
    3016:	89 1b       	sub	r24, r25
    3018:	0e 94 55 17 	call	0x2eaa	; 0x2eaa <lcd_gotoxy>
    301c:	3b c1       	rjmp	.+630    	; 0x3294 <lcd_putc+0x2da>
    301e:	80 91 8b 07 	lds	r24, 0x078B	; 0x80078b <cursorPosition>
    3022:	90 91 65 00 	lds	r25, 0x0065	; 0x800065 <charMode>
    3026:	29 2f       	mov	r18, r25
    3028:	30 e0       	ldi	r19, 0x00	; 0
    302a:	22 0f       	add	r18, r18
    302c:	33 1f       	adc	r19, r19
    302e:	22 0f       	add	r18, r18
    3030:	33 1f       	adc	r19, r19
    3032:	b9 01       	movw	r22, r18
    3034:	68 0f       	add	r22, r24
    3036:	71 1d       	adc	r23, r1
    3038:	45 e1       	ldi	r20, 0x15	; 21
    303a:	50 e0       	ldi	r21, 0x00	; 0
    303c:	7a 01       	movw	r14, r20
    303e:	e2 1a       	sub	r14, r18
    3040:	f3 0a       	sbc	r15, r19
    3042:	6e 15       	cp	r22, r14
    3044:	7f 05       	cpc	r23, r15
    3046:	40 f4       	brcc	.+16     	; 0x3058 <lcd_putc+0x9e>
    3048:	99 0f       	add	r25, r25
    304a:	99 0f       	add	r25, r25
    304c:	60 91 8c 07 	lds	r22, 0x078C	; 0x80078c <cursorPosition+0x1>
    3050:	89 0f       	add	r24, r25
    3052:	0e 94 55 17 	call	0x2eaa	; 0x2eaa <lcd_gotoxy>
    3056:	1e c1       	rjmp	.+572    	; 0x3294 <lcd_putc+0x2da>
    3058:	60 91 8c 07 	lds	r22, 0x078C	; 0x80078c <cursorPosition+0x1>
    305c:	85 e1       	ldi	r24, 0x15	; 21
    305e:	0e 94 55 17 	call	0x2eaa	; 0x2eaa <lcd_gotoxy>
    3062:	18 c1       	rjmp	.+560    	; 0x3294 <lcd_putc+0x2da>
    3064:	80 91 8c 07 	lds	r24, 0x078C	; 0x80078c <cursorPosition+0x1>
    3068:	87 30       	cpi	r24, 0x07	; 7
    306a:	08 f0       	brcs	.+2      	; 0x306e <lcd_putc+0xb4>
    306c:	13 c1       	rjmp	.+550    	; 0x3294 <lcd_putc+0x2da>
    306e:	60 91 65 00 	lds	r22, 0x0065	; 0x800065 <charMode>
    3072:	68 0f       	add	r22, r24
    3074:	80 91 8b 07 	lds	r24, 0x078B	; 0x80078b <cursorPosition>
    3078:	0e 94 55 17 	call	0x2eaa	; 0x2eaa <lcd_gotoxy>
    307c:	0b c1       	rjmp	.+534    	; 0x3294 <lcd_putc+0x2da>
    307e:	60 91 8c 07 	lds	r22, 0x078C	; 0x80078c <cursorPosition+0x1>
    3082:	80 e0       	ldi	r24, 0x00	; 0
    3084:	0e 94 55 17 	call	0x2eaa	; 0x2eaa <lcd_gotoxy>
    3088:	05 c1       	rjmp	.+522    	; 0x3294 <lcd_putc+0x2da>
    308a:	40 91 8b 07 	lds	r20, 0x078B	; 0x80078b <cursorPosition>
    308e:	4a 37       	cpi	r20, 0x7A	; 122
    3090:	08 f0       	brcs	.+2      	; 0x3094 <lcd_putc+0xda>
    3092:	00 c1       	rjmp	.+512    	; 0x3294 <lcd_putc+0x2da>
    3094:	80 32       	cpi	r24, 0x20	; 32
    3096:	08 f4       	brcc	.+2      	; 0x309a <lcd_putc+0xe0>
    3098:	fd c0       	rjmp	.+506    	; 0x3294 <lcd_putc+0x2da>
    309a:	80 52       	subi	r24, 0x20	; 32
    309c:	e9 e2       	ldi	r30, 0x29	; 41
    309e:	f2 e0       	ldi	r31, 0x02	; 2
    30a0:	e4 91       	lpm	r30, Z
    30a2:	8e 17       	cp	r24, r30
    30a4:	98 f4       	brcc	.+38     	; 0x30cc <lcd_putc+0x112>
    30a6:	22 c0       	rjmp	.+68     	; 0x30ec <lcd_putc+0x132>
    30a8:	f9 01       	movw	r30, r18
    30aa:	ee 0f       	add	r30, r30
    30ac:	ff 1f       	adc	r31, r31
    30ae:	e8 5d       	subi	r30, 0xD8	; 216
    30b0:	fd 4f       	sbci	r31, 0xFD	; 253
    30b2:	e4 91       	lpm	r30, Z
    30b4:	f0 e0       	ldi	r31, 0x00	; 0
    30b6:	b0 97       	sbiw	r30, 0x20	; 32
    30b8:	28 2f       	mov	r18, r24
    30ba:	30 e0       	ldi	r19, 0x00	; 0
    30bc:	e2 17       	cp	r30, r18
    30be:	f3 07       	cpc	r31, r19
    30c0:	19 f4       	brne	.+6      	; 0x30c8 <lcd_putc+0x10e>
    30c2:	fb 01       	movw	r30, r22
    30c4:	84 91       	lpm	r24, Z
    30c6:	0f c0       	rjmp	.+30     	; 0x30e6 <lcd_putc+0x12c>
    30c8:	9f 5f       	subi	r25, 0xFF	; 255
    30ca:	01 c0       	rjmp	.+2      	; 0x30ce <lcd_putc+0x114>
    30cc:	90 e0       	ldi	r25, 0x00	; 0
    30ce:	29 2f       	mov	r18, r25
    30d0:	30 e0       	ldi	r19, 0x00	; 0
    30d2:	b9 01       	movw	r22, r18
    30d4:	66 0f       	add	r22, r22
    30d6:	77 1f       	adc	r23, r23
    30d8:	67 5d       	subi	r22, 0xD7	; 215
    30da:	7d 4f       	sbci	r23, 0xFD	; 253
    30dc:	fb 01       	movw	r30, r22
    30de:	54 91       	lpm	r21, Z
    30e0:	5f 3f       	cpi	r21, 0xFF	; 255
    30e2:	11 f7       	brne	.-60     	; 0x30a8 <lcd_putc+0xee>
    30e4:	8f ef       	ldi	r24, 0xFF	; 255
    30e6:	8f 3f       	cpi	r24, 0xFF	; 255
    30e8:	09 f4       	brne	.+2      	; 0x30ec <lcd_putc+0x132>
    30ea:	d4 c0       	rjmp	.+424    	; 0x3294 <lcd_putc+0x2da>
    30ec:	90 91 65 00 	lds	r25, 0x0065	; 0x800065 <charMode>
    30f0:	92 30       	cpi	r25, 0x02	; 2
    30f2:	09 f0       	breq	.+2      	; 0x30f6 <lcd_putc+0x13c>
    30f4:	a0 c0       	rjmp	.+320    	; 0x3236 <lcd_putc+0x27c>
    30f6:	24 2f       	mov	r18, r20
    30f8:	30 e0       	ldi	r19, 0x00	; 0
    30fa:	24 5f       	subi	r18, 0xF4	; 244
    30fc:	3f 4f       	sbci	r19, 0xFF	; 255
    30fe:	21 38       	cpi	r18, 0x81	; 129
    3100:	31 05       	cpc	r19, r1
    3102:	08 f0       	brcs	.+2      	; 0x3106 <lcd_putc+0x14c>
    3104:	c7 c0       	rjmp	.+398    	; 0x3294 <lcd_putc+0x2da>
    3106:	50 e0       	ldi	r21, 0x00	; 0
    3108:	54 c0       	rjmp	.+168    	; 0x31b2 <lcd_putc+0x1f8>
    310a:	05 2f       	mov	r16, r21
    310c:	10 e0       	ldi	r17, 0x00	; 0
    310e:	f8 01       	movw	r30, r16
    3110:	ee 0f       	add	r30, r30
    3112:	ff 1f       	adc	r31, r31
    3114:	ee 24       	eor	r14, r14
    3116:	e3 94       	inc	r14
    3118:	f1 2c       	mov	r15, r1
    311a:	ec 0e       	add	r14, r28
    311c:	fd 1e       	adc	r15, r29
    311e:	ee 0d       	add	r30, r14
    3120:	ff 1d       	adc	r31, r15
    3122:	11 82       	std	Z+1, r1	; 0x01
    3124:	10 82       	st	Z, r1
    3126:	28 2f       	mov	r18, r24
    3128:	30 e0       	ldi	r19, 0x00	; 0
    312a:	f9 01       	movw	r30, r18
    312c:	ee 0f       	add	r30, r30
    312e:	ff 1f       	adc	r31, r31
    3130:	e2 0f       	add	r30, r18
    3132:	f3 1f       	adc	r31, r19
    3134:	ee 0f       	add	r30, r30
    3136:	ff 1f       	adc	r31, r31
    3138:	e0 0f       	add	r30, r16
    313a:	f1 1f       	adc	r31, r17
    313c:	e0 5c       	subi	r30, 0xC0	; 192
    313e:	fd 4f       	sbci	r31, 0xFD	; 253
    3140:	d4 90       	lpm	r13, Z
    3142:	90 e0       	ldi	r25, 0x00	; 0
    3144:	33 c0       	rjmp	.+102    	; 0x31ac <lcd_putc+0x1f2>
    3146:	69 2f       	mov	r22, r25
    3148:	70 e0       	ldi	r23, 0x00	; 0
    314a:	2d 2d       	mov	r18, r13
    314c:	30 e0       	ldi	r19, 0x00	; 0
    314e:	09 2e       	mov	r0, r25
    3150:	02 c0       	rjmp	.+4      	; 0x3156 <lcd_putc+0x19c>
    3152:	35 95       	asr	r19
    3154:	27 95       	ror	r18
    3156:	0a 94       	dec	r0
    3158:	e2 f7       	brpl	.-8      	; 0x3152 <lcd_putc+0x198>
    315a:	20 ff       	sbrs	r18, 0
    315c:	26 c0       	rjmp	.+76     	; 0x31aa <lcd_putc+0x1f0>
    315e:	66 0f       	add	r22, r22
    3160:	77 1f       	adc	r23, r23
    3162:	e1 e0       	ldi	r30, 0x01	; 1
    3164:	f0 e0       	ldi	r31, 0x00	; 0
    3166:	9f 01       	movw	r18, r30
    3168:	06 2e       	mov	r0, r22
    316a:	02 c0       	rjmp	.+4      	; 0x3170 <lcd_putc+0x1b6>
    316c:	22 0f       	add	r18, r18
    316e:	33 1f       	adc	r19, r19
    3170:	0a 94       	dec	r0
    3172:	e2 f7       	brpl	.-8      	; 0x316c <lcd_putc+0x1b2>
    3174:	d8 01       	movw	r26, r16
    3176:	aa 0f       	add	r26, r26
    3178:	bb 1f       	adc	r27, r27
    317a:	ee 24       	eor	r14, r14
    317c:	e3 94       	inc	r14
    317e:	f1 2c       	mov	r15, r1
    3180:	ec 0e       	add	r14, r28
    3182:	fd 1e       	adc	r15, r29
    3184:	ae 0d       	add	r26, r14
    3186:	bf 1d       	adc	r27, r15
    3188:	ed 90       	ld	r14, X+
    318a:	fc 90       	ld	r15, X
    318c:	11 97       	sbiw	r26, 0x01	; 1
    318e:	e2 2a       	or	r14, r18
    3190:	f3 2a       	or	r15, r19
    3192:	6f 5f       	subi	r22, 0xFF	; 255
    3194:	7f 4f       	sbci	r23, 0xFF	; 255
    3196:	9f 01       	movw	r18, r30
    3198:	02 c0       	rjmp	.+4      	; 0x319e <lcd_putc+0x1e4>
    319a:	22 0f       	add	r18, r18
    319c:	33 1f       	adc	r19, r19
    319e:	6a 95       	dec	r22
    31a0:	e2 f7       	brpl	.-8      	; 0x319a <lcd_putc+0x1e0>
    31a2:	2e 29       	or	r18, r14
    31a4:	3f 29       	or	r19, r15
    31a6:	2d 93       	st	X+, r18
    31a8:	3c 93       	st	X, r19
    31aa:	9f 5f       	subi	r25, 0xFF	; 255
    31ac:	98 30       	cpi	r25, 0x08	; 8
    31ae:	58 f2       	brcs	.-106    	; 0x3146 <lcd_putc+0x18c>
    31b0:	5f 5f       	subi	r21, 0xFF	; 255
    31b2:	56 30       	cpi	r21, 0x06	; 6
    31b4:	08 f4       	brcc	.+2      	; 0x31b8 <lcd_putc+0x1fe>
    31b6:	a9 cf       	rjmp	.-174    	; 0x310a <lcd_putc+0x150>
    31b8:	50 e0       	ldi	r21, 0x00	; 0
    31ba:	37 c0       	rjmp	.+110    	; 0x322a <lcd_putc+0x270>
    31bc:	20 91 8c 07 	lds	r18, 0x078C	; 0x80078c <cursorPosition+0x1>
    31c0:	30 e0       	ldi	r19, 0x00	; 0
    31c2:	c9 01       	movw	r24, r18
    31c4:	01 96       	adiw	r24, 0x01	; 1
    31c6:	e5 2f       	mov	r30, r21
    31c8:	f0 e0       	ldi	r31, 0x00	; 0
    31ca:	ee 0f       	add	r30, r30
    31cc:	ff 1f       	adc	r31, r31
    31ce:	bf 01       	movw	r22, r30
    31d0:	64 0f       	add	r22, r20
    31d2:	71 1d       	adc	r23, r1
    31d4:	a1 e0       	ldi	r26, 0x01	; 1
    31d6:	b0 e0       	ldi	r27, 0x00	; 0
    31d8:	ac 0f       	add	r26, r28
    31da:	bd 1f       	adc	r27, r29
    31dc:	ea 0f       	add	r30, r26
    31de:	fb 1f       	adc	r31, r27
    31e0:	a0 81       	ld	r26, Z
    31e2:	b1 81       	ldd	r27, Z+1	; 0x01
    31e4:	96 95       	lsr	r25
    31e6:	98 2f       	mov	r25, r24
    31e8:	88 27       	eor	r24, r24
    31ea:	97 95       	ror	r25
    31ec:	87 95       	ror	r24
    31ee:	85 57       	subi	r24, 0x75	; 117
    31f0:	9c 4f       	sbci	r25, 0xFC	; 252
    31f2:	fc 01       	movw	r30, r24
    31f4:	e6 0f       	add	r30, r22
    31f6:	f7 1f       	adc	r31, r23
    31f8:	b0 83       	st	Z, r27
    31fa:	8b 01       	movw	r16, r22
    31fc:	0f 5f       	subi	r16, 0xFF	; 255
    31fe:	1f 4f       	sbci	r17, 0xFF	; 255
    3200:	80 0f       	add	r24, r16
    3202:	91 1f       	adc	r25, r17
    3204:	fc 01       	movw	r30, r24
    3206:	b0 83       	st	Z, r27
    3208:	36 95       	lsr	r19
    320a:	32 2f       	mov	r19, r18
    320c:	22 27       	eor	r18, r18
    320e:	37 95       	ror	r19
    3210:	27 95       	ror	r18
    3212:	c9 01       	movw	r24, r18
    3214:	85 57       	subi	r24, 0x75	; 117
    3216:	9c 4f       	sbci	r25, 0xFC	; 252
    3218:	68 0f       	add	r22, r24
    321a:	79 1f       	adc	r23, r25
    321c:	fb 01       	movw	r30, r22
    321e:	a0 83       	st	Z, r26
    3220:	f8 01       	movw	r30, r16
    3222:	e8 0f       	add	r30, r24
    3224:	f9 1f       	adc	r31, r25
    3226:	a0 83       	st	Z, r26
    3228:	5f 5f       	subi	r21, 0xFF	; 255
    322a:	56 30       	cpi	r21, 0x06	; 6
    322c:	38 f2       	brcs	.-114    	; 0x31bc <lcd_putc+0x202>
    322e:	44 5f       	subi	r20, 0xF4	; 244
    3230:	40 93 8b 07 	sts	0x078B, r20	; 0x80078b <cursorPosition>
    3234:	2f c0       	rjmp	.+94     	; 0x3294 <lcd_putc+0x2da>
    3236:	24 2f       	mov	r18, r20
    3238:	30 e0       	ldi	r19, 0x00	; 0
    323a:	2a 5f       	subi	r18, 0xFA	; 250
    323c:	3f 4f       	sbci	r19, 0xFF	; 255
    323e:	21 38       	cpi	r18, 0x81	; 129
    3240:	31 05       	cpc	r19, r1
    3242:	40 f5       	brcc	.+80     	; 0x3294 <lcd_putc+0x2da>
    3244:	90 e0       	ldi	r25, 0x00	; 0
    3246:	21 c0       	rjmp	.+66     	; 0x328a <lcd_putc+0x2d0>
    3248:	60 91 8c 07 	lds	r22, 0x078C	; 0x80078c <cursorPosition+0x1>
    324c:	70 e0       	ldi	r23, 0x00	; 0
    324e:	29 2f       	mov	r18, r25
    3250:	30 e0       	ldi	r19, 0x00	; 0
    3252:	d9 01       	movw	r26, r18
    3254:	a4 0f       	add	r26, r20
    3256:	b1 1d       	adc	r27, r1
    3258:	e8 2f       	mov	r30, r24
    325a:	f0 e0       	ldi	r31, 0x00	; 0
    325c:	8f 01       	movw	r16, r30
    325e:	00 0f       	add	r16, r16
    3260:	11 1f       	adc	r17, r17
    3262:	e0 0f       	add	r30, r16
    3264:	f1 1f       	adc	r31, r17
    3266:	ee 0f       	add	r30, r30
    3268:	ff 1f       	adc	r31, r31
    326a:	e2 0f       	add	r30, r18
    326c:	f3 1f       	adc	r31, r19
    326e:	e0 5c       	subi	r30, 0xC0	; 192
    3270:	fd 4f       	sbci	r31, 0xFD	; 253
    3272:	e4 91       	lpm	r30, Z
    3274:	76 95       	lsr	r23
    3276:	76 2f       	mov	r23, r22
    3278:	66 27       	eor	r22, r22
    327a:	77 95       	ror	r23
    327c:	67 95       	ror	r22
    327e:	65 57       	subi	r22, 0x75	; 117
    3280:	7c 4f       	sbci	r23, 0xFC	; 252
    3282:	a6 0f       	add	r26, r22
    3284:	b7 1f       	adc	r27, r23
    3286:	ec 93       	st	X, r30
    3288:	9f 5f       	subi	r25, 0xFF	; 255
    328a:	96 30       	cpi	r25, 0x06	; 6
    328c:	e8 f2       	brcs	.-70     	; 0x3248 <lcd_putc+0x28e>
    328e:	4a 5f       	subi	r20, 0xFA	; 250
    3290:	40 93 8b 07 	sts	0x078B, r20	; 0x80078b <cursorPosition>
    3294:	2c 96       	adiw	r28, 0x0c	; 12
    3296:	0f b6       	in	r0, 0x3f	; 63
    3298:	f8 94       	cli
    329a:	de bf       	out	0x3e, r29	; 62
    329c:	0f be       	out	0x3f, r0	; 63
    329e:	cd bf       	out	0x3d, r28	; 61
    32a0:	df 91       	pop	r29
    32a2:	cf 91       	pop	r28
    32a4:	1f 91       	pop	r17
    32a6:	0f 91       	pop	r16
    32a8:	ff 90       	pop	r15
    32aa:	ef 90       	pop	r14
    32ac:	df 90       	pop	r13
    32ae:	08 95       	ret

000032b0 <lcd_charMode>:
    32b0:	80 93 65 00 	sts	0x0065, r24	; 0x800065 <charMode>
    32b4:	08 95       	ret

000032b6 <lcd_puts>:
    32b6:	cf 93       	push	r28
    32b8:	df 93       	push	r29
    32ba:	ec 01       	movw	r28, r24
    32bc:	03 c0       	rjmp	.+6      	; 0x32c4 <lcd_puts+0xe>
    32be:	21 96       	adiw	r28, 0x01	; 1
    32c0:	0e 94 dd 17 	call	0x2fba	; 0x2fba <lcd_putc>
    32c4:	88 81       	ld	r24, Y
    32c6:	81 11       	cpse	r24, r1
    32c8:	fa cf       	rjmp	.-12     	; 0x32be <lcd_puts+0x8>
    32ca:	df 91       	pop	r29
    32cc:	cf 91       	pop	r28
    32ce:	08 95       	ret

000032d0 <lcd_puts_p>:
    32d0:	cf 93       	push	r28
    32d2:	df 93       	push	r29
    32d4:	fc 01       	movw	r30, r24
    32d6:	03 c0       	rjmp	.+6      	; 0x32de <lcd_puts_p+0xe>
    32d8:	0e 94 dd 17 	call	0x2fba	; 0x2fba <lcd_putc>
    32dc:	fe 01       	movw	r30, r28
    32de:	ef 01       	movw	r28, r30
    32e0:	21 96       	adiw	r28, 0x01	; 1
    32e2:	84 91       	lpm	r24, Z
    32e4:	81 11       	cpse	r24, r1
    32e6:	f8 cf       	rjmp	.-16     	; 0x32d8 <lcd_puts_p+0x8>
    32e8:	df 91       	pop	r29
    32ea:	cf 91       	pop	r28
    32ec:	08 95       	ret

000032ee <oled_int>:
    32ee:	0f 93       	push	r16
    32f0:	1f 93       	push	r17
    32f2:	cf 93       	push	r28
    32f4:	df 93       	push	r29
    32f6:	00 d0       	rcall	.+0      	; 0x32f8 <oled_int+0xa>
    32f8:	00 d0       	rcall	.+0      	; 0x32fa <oled_int+0xc>
    32fa:	00 d0       	rcall	.+0      	; 0x32fc <oled_int+0xe>
    32fc:	cd b7       	in	r28, 0x3d	; 61
    32fe:	de b7       	in	r29, 0x3e	; 62
    3300:	9f 93       	push	r25
    3302:	8f 93       	push	r24
    3304:	86 e4       	ldi	r24, 0x46	; 70
    3306:	93 e0       	ldi	r25, 0x03	; 3
    3308:	9f 93       	push	r25
    330a:	8f 93       	push	r24
    330c:	8e 01       	movw	r16, r28
    330e:	0f 5f       	subi	r16, 0xFF	; 255
    3310:	1f 4f       	sbci	r17, 0xFF	; 255
    3312:	1f 93       	push	r17
    3314:	0f 93       	push	r16
    3316:	0e 94 13 1c 	call	0x3826	; 0x3826 <sprintf>
    331a:	c8 01       	movw	r24, r16
    331c:	0e 94 5b 19 	call	0x32b6	; 0x32b6 <lcd_puts>
    3320:	0f 90       	pop	r0
    3322:	0f 90       	pop	r0
    3324:	0f 90       	pop	r0
    3326:	0f 90       	pop	r0
    3328:	0f 90       	pop	r0
    332a:	0f 90       	pop	r0
    332c:	26 96       	adiw	r28, 0x06	; 6
    332e:	0f b6       	in	r0, 0x3f	; 63
    3330:	f8 94       	cli
    3332:	de bf       	out	0x3e, r29	; 62
    3334:	0f be       	out	0x3f, r0	; 63
    3336:	cd bf       	out	0x3d, r28	; 61
    3338:	df 91       	pop	r29
    333a:	cf 91       	pop	r28
    333c:	1f 91       	pop	r17
    333e:	0f 91       	pop	r16
    3340:	08 95       	ret

00003342 <oled_long_int>:
    3342:	0f 93       	push	r16
    3344:	1f 93       	push	r17
    3346:	cf 93       	push	r28
    3348:	df 93       	push	r29
    334a:	cd b7       	in	r28, 0x3d	; 61
    334c:	de b7       	in	r29, 0x3e	; 62
    334e:	2b 97       	sbiw	r28, 0x0b	; 11
    3350:	0f b6       	in	r0, 0x3f	; 63
    3352:	f8 94       	cli
    3354:	de bf       	out	0x3e, r29	; 62
    3356:	0f be       	out	0x3f, r0	; 63
    3358:	cd bf       	out	0x3d, r28	; 61
    335a:	9f 93       	push	r25
    335c:	8f 93       	push	r24
    335e:	7f 93       	push	r23
    3360:	6f 93       	push	r22
    3362:	89 e4       	ldi	r24, 0x49	; 73
    3364:	93 e0       	ldi	r25, 0x03	; 3
    3366:	9f 93       	push	r25
    3368:	8f 93       	push	r24
    336a:	8e 01       	movw	r16, r28
    336c:	0f 5f       	subi	r16, 0xFF	; 255
    336e:	1f 4f       	sbci	r17, 0xFF	; 255
    3370:	1f 93       	push	r17
    3372:	0f 93       	push	r16
    3374:	0e 94 13 1c 	call	0x3826	; 0x3826 <sprintf>
    3378:	c8 01       	movw	r24, r16
    337a:	0e 94 5b 19 	call	0x32b6	; 0x32b6 <lcd_puts>
    337e:	0f b6       	in	r0, 0x3f	; 63
    3380:	f8 94       	cli
    3382:	de bf       	out	0x3e, r29	; 62
    3384:	0f be       	out	0x3f, r0	; 63
    3386:	cd bf       	out	0x3d, r28	; 61
    3388:	2b 96       	adiw	r28, 0x0b	; 11
    338a:	0f b6       	in	r0, 0x3f	; 63
    338c:	f8 94       	cli
    338e:	de bf       	out	0x3e, r29	; 62
    3390:	0f be       	out	0x3f, r0	; 63
    3392:	cd bf       	out	0x3d, r28	; 61
    3394:	df 91       	pop	r29
    3396:	cf 91       	pop	r28
    3398:	1f 91       	pop	r17
    339a:	0f 91       	pop	r16
    339c:	08 95       	ret

0000339e <lcd_display>:
void lcd_display() {
    339e:	cf 93       	push	r28
#if defined (SSD1306) || defined (SSD1309)
    lcd_gotoxy(0,0);
    lcd_data(&displayBuffer[0][0], DISPLAY_WIDTH*DISPLAY_HEIGHT/8);
#elif defined SH1106
    for (uint8_t i = 0; i < DISPLAY_HEIGHT/8; i++){
    33a0:	c0 e0       	ldi	r28, 0x00	; 0
    33a2:	0f c0       	rjmp	.+30     	; 0x33c2 <lcd_display+0x24>
        lcd_gotoxy(0,i);
    33a4:	6c 2f       	mov	r22, r28
    33a6:	80 e0       	ldi	r24, 0x00	; 0
    33a8:	0e 94 55 17 	call	0x2eaa	; 0x2eaa <lcd_gotoxy>
        lcd_data(displayBuffer[i], sizeof(displayBuffer[i]));
    33ac:	20 e8       	ldi	r18, 0x80	; 128
    33ae:	c2 9f       	mul	r28, r18
    33b0:	c0 01       	movw	r24, r0
    33b2:	11 24       	eor	r1, r1
    33b4:	60 e8       	ldi	r22, 0x80	; 128
    33b6:	70 e0       	ldi	r23, 0x00	; 0
    33b8:	85 57       	subi	r24, 0x75	; 117
    33ba:	9c 4f       	sbci	r25, 0xFC	; 252
    33bc:	0e 94 fd 16 	call	0x2dfa	; 0x2dfa <lcd_data>
void lcd_display() {
#if defined (SSD1306) || defined (SSD1309)
    lcd_gotoxy(0,0);
    lcd_data(&displayBuffer[0][0], DISPLAY_WIDTH*DISPLAY_HEIGHT/8);
#elif defined SH1106
    for (uint8_t i = 0; i < DISPLAY_HEIGHT/8; i++){
    33c0:	cf 5f       	subi	r28, 0xFF	; 255
    33c2:	c8 30       	cpi	r28, 0x08	; 8
    33c4:	78 f3       	brcs	.-34     	; 0x33a4 <lcd_display+0x6>
        lcd_gotoxy(0,i);
        lcd_data(displayBuffer[i], sizeof(displayBuffer[i]));
    }
#endif
}
    33c6:	cf 91       	pop	r28
    33c8:	08 95       	ret

000033ca <__mulsi3>:
    33ca:	db 01       	movw	r26, r22
    33cc:	8f 93       	push	r24
    33ce:	9f 93       	push	r25
    33d0:	0e 94 3c 1a 	call	0x3478	; 0x3478 <__muluhisi3>
    33d4:	bf 91       	pop	r27
    33d6:	af 91       	pop	r26
    33d8:	a2 9f       	mul	r26, r18
    33da:	80 0d       	add	r24, r0
    33dc:	91 1d       	adc	r25, r1
    33de:	a3 9f       	mul	r26, r19
    33e0:	90 0d       	add	r25, r0
    33e2:	b2 9f       	mul	r27, r18
    33e4:	90 0d       	add	r25, r0
    33e6:	11 24       	eor	r1, r1
    33e8:	08 95       	ret

000033ea <__udivmodsi4>:
    33ea:	a1 e2       	ldi	r26, 0x21	; 33
    33ec:	1a 2e       	mov	r1, r26
    33ee:	aa 1b       	sub	r26, r26
    33f0:	bb 1b       	sub	r27, r27
    33f2:	fd 01       	movw	r30, r26
    33f4:	0d c0       	rjmp	.+26     	; 0x3410 <__udivmodsi4_ep>

000033f6 <__udivmodsi4_loop>:
    33f6:	aa 1f       	adc	r26, r26
    33f8:	bb 1f       	adc	r27, r27
    33fa:	ee 1f       	adc	r30, r30
    33fc:	ff 1f       	adc	r31, r31
    33fe:	a2 17       	cp	r26, r18
    3400:	b3 07       	cpc	r27, r19
    3402:	e4 07       	cpc	r30, r20
    3404:	f5 07       	cpc	r31, r21
    3406:	20 f0       	brcs	.+8      	; 0x3410 <__udivmodsi4_ep>
    3408:	a2 1b       	sub	r26, r18
    340a:	b3 0b       	sbc	r27, r19
    340c:	e4 0b       	sbc	r30, r20
    340e:	f5 0b       	sbc	r31, r21

00003410 <__udivmodsi4_ep>:
    3410:	66 1f       	adc	r22, r22
    3412:	77 1f       	adc	r23, r23
    3414:	88 1f       	adc	r24, r24
    3416:	99 1f       	adc	r25, r25
    3418:	1a 94       	dec	r1
    341a:	69 f7       	brne	.-38     	; 0x33f6 <__udivmodsi4_loop>
    341c:	60 95       	com	r22
    341e:	70 95       	com	r23
    3420:	80 95       	com	r24
    3422:	90 95       	com	r25
    3424:	9b 01       	movw	r18, r22
    3426:	ac 01       	movw	r20, r24
    3428:	bd 01       	movw	r22, r26
    342a:	cf 01       	movw	r24, r30
    342c:	08 95       	ret

0000342e <__divmodsi4>:
    342e:	05 2e       	mov	r0, r21
    3430:	97 fb       	bst	r25, 7
    3432:	1e f4       	brtc	.+6      	; 0x343a <__divmodsi4+0xc>
    3434:	00 94       	com	r0
    3436:	0e 94 2e 1a 	call	0x345c	; 0x345c <__negsi2>
    343a:	57 fd       	sbrc	r21, 7
    343c:	07 d0       	rcall	.+14     	; 0x344c <__divmodsi4_neg2>
    343e:	0e 94 f5 19 	call	0x33ea	; 0x33ea <__udivmodsi4>
    3442:	07 fc       	sbrc	r0, 7
    3444:	03 d0       	rcall	.+6      	; 0x344c <__divmodsi4_neg2>
    3446:	4e f4       	brtc	.+18     	; 0x345a <__divmodsi4_exit>
    3448:	0c 94 2e 1a 	jmp	0x345c	; 0x345c <__negsi2>

0000344c <__divmodsi4_neg2>:
    344c:	50 95       	com	r21
    344e:	40 95       	com	r20
    3450:	30 95       	com	r19
    3452:	21 95       	neg	r18
    3454:	3f 4f       	sbci	r19, 0xFF	; 255
    3456:	4f 4f       	sbci	r20, 0xFF	; 255
    3458:	5f 4f       	sbci	r21, 0xFF	; 255

0000345a <__divmodsi4_exit>:
    345a:	08 95       	ret

0000345c <__negsi2>:
    345c:	90 95       	com	r25
    345e:	80 95       	com	r24
    3460:	70 95       	com	r23
    3462:	61 95       	neg	r22
    3464:	7f 4f       	sbci	r23, 0xFF	; 255
    3466:	8f 4f       	sbci	r24, 0xFF	; 255
    3468:	9f 4f       	sbci	r25, 0xFF	; 255
    346a:	08 95       	ret

0000346c <__tablejump2__>:
    346c:	ee 0f       	add	r30, r30
    346e:	ff 1f       	adc	r31, r31
    3470:	05 90       	lpm	r0, Z+
    3472:	f4 91       	lpm	r31, Z
    3474:	e0 2d       	mov	r30, r0
    3476:	09 94       	ijmp

00003478 <__muluhisi3>:
    3478:	0e 94 d4 1b 	call	0x37a8	; 0x37a8 <__umulhisi3>
    347c:	a5 9f       	mul	r26, r21
    347e:	90 0d       	add	r25, r0
    3480:	b4 9f       	mul	r27, r20
    3482:	90 0d       	add	r25, r0
    3484:	a4 9f       	mul	r26, r20
    3486:	80 0d       	add	r24, r0
    3488:	91 1d       	adc	r25, r1
    348a:	11 24       	eor	r1, r1
    348c:	08 95       	ret

0000348e <__mulshisi3>:
    348e:	b7 ff       	sbrs	r27, 7
    3490:	0c 94 3c 1a 	jmp	0x3478	; 0x3478 <__muluhisi3>

00003494 <__mulohisi3>:
    3494:	0e 94 3c 1a 	call	0x3478	; 0x3478 <__muluhisi3>
    3498:	82 1b       	sub	r24, r18
    349a:	93 0b       	sbc	r25, r19
    349c:	08 95       	ret

0000349e <__muldi3>:
    349e:	df 93       	push	r29
    34a0:	cf 93       	push	r28
    34a2:	1f 93       	push	r17
    34a4:	0f 93       	push	r16
    34a6:	9a 9d       	mul	r25, r10
    34a8:	f0 2d       	mov	r31, r0
    34aa:	21 9f       	mul	r18, r17
    34ac:	f0 0d       	add	r31, r0
    34ae:	8b 9d       	mul	r24, r11
    34b0:	f0 0d       	add	r31, r0
    34b2:	8a 9d       	mul	r24, r10
    34b4:	e0 2d       	mov	r30, r0
    34b6:	f1 0d       	add	r31, r1
    34b8:	03 9f       	mul	r16, r19
    34ba:	f0 0d       	add	r31, r0
    34bc:	02 9f       	mul	r16, r18
    34be:	e0 0d       	add	r30, r0
    34c0:	f1 1d       	adc	r31, r1
    34c2:	4e 9d       	mul	r20, r14
    34c4:	e0 0d       	add	r30, r0
    34c6:	f1 1d       	adc	r31, r1
    34c8:	5e 9d       	mul	r21, r14
    34ca:	f0 0d       	add	r31, r0
    34cc:	4f 9d       	mul	r20, r15
    34ce:	f0 0d       	add	r31, r0
    34d0:	7f 93       	push	r23
    34d2:	6f 93       	push	r22
    34d4:	bf 92       	push	r11
    34d6:	af 92       	push	r10
    34d8:	5f 93       	push	r21
    34da:	4f 93       	push	r20
    34dc:	d5 01       	movw	r26, r10
    34de:	0e 94 d4 1b 	call	0x37a8	; 0x37a8 <__umulhisi3>
    34e2:	8b 01       	movw	r16, r22
    34e4:	ac 01       	movw	r20, r24
    34e6:	d7 01       	movw	r26, r14
    34e8:	0e 94 d4 1b 	call	0x37a8	; 0x37a8 <__umulhisi3>
    34ec:	eb 01       	movw	r28, r22
    34ee:	e8 0f       	add	r30, r24
    34f0:	f9 1f       	adc	r31, r25
    34f2:	d6 01       	movw	r26, r12
    34f4:	0e 94 9f 1a 	call	0x353e	; 0x353e <__muldi3_6>
    34f8:	2f 91       	pop	r18
    34fa:	3f 91       	pop	r19
    34fc:	d6 01       	movw	r26, r12
    34fe:	0e 94 d4 1b 	call	0x37a8	; 0x37a8 <__umulhisi3>
    3502:	c6 0f       	add	r28, r22
    3504:	d7 1f       	adc	r29, r23
    3506:	e8 1f       	adc	r30, r24
    3508:	f9 1f       	adc	r31, r25
    350a:	af 91       	pop	r26
    350c:	bf 91       	pop	r27
    350e:	0e 94 9f 1a 	call	0x353e	; 0x353e <__muldi3_6>
    3512:	2f 91       	pop	r18
    3514:	3f 91       	pop	r19
    3516:	0e 94 d4 1b 	call	0x37a8	; 0x37a8 <__umulhisi3>
    351a:	c6 0f       	add	r28, r22
    351c:	d7 1f       	adc	r29, r23
    351e:	e8 1f       	adc	r30, r24
    3520:	f9 1f       	adc	r31, r25
    3522:	d6 01       	movw	r26, r12
    3524:	0e 94 d4 1b 	call	0x37a8	; 0x37a8 <__umulhisi3>
    3528:	e6 0f       	add	r30, r22
    352a:	f7 1f       	adc	r31, r23
    352c:	98 01       	movw	r18, r16
    352e:	be 01       	movw	r22, r28
    3530:	cf 01       	movw	r24, r30
    3532:	11 24       	eor	r1, r1
    3534:	0f 91       	pop	r16
    3536:	1f 91       	pop	r17
    3538:	cf 91       	pop	r28
    353a:	df 91       	pop	r29
    353c:	08 95       	ret

0000353e <__muldi3_6>:
    353e:	0e 94 d4 1b 	call	0x37a8	; 0x37a8 <__umulhisi3>
    3542:	46 0f       	add	r20, r22
    3544:	57 1f       	adc	r21, r23
    3546:	c8 1f       	adc	r28, r24
    3548:	d9 1f       	adc	r29, r25
    354a:	08 f4       	brcc	.+2      	; 0x354e <__muldi3_6+0x10>
    354c:	31 96       	adiw	r30, 0x01	; 1
    354e:	08 95       	ret

00003550 <__moddi3>:
    3550:	68 94       	set
    3552:	01 c0       	rjmp	.+2      	; 0x3556 <__divdi3_moddi3>

00003554 <__divdi3>:
    3554:	e8 94       	clt

00003556 <__divdi3_moddi3>:
    3556:	f9 2f       	mov	r31, r25
    3558:	f1 2b       	or	r31, r17
    355a:	12 f0       	brmi	.+4      	; 0x3560 <__divdi3_moddi3+0xa>
    355c:	0c 94 dc 1a 	jmp	0x35b8	; 0x35b8 <__udivdi3_umoddi3>
    3560:	a0 e0       	ldi	r26, 0x00	; 0
    3562:	b0 e0       	ldi	r27, 0x00	; 0
    3564:	e6 eb       	ldi	r30, 0xB6	; 182
    3566:	fa e1       	ldi	r31, 0x1A	; 26
    3568:	0c 94 4e 1b 	jmp	0x369c	; 0x369c <__prologue_saves__+0xc>
    356c:	09 2e       	mov	r0, r25
    356e:	05 94       	asr	r0
    3570:	22 f4       	brpl	.+8      	; 0x357a <__divdi3_moddi3+0x24>
    3572:	0e 94 38 1b 	call	0x3670	; 0x3670 <__negdi2>
    3576:	11 23       	and	r17, r17
    3578:	92 f4       	brpl	.+36     	; 0x359e <__divdi3_moddi3+0x48>
    357a:	f0 e8       	ldi	r31, 0x80	; 128
    357c:	0f 26       	eor	r0, r31
    357e:	ff ef       	ldi	r31, 0xFF	; 255
    3580:	e0 94       	com	r14
    3582:	f0 94       	com	r15
    3584:	00 95       	com	r16
    3586:	10 95       	com	r17
    3588:	b0 94       	com	r11
    358a:	c0 94       	com	r12
    358c:	d0 94       	com	r13
    358e:	a1 94       	neg	r10
    3590:	bf 0a       	sbc	r11, r31
    3592:	cf 0a       	sbc	r12, r31
    3594:	df 0a       	sbc	r13, r31
    3596:	ef 0a       	sbc	r14, r31
    3598:	ff 0a       	sbc	r15, r31
    359a:	0f 0b       	sbc	r16, r31
    359c:	1f 0b       	sbc	r17, r31
    359e:	0e 94 e7 1a 	call	0x35ce	; 0x35ce <__udivmod64>
    35a2:	07 fc       	sbrc	r0, 7
    35a4:	0e 94 38 1b 	call	0x3670	; 0x3670 <__negdi2>
    35a8:	cd b7       	in	r28, 0x3d	; 61
    35aa:	de b7       	in	r29, 0x3e	; 62
    35ac:	ec e0       	ldi	r30, 0x0C	; 12
    35ae:	0c 94 6a 1b 	jmp	0x36d4	; 0x36d4 <__epilogue_restores__+0xc>

000035b2 <__umoddi3>:
    35b2:	68 94       	set
    35b4:	01 c0       	rjmp	.+2      	; 0x35b8 <__udivdi3_umoddi3>

000035b6 <__udivdi3>:
    35b6:	e8 94       	clt

000035b8 <__udivdi3_umoddi3>:
    35b8:	8f 92       	push	r8
    35ba:	9f 92       	push	r9
    35bc:	cf 93       	push	r28
    35be:	df 93       	push	r29
    35c0:	0e 94 e7 1a 	call	0x35ce	; 0x35ce <__udivmod64>
    35c4:	df 91       	pop	r29
    35c6:	cf 91       	pop	r28
    35c8:	9f 90       	pop	r9
    35ca:	8f 90       	pop	r8
    35cc:	08 95       	ret

000035ce <__udivmod64>:
    35ce:	88 24       	eor	r8, r8
    35d0:	99 24       	eor	r9, r9
    35d2:	f4 01       	movw	r30, r8
    35d4:	e4 01       	movw	r28, r8
    35d6:	b0 e4       	ldi	r27, 0x40	; 64
    35d8:	9f 93       	push	r25
    35da:	aa 27       	eor	r26, r26
    35dc:	9a 15       	cp	r25, r10
    35de:	8b 04       	cpc	r8, r11
    35e0:	9c 04       	cpc	r9, r12
    35e2:	ed 05       	cpc	r30, r13
    35e4:	fe 05       	cpc	r31, r14
    35e6:	cf 05       	cpc	r28, r15
    35e8:	d0 07       	cpc	r29, r16
    35ea:	a1 07       	cpc	r26, r17
    35ec:	98 f4       	brcc	.+38     	; 0x3614 <__udivmod64+0x46>
    35ee:	ad 2f       	mov	r26, r29
    35f0:	dc 2f       	mov	r29, r28
    35f2:	cf 2f       	mov	r28, r31
    35f4:	fe 2f       	mov	r31, r30
    35f6:	e9 2d       	mov	r30, r9
    35f8:	98 2c       	mov	r9, r8
    35fa:	89 2e       	mov	r8, r25
    35fc:	98 2f       	mov	r25, r24
    35fe:	87 2f       	mov	r24, r23
    3600:	76 2f       	mov	r23, r22
    3602:	65 2f       	mov	r22, r21
    3604:	54 2f       	mov	r21, r20
    3606:	43 2f       	mov	r20, r19
    3608:	32 2f       	mov	r19, r18
    360a:	22 27       	eor	r18, r18
    360c:	b8 50       	subi	r27, 0x08	; 8
    360e:	31 f7       	brne	.-52     	; 0x35dc <__udivmod64+0xe>
    3610:	bf 91       	pop	r27
    3612:	27 c0       	rjmp	.+78     	; 0x3662 <__udivmod64+0x94>
    3614:	1b 2e       	mov	r1, r27
    3616:	bf 91       	pop	r27
    3618:	bb 27       	eor	r27, r27
    361a:	22 0f       	add	r18, r18
    361c:	33 1f       	adc	r19, r19
    361e:	44 1f       	adc	r20, r20
    3620:	55 1f       	adc	r21, r21
    3622:	66 1f       	adc	r22, r22
    3624:	77 1f       	adc	r23, r23
    3626:	88 1f       	adc	r24, r24
    3628:	99 1f       	adc	r25, r25
    362a:	88 1c       	adc	r8, r8
    362c:	99 1c       	adc	r9, r9
    362e:	ee 1f       	adc	r30, r30
    3630:	ff 1f       	adc	r31, r31
    3632:	cc 1f       	adc	r28, r28
    3634:	dd 1f       	adc	r29, r29
    3636:	aa 1f       	adc	r26, r26
    3638:	bb 1f       	adc	r27, r27
    363a:	8a 14       	cp	r8, r10
    363c:	9b 04       	cpc	r9, r11
    363e:	ec 05       	cpc	r30, r12
    3640:	fd 05       	cpc	r31, r13
    3642:	ce 05       	cpc	r28, r14
    3644:	df 05       	cpc	r29, r15
    3646:	a0 07       	cpc	r26, r16
    3648:	b1 07       	cpc	r27, r17
    364a:	48 f0       	brcs	.+18     	; 0x365e <__udivmod64+0x90>
    364c:	8a 18       	sub	r8, r10
    364e:	9b 08       	sbc	r9, r11
    3650:	ec 09       	sbc	r30, r12
    3652:	fd 09       	sbc	r31, r13
    3654:	ce 09       	sbc	r28, r14
    3656:	df 09       	sbc	r29, r15
    3658:	a0 0b       	sbc	r26, r16
    365a:	b1 0b       	sbc	r27, r17
    365c:	21 60       	ori	r18, 0x01	; 1
    365e:	1a 94       	dec	r1
    3660:	e1 f6       	brne	.-72     	; 0x361a <__udivmod64+0x4c>
    3662:	2e f4       	brtc	.+10     	; 0x366e <__udivmod64+0xa0>
    3664:	94 01       	movw	r18, r8
    3666:	af 01       	movw	r20, r30
    3668:	be 01       	movw	r22, r28
    366a:	cd 01       	movw	r24, r26
    366c:	00 0c       	add	r0, r0
    366e:	08 95       	ret

00003670 <__negdi2>:
    3670:	60 95       	com	r22
    3672:	70 95       	com	r23
    3674:	80 95       	com	r24
    3676:	90 95       	com	r25
    3678:	30 95       	com	r19
    367a:	40 95       	com	r20
    367c:	50 95       	com	r21
    367e:	21 95       	neg	r18
    3680:	3f 4f       	sbci	r19, 0xFF	; 255
    3682:	4f 4f       	sbci	r20, 0xFF	; 255
    3684:	5f 4f       	sbci	r21, 0xFF	; 255
    3686:	6f 4f       	sbci	r22, 0xFF	; 255
    3688:	7f 4f       	sbci	r23, 0xFF	; 255
    368a:	8f 4f       	sbci	r24, 0xFF	; 255
    368c:	9f 4f       	sbci	r25, 0xFF	; 255
    368e:	08 95       	ret

00003690 <__prologue_saves__>:
    3690:	2f 92       	push	r2
    3692:	3f 92       	push	r3
    3694:	4f 92       	push	r4
    3696:	5f 92       	push	r5
    3698:	6f 92       	push	r6
    369a:	7f 92       	push	r7
    369c:	8f 92       	push	r8
    369e:	9f 92       	push	r9
    36a0:	af 92       	push	r10
    36a2:	bf 92       	push	r11
    36a4:	cf 92       	push	r12
    36a6:	df 92       	push	r13
    36a8:	ef 92       	push	r14
    36aa:	ff 92       	push	r15
    36ac:	0f 93       	push	r16
    36ae:	1f 93       	push	r17
    36b0:	cf 93       	push	r28
    36b2:	df 93       	push	r29
    36b4:	cd b7       	in	r28, 0x3d	; 61
    36b6:	de b7       	in	r29, 0x3e	; 62
    36b8:	ca 1b       	sub	r28, r26
    36ba:	db 0b       	sbc	r29, r27
    36bc:	0f b6       	in	r0, 0x3f	; 63
    36be:	f8 94       	cli
    36c0:	de bf       	out	0x3e, r29	; 62
    36c2:	0f be       	out	0x3f, r0	; 63
    36c4:	cd bf       	out	0x3d, r28	; 61
    36c6:	09 94       	ijmp

000036c8 <__epilogue_restores__>:
    36c8:	2a 88       	ldd	r2, Y+18	; 0x12
    36ca:	39 88       	ldd	r3, Y+17	; 0x11
    36cc:	48 88       	ldd	r4, Y+16	; 0x10
    36ce:	5f 84       	ldd	r5, Y+15	; 0x0f
    36d0:	6e 84       	ldd	r6, Y+14	; 0x0e
    36d2:	7d 84       	ldd	r7, Y+13	; 0x0d
    36d4:	8c 84       	ldd	r8, Y+12	; 0x0c
    36d6:	9b 84       	ldd	r9, Y+11	; 0x0b
    36d8:	aa 84       	ldd	r10, Y+10	; 0x0a
    36da:	b9 84       	ldd	r11, Y+9	; 0x09
    36dc:	c8 84       	ldd	r12, Y+8	; 0x08
    36de:	df 80       	ldd	r13, Y+7	; 0x07
    36e0:	ee 80       	ldd	r14, Y+6	; 0x06
    36e2:	fd 80       	ldd	r15, Y+5	; 0x05
    36e4:	0c 81       	ldd	r16, Y+4	; 0x04
    36e6:	1b 81       	ldd	r17, Y+3	; 0x03
    36e8:	aa 81       	ldd	r26, Y+2	; 0x02
    36ea:	b9 81       	ldd	r27, Y+1	; 0x01
    36ec:	ce 0f       	add	r28, r30
    36ee:	d1 1d       	adc	r29, r1
    36f0:	0f b6       	in	r0, 0x3f	; 63
    36f2:	f8 94       	cli
    36f4:	de bf       	out	0x3e, r29	; 62
    36f6:	0f be       	out	0x3f, r0	; 63
    36f8:	cd bf       	out	0x3d, r28	; 61
    36fa:	ed 01       	movw	r28, r26
    36fc:	08 95       	ret

000036fe <__ashldi3>:
    36fe:	0f 93       	push	r16
    3700:	08 30       	cpi	r16, 0x08	; 8
    3702:	90 f0       	brcs	.+36     	; 0x3728 <__ashldi3+0x2a>
    3704:	98 2f       	mov	r25, r24
    3706:	87 2f       	mov	r24, r23
    3708:	76 2f       	mov	r23, r22
    370a:	65 2f       	mov	r22, r21
    370c:	54 2f       	mov	r21, r20
    370e:	43 2f       	mov	r20, r19
    3710:	32 2f       	mov	r19, r18
    3712:	22 27       	eor	r18, r18
    3714:	08 50       	subi	r16, 0x08	; 8
    3716:	f4 cf       	rjmp	.-24     	; 0x3700 <__ashldi3+0x2>
    3718:	22 0f       	add	r18, r18
    371a:	33 1f       	adc	r19, r19
    371c:	44 1f       	adc	r20, r20
    371e:	55 1f       	adc	r21, r21
    3720:	66 1f       	adc	r22, r22
    3722:	77 1f       	adc	r23, r23
    3724:	88 1f       	adc	r24, r24
    3726:	99 1f       	adc	r25, r25
    3728:	0a 95       	dec	r16
    372a:	b2 f7       	brpl	.-20     	; 0x3718 <__ashldi3+0x1a>
    372c:	0f 91       	pop	r16
    372e:	08 95       	ret

00003730 <__ashrdi3>:
    3730:	97 fb       	bst	r25, 7
    3732:	10 f8       	bld	r1, 0

00003734 <__lshrdi3>:
    3734:	16 94       	lsr	r1
    3736:	00 08       	sbc	r0, r0
    3738:	0f 93       	push	r16
    373a:	08 30       	cpi	r16, 0x08	; 8
    373c:	98 f0       	brcs	.+38     	; 0x3764 <__lshrdi3+0x30>
    373e:	08 50       	subi	r16, 0x08	; 8
    3740:	23 2f       	mov	r18, r19
    3742:	34 2f       	mov	r19, r20
    3744:	45 2f       	mov	r20, r21
    3746:	56 2f       	mov	r21, r22
    3748:	67 2f       	mov	r22, r23
    374a:	78 2f       	mov	r23, r24
    374c:	89 2f       	mov	r24, r25
    374e:	90 2d       	mov	r25, r0
    3750:	f4 cf       	rjmp	.-24     	; 0x373a <__lshrdi3+0x6>
    3752:	05 94       	asr	r0
    3754:	97 95       	ror	r25
    3756:	87 95       	ror	r24
    3758:	77 95       	ror	r23
    375a:	67 95       	ror	r22
    375c:	57 95       	ror	r21
    375e:	47 95       	ror	r20
    3760:	37 95       	ror	r19
    3762:	27 95       	ror	r18
    3764:	0a 95       	dec	r16
    3766:	aa f7       	brpl	.-22     	; 0x3752 <__lshrdi3+0x1e>
    3768:	0f 91       	pop	r16
    376a:	08 95       	ret

0000376c <__adddi3>:
    376c:	2a 0d       	add	r18, r10
    376e:	3b 1d       	adc	r19, r11
    3770:	4c 1d       	adc	r20, r12
    3772:	5d 1d       	adc	r21, r13
    3774:	6e 1d       	adc	r22, r14
    3776:	7f 1d       	adc	r23, r15
    3778:	80 1f       	adc	r24, r16
    377a:	91 1f       	adc	r25, r17
    377c:	08 95       	ret

0000377e <__subdi3>:
    377e:	2a 19       	sub	r18, r10
    3780:	3b 09       	sbc	r19, r11
    3782:	4c 09       	sbc	r20, r12
    3784:	5d 09       	sbc	r21, r13
    3786:	6e 09       	sbc	r22, r14
    3788:	7f 09       	sbc	r23, r15
    378a:	80 0b       	sbc	r24, r16
    378c:	91 0b       	sbc	r25, r17
    378e:	08 95       	ret

00003790 <__cmpdi2_s8>:
    3790:	00 24       	eor	r0, r0
    3792:	a7 fd       	sbrc	r26, 7
    3794:	00 94       	com	r0
    3796:	2a 17       	cp	r18, r26
    3798:	30 05       	cpc	r19, r0
    379a:	40 05       	cpc	r20, r0
    379c:	50 05       	cpc	r21, r0
    379e:	60 05       	cpc	r22, r0
    37a0:	70 05       	cpc	r23, r0
    37a2:	80 05       	cpc	r24, r0
    37a4:	90 05       	cpc	r25, r0
    37a6:	08 95       	ret

000037a8 <__umulhisi3>:
    37a8:	a2 9f       	mul	r26, r18
    37aa:	b0 01       	movw	r22, r0
    37ac:	b3 9f       	mul	r27, r19
    37ae:	c0 01       	movw	r24, r0
    37b0:	a3 9f       	mul	r26, r19
    37b2:	70 0d       	add	r23, r0
    37b4:	81 1d       	adc	r24, r1
    37b6:	11 24       	eor	r1, r1
    37b8:	91 1d       	adc	r25, r1
    37ba:	b2 9f       	mul	r27, r18
    37bc:	70 0d       	add	r23, r0
    37be:	81 1d       	adc	r24, r1
    37c0:	11 24       	eor	r1, r1
    37c2:	91 1d       	adc	r25, r1
    37c4:	08 95       	ret

000037c6 <itoa>:
    37c6:	45 32       	cpi	r20, 0x25	; 37
    37c8:	51 05       	cpc	r21, r1
    37ca:	20 f4       	brcc	.+8      	; 0x37d4 <itoa+0xe>
    37cc:	42 30       	cpi	r20, 0x02	; 2
    37ce:	10 f0       	brcs	.+4      	; 0x37d4 <itoa+0xe>
    37d0:	0c 94 ee 1b 	jmp	0x37dc	; 0x37dc <__itoa_ncheck>
    37d4:	fb 01       	movw	r30, r22
    37d6:	10 82       	st	Z, r1
    37d8:	cb 01       	movw	r24, r22
    37da:	08 95       	ret

000037dc <__itoa_ncheck>:
    37dc:	bb 27       	eor	r27, r27
    37de:	4a 30       	cpi	r20, 0x0A	; 10
    37e0:	31 f4       	brne	.+12     	; 0x37ee <__itoa_ncheck+0x12>
    37e2:	99 23       	and	r25, r25
    37e4:	22 f4       	brpl	.+8      	; 0x37ee <__itoa_ncheck+0x12>
    37e6:	bd e2       	ldi	r27, 0x2D	; 45
    37e8:	90 95       	com	r25
    37ea:	81 95       	neg	r24
    37ec:	9f 4f       	sbci	r25, 0xFF	; 255
    37ee:	0c 94 fa 1b 	jmp	0x37f4	; 0x37f4 <__utoa_common>

000037f2 <__utoa_ncheck>:
    37f2:	bb 27       	eor	r27, r27

000037f4 <__utoa_common>:
    37f4:	fb 01       	movw	r30, r22
    37f6:	55 27       	eor	r21, r21
    37f8:	aa 27       	eor	r26, r26
    37fa:	88 0f       	add	r24, r24
    37fc:	99 1f       	adc	r25, r25
    37fe:	aa 1f       	adc	r26, r26
    3800:	a4 17       	cp	r26, r20
    3802:	10 f0       	brcs	.+4      	; 0x3808 <__utoa_common+0x14>
    3804:	a4 1b       	sub	r26, r20
    3806:	83 95       	inc	r24
    3808:	50 51       	subi	r21, 0x10	; 16
    380a:	b9 f7       	brne	.-18     	; 0x37fa <__utoa_common+0x6>
    380c:	a0 5d       	subi	r26, 0xD0	; 208
    380e:	aa 33       	cpi	r26, 0x3A	; 58
    3810:	08 f0       	brcs	.+2      	; 0x3814 <__utoa_common+0x20>
    3812:	a9 5d       	subi	r26, 0xD9	; 217
    3814:	a1 93       	st	Z+, r26
    3816:	00 97       	sbiw	r24, 0x00	; 0
    3818:	79 f7       	brne	.-34     	; 0x37f8 <__utoa_common+0x4>
    381a:	b1 11       	cpse	r27, r1
    381c:	b1 93       	st	Z+, r27
    381e:	11 92       	st	Z+, r1
    3820:	cb 01       	movw	r24, r22
    3822:	0c 94 2c 1e 	jmp	0x3c58	; 0x3c58 <strrev>

00003826 <sprintf>:
    3826:	ae e0       	ldi	r26, 0x0E	; 14
    3828:	b0 e0       	ldi	r27, 0x00	; 0
    382a:	e9 e1       	ldi	r30, 0x19	; 25
    382c:	fc e1       	ldi	r31, 0x1C	; 28
    382e:	0c 94 56 1b 	jmp	0x36ac	; 0x36ac <__prologue_saves__+0x1c>
    3832:	0d 89       	ldd	r16, Y+21	; 0x15
    3834:	1e 89       	ldd	r17, Y+22	; 0x16
    3836:	86 e0       	ldi	r24, 0x06	; 6
    3838:	8c 83       	std	Y+4, r24	; 0x04
    383a:	1a 83       	std	Y+2, r17	; 0x02
    383c:	09 83       	std	Y+1, r16	; 0x01
    383e:	8f ef       	ldi	r24, 0xFF	; 255
    3840:	9f e7       	ldi	r25, 0x7F	; 127
    3842:	9e 83       	std	Y+6, r25	; 0x06
    3844:	8d 83       	std	Y+5, r24	; 0x05
    3846:	ae 01       	movw	r20, r28
    3848:	47 5e       	subi	r20, 0xE7	; 231
    384a:	5f 4f       	sbci	r21, 0xFF	; 255
    384c:	6f 89       	ldd	r22, Y+23	; 0x17
    384e:	78 8d       	ldd	r23, Y+24	; 0x18
    3850:	ce 01       	movw	r24, r28
    3852:	01 96       	adiw	r24, 0x01	; 1
    3854:	0e 94 35 1c 	call	0x386a	; 0x386a <vfprintf>
    3858:	ef 81       	ldd	r30, Y+7	; 0x07
    385a:	f8 85       	ldd	r31, Y+8	; 0x08
    385c:	e0 0f       	add	r30, r16
    385e:	f1 1f       	adc	r31, r17
    3860:	10 82       	st	Z, r1
    3862:	2e 96       	adiw	r28, 0x0e	; 14
    3864:	e4 e0       	ldi	r30, 0x04	; 4
    3866:	0c 94 72 1b 	jmp	0x36e4	; 0x36e4 <__epilogue_restores__+0x1c>

0000386a <vfprintf>:
    386a:	ab e0       	ldi	r26, 0x0B	; 11
    386c:	b0 e0       	ldi	r27, 0x00	; 0
    386e:	eb e3       	ldi	r30, 0x3B	; 59
    3870:	fc e1       	ldi	r31, 0x1C	; 28
    3872:	0c 94 48 1b 	jmp	0x3690	; 0x3690 <__prologue_saves__>
    3876:	6c 01       	movw	r12, r24
    3878:	7b 01       	movw	r14, r22
    387a:	8a 01       	movw	r16, r20
    387c:	fc 01       	movw	r30, r24
    387e:	17 82       	std	Z+7, r1	; 0x07
    3880:	16 82       	std	Z+6, r1	; 0x06
    3882:	83 81       	ldd	r24, Z+3	; 0x03
    3884:	81 ff       	sbrs	r24, 1
    3886:	cc c1       	rjmp	.+920    	; 0x3c20 <vfprintf+0x3b6>
    3888:	ce 01       	movw	r24, r28
    388a:	01 96       	adiw	r24, 0x01	; 1
    388c:	3c 01       	movw	r6, r24
    388e:	f6 01       	movw	r30, r12
    3890:	93 81       	ldd	r25, Z+3	; 0x03
    3892:	f7 01       	movw	r30, r14
    3894:	93 fd       	sbrc	r25, 3
    3896:	85 91       	lpm	r24, Z+
    3898:	93 ff       	sbrs	r25, 3
    389a:	81 91       	ld	r24, Z+
    389c:	7f 01       	movw	r14, r30
    389e:	88 23       	and	r24, r24
    38a0:	09 f4       	brne	.+2      	; 0x38a4 <vfprintf+0x3a>
    38a2:	ba c1       	rjmp	.+884    	; 0x3c18 <vfprintf+0x3ae>
    38a4:	85 32       	cpi	r24, 0x25	; 37
    38a6:	39 f4       	brne	.+14     	; 0x38b6 <vfprintf+0x4c>
    38a8:	93 fd       	sbrc	r25, 3
    38aa:	85 91       	lpm	r24, Z+
    38ac:	93 ff       	sbrs	r25, 3
    38ae:	81 91       	ld	r24, Z+
    38b0:	7f 01       	movw	r14, r30
    38b2:	85 32       	cpi	r24, 0x25	; 37
    38b4:	29 f4       	brne	.+10     	; 0x38c0 <vfprintf+0x56>
    38b6:	b6 01       	movw	r22, r12
    38b8:	90 e0       	ldi	r25, 0x00	; 0
    38ba:	0e 94 3c 1e 	call	0x3c78	; 0x3c78 <fputc>
    38be:	e7 cf       	rjmp	.-50     	; 0x388e <vfprintf+0x24>
    38c0:	91 2c       	mov	r9, r1
    38c2:	21 2c       	mov	r2, r1
    38c4:	31 2c       	mov	r3, r1
    38c6:	ff e1       	ldi	r31, 0x1F	; 31
    38c8:	f3 15       	cp	r31, r3
    38ca:	d8 f0       	brcs	.+54     	; 0x3902 <vfprintf+0x98>
    38cc:	8b 32       	cpi	r24, 0x2B	; 43
    38ce:	79 f0       	breq	.+30     	; 0x38ee <vfprintf+0x84>
    38d0:	38 f4       	brcc	.+14     	; 0x38e0 <vfprintf+0x76>
    38d2:	80 32       	cpi	r24, 0x20	; 32
    38d4:	79 f0       	breq	.+30     	; 0x38f4 <vfprintf+0x8a>
    38d6:	83 32       	cpi	r24, 0x23	; 35
    38d8:	a1 f4       	brne	.+40     	; 0x3902 <vfprintf+0x98>
    38da:	23 2d       	mov	r18, r3
    38dc:	20 61       	ori	r18, 0x10	; 16
    38de:	1d c0       	rjmp	.+58     	; 0x391a <vfprintf+0xb0>
    38e0:	8d 32       	cpi	r24, 0x2D	; 45
    38e2:	61 f0       	breq	.+24     	; 0x38fc <vfprintf+0x92>
    38e4:	80 33       	cpi	r24, 0x30	; 48
    38e6:	69 f4       	brne	.+26     	; 0x3902 <vfprintf+0x98>
    38e8:	23 2d       	mov	r18, r3
    38ea:	21 60       	ori	r18, 0x01	; 1
    38ec:	16 c0       	rjmp	.+44     	; 0x391a <vfprintf+0xb0>
    38ee:	83 2d       	mov	r24, r3
    38f0:	82 60       	ori	r24, 0x02	; 2
    38f2:	38 2e       	mov	r3, r24
    38f4:	e3 2d       	mov	r30, r3
    38f6:	e4 60       	ori	r30, 0x04	; 4
    38f8:	3e 2e       	mov	r3, r30
    38fa:	2a c0       	rjmp	.+84     	; 0x3950 <vfprintf+0xe6>
    38fc:	f3 2d       	mov	r31, r3
    38fe:	f8 60       	ori	r31, 0x08	; 8
    3900:	1d c0       	rjmp	.+58     	; 0x393c <vfprintf+0xd2>
    3902:	37 fc       	sbrc	r3, 7
    3904:	2d c0       	rjmp	.+90     	; 0x3960 <vfprintf+0xf6>
    3906:	20 ed       	ldi	r18, 0xD0	; 208
    3908:	28 0f       	add	r18, r24
    390a:	2a 30       	cpi	r18, 0x0A	; 10
    390c:	40 f0       	brcs	.+16     	; 0x391e <vfprintf+0xb4>
    390e:	8e 32       	cpi	r24, 0x2E	; 46
    3910:	b9 f4       	brne	.+46     	; 0x3940 <vfprintf+0xd6>
    3912:	36 fc       	sbrc	r3, 6
    3914:	81 c1       	rjmp	.+770    	; 0x3c18 <vfprintf+0x3ae>
    3916:	23 2d       	mov	r18, r3
    3918:	20 64       	ori	r18, 0x40	; 64
    391a:	32 2e       	mov	r3, r18
    391c:	19 c0       	rjmp	.+50     	; 0x3950 <vfprintf+0xe6>
    391e:	36 fe       	sbrs	r3, 6
    3920:	06 c0       	rjmp	.+12     	; 0x392e <vfprintf+0xc4>
    3922:	8a e0       	ldi	r24, 0x0A	; 10
    3924:	98 9e       	mul	r9, r24
    3926:	20 0d       	add	r18, r0
    3928:	11 24       	eor	r1, r1
    392a:	92 2e       	mov	r9, r18
    392c:	11 c0       	rjmp	.+34     	; 0x3950 <vfprintf+0xe6>
    392e:	ea e0       	ldi	r30, 0x0A	; 10
    3930:	2e 9e       	mul	r2, r30
    3932:	20 0d       	add	r18, r0
    3934:	11 24       	eor	r1, r1
    3936:	22 2e       	mov	r2, r18
    3938:	f3 2d       	mov	r31, r3
    393a:	f0 62       	ori	r31, 0x20	; 32
    393c:	3f 2e       	mov	r3, r31
    393e:	08 c0       	rjmp	.+16     	; 0x3950 <vfprintf+0xe6>
    3940:	8c 36       	cpi	r24, 0x6C	; 108
    3942:	21 f4       	brne	.+8      	; 0x394c <vfprintf+0xe2>
    3944:	83 2d       	mov	r24, r3
    3946:	80 68       	ori	r24, 0x80	; 128
    3948:	38 2e       	mov	r3, r24
    394a:	02 c0       	rjmp	.+4      	; 0x3950 <vfprintf+0xe6>
    394c:	88 36       	cpi	r24, 0x68	; 104
    394e:	41 f4       	brne	.+16     	; 0x3960 <vfprintf+0xf6>
    3950:	f7 01       	movw	r30, r14
    3952:	93 fd       	sbrc	r25, 3
    3954:	85 91       	lpm	r24, Z+
    3956:	93 ff       	sbrs	r25, 3
    3958:	81 91       	ld	r24, Z+
    395a:	7f 01       	movw	r14, r30
    395c:	81 11       	cpse	r24, r1
    395e:	b3 cf       	rjmp	.-154    	; 0x38c6 <vfprintf+0x5c>
    3960:	98 2f       	mov	r25, r24
    3962:	9f 7d       	andi	r25, 0xDF	; 223
    3964:	95 54       	subi	r25, 0x45	; 69
    3966:	93 30       	cpi	r25, 0x03	; 3
    3968:	28 f4       	brcc	.+10     	; 0x3974 <vfprintf+0x10a>
    396a:	0c 5f       	subi	r16, 0xFC	; 252
    396c:	1f 4f       	sbci	r17, 0xFF	; 255
    396e:	9f e3       	ldi	r25, 0x3F	; 63
    3970:	99 83       	std	Y+1, r25	; 0x01
    3972:	0d c0       	rjmp	.+26     	; 0x398e <vfprintf+0x124>
    3974:	83 36       	cpi	r24, 0x63	; 99
    3976:	31 f0       	breq	.+12     	; 0x3984 <vfprintf+0x11a>
    3978:	83 37       	cpi	r24, 0x73	; 115
    397a:	71 f0       	breq	.+28     	; 0x3998 <vfprintf+0x12e>
    397c:	83 35       	cpi	r24, 0x53	; 83
    397e:	09 f0       	breq	.+2      	; 0x3982 <vfprintf+0x118>
    3980:	59 c0       	rjmp	.+178    	; 0x3a34 <vfprintf+0x1ca>
    3982:	21 c0       	rjmp	.+66     	; 0x39c6 <vfprintf+0x15c>
    3984:	f8 01       	movw	r30, r16
    3986:	80 81       	ld	r24, Z
    3988:	89 83       	std	Y+1, r24	; 0x01
    398a:	0e 5f       	subi	r16, 0xFE	; 254
    398c:	1f 4f       	sbci	r17, 0xFF	; 255
    398e:	88 24       	eor	r8, r8
    3990:	83 94       	inc	r8
    3992:	91 2c       	mov	r9, r1
    3994:	53 01       	movw	r10, r6
    3996:	13 c0       	rjmp	.+38     	; 0x39be <vfprintf+0x154>
    3998:	28 01       	movw	r4, r16
    399a:	f2 e0       	ldi	r31, 0x02	; 2
    399c:	4f 0e       	add	r4, r31
    399e:	51 1c       	adc	r5, r1
    39a0:	f8 01       	movw	r30, r16
    39a2:	a0 80       	ld	r10, Z
    39a4:	b1 80       	ldd	r11, Z+1	; 0x01
    39a6:	36 fe       	sbrs	r3, 6
    39a8:	03 c0       	rjmp	.+6      	; 0x39b0 <vfprintf+0x146>
    39aa:	69 2d       	mov	r22, r9
    39ac:	70 e0       	ldi	r23, 0x00	; 0
    39ae:	02 c0       	rjmp	.+4      	; 0x39b4 <vfprintf+0x14a>
    39b0:	6f ef       	ldi	r22, 0xFF	; 255
    39b2:	7f ef       	ldi	r23, 0xFF	; 255
    39b4:	c5 01       	movw	r24, r10
    39b6:	0e 94 21 1e 	call	0x3c42	; 0x3c42 <strnlen>
    39ba:	4c 01       	movw	r8, r24
    39bc:	82 01       	movw	r16, r4
    39be:	f3 2d       	mov	r31, r3
    39c0:	ff 77       	andi	r31, 0x7F	; 127
    39c2:	3f 2e       	mov	r3, r31
    39c4:	16 c0       	rjmp	.+44     	; 0x39f2 <vfprintf+0x188>
    39c6:	28 01       	movw	r4, r16
    39c8:	22 e0       	ldi	r18, 0x02	; 2
    39ca:	42 0e       	add	r4, r18
    39cc:	51 1c       	adc	r5, r1
    39ce:	f8 01       	movw	r30, r16
    39d0:	a0 80       	ld	r10, Z
    39d2:	b1 80       	ldd	r11, Z+1	; 0x01
    39d4:	36 fe       	sbrs	r3, 6
    39d6:	03 c0       	rjmp	.+6      	; 0x39de <vfprintf+0x174>
    39d8:	69 2d       	mov	r22, r9
    39da:	70 e0       	ldi	r23, 0x00	; 0
    39dc:	02 c0       	rjmp	.+4      	; 0x39e2 <vfprintf+0x178>
    39de:	6f ef       	ldi	r22, 0xFF	; 255
    39e0:	7f ef       	ldi	r23, 0xFF	; 255
    39e2:	c5 01       	movw	r24, r10
    39e4:	0e 94 16 1e 	call	0x3c2c	; 0x3c2c <strnlen_P>
    39e8:	4c 01       	movw	r8, r24
    39ea:	f3 2d       	mov	r31, r3
    39ec:	f0 68       	ori	r31, 0x80	; 128
    39ee:	3f 2e       	mov	r3, r31
    39f0:	82 01       	movw	r16, r4
    39f2:	33 fc       	sbrc	r3, 3
    39f4:	1b c0       	rjmp	.+54     	; 0x3a2c <vfprintf+0x1c2>
    39f6:	82 2d       	mov	r24, r2
    39f8:	90 e0       	ldi	r25, 0x00	; 0
    39fa:	88 16       	cp	r8, r24
    39fc:	99 06       	cpc	r9, r25
    39fe:	b0 f4       	brcc	.+44     	; 0x3a2c <vfprintf+0x1c2>
    3a00:	b6 01       	movw	r22, r12
    3a02:	80 e2       	ldi	r24, 0x20	; 32
    3a04:	90 e0       	ldi	r25, 0x00	; 0
    3a06:	0e 94 3c 1e 	call	0x3c78	; 0x3c78 <fputc>
    3a0a:	2a 94       	dec	r2
    3a0c:	f4 cf       	rjmp	.-24     	; 0x39f6 <vfprintf+0x18c>
    3a0e:	f5 01       	movw	r30, r10
    3a10:	37 fc       	sbrc	r3, 7
    3a12:	85 91       	lpm	r24, Z+
    3a14:	37 fe       	sbrs	r3, 7
    3a16:	81 91       	ld	r24, Z+
    3a18:	5f 01       	movw	r10, r30
    3a1a:	b6 01       	movw	r22, r12
    3a1c:	90 e0       	ldi	r25, 0x00	; 0
    3a1e:	0e 94 3c 1e 	call	0x3c78	; 0x3c78 <fputc>
    3a22:	21 10       	cpse	r2, r1
    3a24:	2a 94       	dec	r2
    3a26:	21 e0       	ldi	r18, 0x01	; 1
    3a28:	82 1a       	sub	r8, r18
    3a2a:	91 08       	sbc	r9, r1
    3a2c:	81 14       	cp	r8, r1
    3a2e:	91 04       	cpc	r9, r1
    3a30:	71 f7       	brne	.-36     	; 0x3a0e <vfprintf+0x1a4>
    3a32:	e8 c0       	rjmp	.+464    	; 0x3c04 <vfprintf+0x39a>
    3a34:	84 36       	cpi	r24, 0x64	; 100
    3a36:	11 f0       	breq	.+4      	; 0x3a3c <vfprintf+0x1d2>
    3a38:	89 36       	cpi	r24, 0x69	; 105
    3a3a:	41 f5       	brne	.+80     	; 0x3a8c <vfprintf+0x222>
    3a3c:	f8 01       	movw	r30, r16
    3a3e:	37 fe       	sbrs	r3, 7
    3a40:	07 c0       	rjmp	.+14     	; 0x3a50 <vfprintf+0x1e6>
    3a42:	60 81       	ld	r22, Z
    3a44:	71 81       	ldd	r23, Z+1	; 0x01
    3a46:	82 81       	ldd	r24, Z+2	; 0x02
    3a48:	93 81       	ldd	r25, Z+3	; 0x03
    3a4a:	0c 5f       	subi	r16, 0xFC	; 252
    3a4c:	1f 4f       	sbci	r17, 0xFF	; 255
    3a4e:	08 c0       	rjmp	.+16     	; 0x3a60 <vfprintf+0x1f6>
    3a50:	60 81       	ld	r22, Z
    3a52:	71 81       	ldd	r23, Z+1	; 0x01
    3a54:	07 2e       	mov	r0, r23
    3a56:	00 0c       	add	r0, r0
    3a58:	88 0b       	sbc	r24, r24
    3a5a:	99 0b       	sbc	r25, r25
    3a5c:	0e 5f       	subi	r16, 0xFE	; 254
    3a5e:	1f 4f       	sbci	r17, 0xFF	; 255
    3a60:	f3 2d       	mov	r31, r3
    3a62:	ff 76       	andi	r31, 0x6F	; 111
    3a64:	3f 2e       	mov	r3, r31
    3a66:	97 ff       	sbrs	r25, 7
    3a68:	09 c0       	rjmp	.+18     	; 0x3a7c <vfprintf+0x212>
    3a6a:	90 95       	com	r25
    3a6c:	80 95       	com	r24
    3a6e:	70 95       	com	r23
    3a70:	61 95       	neg	r22
    3a72:	7f 4f       	sbci	r23, 0xFF	; 255
    3a74:	8f 4f       	sbci	r24, 0xFF	; 255
    3a76:	9f 4f       	sbci	r25, 0xFF	; 255
    3a78:	f0 68       	ori	r31, 0x80	; 128
    3a7a:	3f 2e       	mov	r3, r31
    3a7c:	2a e0       	ldi	r18, 0x0A	; 10
    3a7e:	30 e0       	ldi	r19, 0x00	; 0
    3a80:	a3 01       	movw	r20, r6
    3a82:	0e 94 78 1e 	call	0x3cf0	; 0x3cf0 <__ultoa_invert>
    3a86:	88 2e       	mov	r8, r24
    3a88:	86 18       	sub	r8, r6
    3a8a:	45 c0       	rjmp	.+138    	; 0x3b16 <vfprintf+0x2ac>
    3a8c:	85 37       	cpi	r24, 0x75	; 117
    3a8e:	31 f4       	brne	.+12     	; 0x3a9c <vfprintf+0x232>
    3a90:	23 2d       	mov	r18, r3
    3a92:	2f 7e       	andi	r18, 0xEF	; 239
    3a94:	b2 2e       	mov	r11, r18
    3a96:	2a e0       	ldi	r18, 0x0A	; 10
    3a98:	30 e0       	ldi	r19, 0x00	; 0
    3a9a:	25 c0       	rjmp	.+74     	; 0x3ae6 <vfprintf+0x27c>
    3a9c:	93 2d       	mov	r25, r3
    3a9e:	99 7f       	andi	r25, 0xF9	; 249
    3aa0:	b9 2e       	mov	r11, r25
    3aa2:	8f 36       	cpi	r24, 0x6F	; 111
    3aa4:	c1 f0       	breq	.+48     	; 0x3ad6 <vfprintf+0x26c>
    3aa6:	18 f4       	brcc	.+6      	; 0x3aae <vfprintf+0x244>
    3aa8:	88 35       	cpi	r24, 0x58	; 88
    3aaa:	79 f0       	breq	.+30     	; 0x3aca <vfprintf+0x260>
    3aac:	b5 c0       	rjmp	.+362    	; 0x3c18 <vfprintf+0x3ae>
    3aae:	80 37       	cpi	r24, 0x70	; 112
    3ab0:	19 f0       	breq	.+6      	; 0x3ab8 <vfprintf+0x24e>
    3ab2:	88 37       	cpi	r24, 0x78	; 120
    3ab4:	21 f0       	breq	.+8      	; 0x3abe <vfprintf+0x254>
    3ab6:	b0 c0       	rjmp	.+352    	; 0x3c18 <vfprintf+0x3ae>
    3ab8:	e9 2f       	mov	r30, r25
    3aba:	e0 61       	ori	r30, 0x10	; 16
    3abc:	be 2e       	mov	r11, r30
    3abe:	b4 fe       	sbrs	r11, 4
    3ac0:	0d c0       	rjmp	.+26     	; 0x3adc <vfprintf+0x272>
    3ac2:	fb 2d       	mov	r31, r11
    3ac4:	f4 60       	ori	r31, 0x04	; 4
    3ac6:	bf 2e       	mov	r11, r31
    3ac8:	09 c0       	rjmp	.+18     	; 0x3adc <vfprintf+0x272>
    3aca:	34 fe       	sbrs	r3, 4
    3acc:	0a c0       	rjmp	.+20     	; 0x3ae2 <vfprintf+0x278>
    3ace:	29 2f       	mov	r18, r25
    3ad0:	26 60       	ori	r18, 0x06	; 6
    3ad2:	b2 2e       	mov	r11, r18
    3ad4:	06 c0       	rjmp	.+12     	; 0x3ae2 <vfprintf+0x278>
    3ad6:	28 e0       	ldi	r18, 0x08	; 8
    3ad8:	30 e0       	ldi	r19, 0x00	; 0
    3ada:	05 c0       	rjmp	.+10     	; 0x3ae6 <vfprintf+0x27c>
    3adc:	20 e1       	ldi	r18, 0x10	; 16
    3ade:	30 e0       	ldi	r19, 0x00	; 0
    3ae0:	02 c0       	rjmp	.+4      	; 0x3ae6 <vfprintf+0x27c>
    3ae2:	20 e1       	ldi	r18, 0x10	; 16
    3ae4:	32 e0       	ldi	r19, 0x02	; 2
    3ae6:	f8 01       	movw	r30, r16
    3ae8:	b7 fe       	sbrs	r11, 7
    3aea:	07 c0       	rjmp	.+14     	; 0x3afa <vfprintf+0x290>
    3aec:	60 81       	ld	r22, Z
    3aee:	71 81       	ldd	r23, Z+1	; 0x01
    3af0:	82 81       	ldd	r24, Z+2	; 0x02
    3af2:	93 81       	ldd	r25, Z+3	; 0x03
    3af4:	0c 5f       	subi	r16, 0xFC	; 252
    3af6:	1f 4f       	sbci	r17, 0xFF	; 255
    3af8:	06 c0       	rjmp	.+12     	; 0x3b06 <vfprintf+0x29c>
    3afa:	60 81       	ld	r22, Z
    3afc:	71 81       	ldd	r23, Z+1	; 0x01
    3afe:	80 e0       	ldi	r24, 0x00	; 0
    3b00:	90 e0       	ldi	r25, 0x00	; 0
    3b02:	0e 5f       	subi	r16, 0xFE	; 254
    3b04:	1f 4f       	sbci	r17, 0xFF	; 255
    3b06:	a3 01       	movw	r20, r6
    3b08:	0e 94 78 1e 	call	0x3cf0	; 0x3cf0 <__ultoa_invert>
    3b0c:	88 2e       	mov	r8, r24
    3b0e:	86 18       	sub	r8, r6
    3b10:	fb 2d       	mov	r31, r11
    3b12:	ff 77       	andi	r31, 0x7F	; 127
    3b14:	3f 2e       	mov	r3, r31
    3b16:	36 fe       	sbrs	r3, 6
    3b18:	0d c0       	rjmp	.+26     	; 0x3b34 <vfprintf+0x2ca>
    3b1a:	23 2d       	mov	r18, r3
    3b1c:	2e 7f       	andi	r18, 0xFE	; 254
    3b1e:	a2 2e       	mov	r10, r18
    3b20:	89 14       	cp	r8, r9
    3b22:	58 f4       	brcc	.+22     	; 0x3b3a <vfprintf+0x2d0>
    3b24:	34 fe       	sbrs	r3, 4
    3b26:	0b c0       	rjmp	.+22     	; 0x3b3e <vfprintf+0x2d4>
    3b28:	32 fc       	sbrc	r3, 2
    3b2a:	09 c0       	rjmp	.+18     	; 0x3b3e <vfprintf+0x2d4>
    3b2c:	83 2d       	mov	r24, r3
    3b2e:	8e 7e       	andi	r24, 0xEE	; 238
    3b30:	a8 2e       	mov	r10, r24
    3b32:	05 c0       	rjmp	.+10     	; 0x3b3e <vfprintf+0x2d4>
    3b34:	b8 2c       	mov	r11, r8
    3b36:	a3 2c       	mov	r10, r3
    3b38:	03 c0       	rjmp	.+6      	; 0x3b40 <vfprintf+0x2d6>
    3b3a:	b8 2c       	mov	r11, r8
    3b3c:	01 c0       	rjmp	.+2      	; 0x3b40 <vfprintf+0x2d6>
    3b3e:	b9 2c       	mov	r11, r9
    3b40:	a4 fe       	sbrs	r10, 4
    3b42:	0f c0       	rjmp	.+30     	; 0x3b62 <vfprintf+0x2f8>
    3b44:	fe 01       	movw	r30, r28
    3b46:	e8 0d       	add	r30, r8
    3b48:	f1 1d       	adc	r31, r1
    3b4a:	80 81       	ld	r24, Z
    3b4c:	80 33       	cpi	r24, 0x30	; 48
    3b4e:	21 f4       	brne	.+8      	; 0x3b58 <vfprintf+0x2ee>
    3b50:	9a 2d       	mov	r25, r10
    3b52:	99 7e       	andi	r25, 0xE9	; 233
    3b54:	a9 2e       	mov	r10, r25
    3b56:	09 c0       	rjmp	.+18     	; 0x3b6a <vfprintf+0x300>
    3b58:	a2 fe       	sbrs	r10, 2
    3b5a:	06 c0       	rjmp	.+12     	; 0x3b68 <vfprintf+0x2fe>
    3b5c:	b3 94       	inc	r11
    3b5e:	b3 94       	inc	r11
    3b60:	04 c0       	rjmp	.+8      	; 0x3b6a <vfprintf+0x300>
    3b62:	8a 2d       	mov	r24, r10
    3b64:	86 78       	andi	r24, 0x86	; 134
    3b66:	09 f0       	breq	.+2      	; 0x3b6a <vfprintf+0x300>
    3b68:	b3 94       	inc	r11
    3b6a:	a3 fc       	sbrc	r10, 3
    3b6c:	11 c0       	rjmp	.+34     	; 0x3b90 <vfprintf+0x326>
    3b6e:	a0 fe       	sbrs	r10, 0
    3b70:	06 c0       	rjmp	.+12     	; 0x3b7e <vfprintf+0x314>
    3b72:	b2 14       	cp	r11, r2
    3b74:	88 f4       	brcc	.+34     	; 0x3b98 <vfprintf+0x32e>
    3b76:	28 0c       	add	r2, r8
    3b78:	92 2c       	mov	r9, r2
    3b7a:	9b 18       	sub	r9, r11
    3b7c:	0e c0       	rjmp	.+28     	; 0x3b9a <vfprintf+0x330>
    3b7e:	b2 14       	cp	r11, r2
    3b80:	60 f4       	brcc	.+24     	; 0x3b9a <vfprintf+0x330>
    3b82:	b6 01       	movw	r22, r12
    3b84:	80 e2       	ldi	r24, 0x20	; 32
    3b86:	90 e0       	ldi	r25, 0x00	; 0
    3b88:	0e 94 3c 1e 	call	0x3c78	; 0x3c78 <fputc>
    3b8c:	b3 94       	inc	r11
    3b8e:	f7 cf       	rjmp	.-18     	; 0x3b7e <vfprintf+0x314>
    3b90:	b2 14       	cp	r11, r2
    3b92:	18 f4       	brcc	.+6      	; 0x3b9a <vfprintf+0x330>
    3b94:	2b 18       	sub	r2, r11
    3b96:	02 c0       	rjmp	.+4      	; 0x3b9c <vfprintf+0x332>
    3b98:	98 2c       	mov	r9, r8
    3b9a:	21 2c       	mov	r2, r1
    3b9c:	a4 fe       	sbrs	r10, 4
    3b9e:	10 c0       	rjmp	.+32     	; 0x3bc0 <vfprintf+0x356>
    3ba0:	b6 01       	movw	r22, r12
    3ba2:	80 e3       	ldi	r24, 0x30	; 48
    3ba4:	90 e0       	ldi	r25, 0x00	; 0
    3ba6:	0e 94 3c 1e 	call	0x3c78	; 0x3c78 <fputc>
    3baa:	a2 fe       	sbrs	r10, 2
    3bac:	17 c0       	rjmp	.+46     	; 0x3bdc <vfprintf+0x372>
    3bae:	a1 fc       	sbrc	r10, 1
    3bb0:	03 c0       	rjmp	.+6      	; 0x3bb8 <vfprintf+0x34e>
    3bb2:	88 e7       	ldi	r24, 0x78	; 120
    3bb4:	90 e0       	ldi	r25, 0x00	; 0
    3bb6:	02 c0       	rjmp	.+4      	; 0x3bbc <vfprintf+0x352>
    3bb8:	88 e5       	ldi	r24, 0x58	; 88
    3bba:	90 e0       	ldi	r25, 0x00	; 0
    3bbc:	b6 01       	movw	r22, r12
    3bbe:	0c c0       	rjmp	.+24     	; 0x3bd8 <vfprintf+0x36e>
    3bc0:	8a 2d       	mov	r24, r10
    3bc2:	86 78       	andi	r24, 0x86	; 134
    3bc4:	59 f0       	breq	.+22     	; 0x3bdc <vfprintf+0x372>
    3bc6:	a1 fe       	sbrs	r10, 1
    3bc8:	02 c0       	rjmp	.+4      	; 0x3bce <vfprintf+0x364>
    3bca:	8b e2       	ldi	r24, 0x2B	; 43
    3bcc:	01 c0       	rjmp	.+2      	; 0x3bd0 <vfprintf+0x366>
    3bce:	80 e2       	ldi	r24, 0x20	; 32
    3bd0:	a7 fc       	sbrc	r10, 7
    3bd2:	8d e2       	ldi	r24, 0x2D	; 45
    3bd4:	b6 01       	movw	r22, r12
    3bd6:	90 e0       	ldi	r25, 0x00	; 0
    3bd8:	0e 94 3c 1e 	call	0x3c78	; 0x3c78 <fputc>
    3bdc:	89 14       	cp	r8, r9
    3bde:	38 f4       	brcc	.+14     	; 0x3bee <vfprintf+0x384>
    3be0:	b6 01       	movw	r22, r12
    3be2:	80 e3       	ldi	r24, 0x30	; 48
    3be4:	90 e0       	ldi	r25, 0x00	; 0
    3be6:	0e 94 3c 1e 	call	0x3c78	; 0x3c78 <fputc>
    3bea:	9a 94       	dec	r9
    3bec:	f7 cf       	rjmp	.-18     	; 0x3bdc <vfprintf+0x372>
    3bee:	8a 94       	dec	r8
    3bf0:	f3 01       	movw	r30, r6
    3bf2:	e8 0d       	add	r30, r8
    3bf4:	f1 1d       	adc	r31, r1
    3bf6:	80 81       	ld	r24, Z
    3bf8:	b6 01       	movw	r22, r12
    3bfa:	90 e0       	ldi	r25, 0x00	; 0
    3bfc:	0e 94 3c 1e 	call	0x3c78	; 0x3c78 <fputc>
    3c00:	81 10       	cpse	r8, r1
    3c02:	f5 cf       	rjmp	.-22     	; 0x3bee <vfprintf+0x384>
    3c04:	22 20       	and	r2, r2
    3c06:	09 f4       	brne	.+2      	; 0x3c0a <vfprintf+0x3a0>
    3c08:	42 ce       	rjmp	.-892    	; 0x388e <vfprintf+0x24>
    3c0a:	b6 01       	movw	r22, r12
    3c0c:	80 e2       	ldi	r24, 0x20	; 32
    3c0e:	90 e0       	ldi	r25, 0x00	; 0
    3c10:	0e 94 3c 1e 	call	0x3c78	; 0x3c78 <fputc>
    3c14:	2a 94       	dec	r2
    3c16:	f6 cf       	rjmp	.-20     	; 0x3c04 <vfprintf+0x39a>
    3c18:	f6 01       	movw	r30, r12
    3c1a:	86 81       	ldd	r24, Z+6	; 0x06
    3c1c:	97 81       	ldd	r25, Z+7	; 0x07
    3c1e:	02 c0       	rjmp	.+4      	; 0x3c24 <vfprintf+0x3ba>
    3c20:	8f ef       	ldi	r24, 0xFF	; 255
    3c22:	9f ef       	ldi	r25, 0xFF	; 255
    3c24:	2b 96       	adiw	r28, 0x0b	; 11
    3c26:	e2 e1       	ldi	r30, 0x12	; 18
    3c28:	0c 94 64 1b 	jmp	0x36c8	; 0x36c8 <__epilogue_restores__>

00003c2c <strnlen_P>:
    3c2c:	fc 01       	movw	r30, r24
    3c2e:	05 90       	lpm	r0, Z+
    3c30:	61 50       	subi	r22, 0x01	; 1
    3c32:	70 40       	sbci	r23, 0x00	; 0
    3c34:	01 10       	cpse	r0, r1
    3c36:	d8 f7       	brcc	.-10     	; 0x3c2e <strnlen_P+0x2>
    3c38:	80 95       	com	r24
    3c3a:	90 95       	com	r25
    3c3c:	8e 0f       	add	r24, r30
    3c3e:	9f 1f       	adc	r25, r31
    3c40:	08 95       	ret

00003c42 <strnlen>:
    3c42:	fc 01       	movw	r30, r24
    3c44:	61 50       	subi	r22, 0x01	; 1
    3c46:	70 40       	sbci	r23, 0x00	; 0
    3c48:	01 90       	ld	r0, Z+
    3c4a:	01 10       	cpse	r0, r1
    3c4c:	d8 f7       	brcc	.-10     	; 0x3c44 <strnlen+0x2>
    3c4e:	80 95       	com	r24
    3c50:	90 95       	com	r25
    3c52:	8e 0f       	add	r24, r30
    3c54:	9f 1f       	adc	r25, r31
    3c56:	08 95       	ret

00003c58 <strrev>:
    3c58:	dc 01       	movw	r26, r24
    3c5a:	fc 01       	movw	r30, r24
    3c5c:	67 2f       	mov	r22, r23
    3c5e:	71 91       	ld	r23, Z+
    3c60:	77 23       	and	r23, r23
    3c62:	e1 f7       	brne	.-8      	; 0x3c5c <strrev+0x4>
    3c64:	32 97       	sbiw	r30, 0x02	; 2
    3c66:	04 c0       	rjmp	.+8      	; 0x3c70 <strrev+0x18>
    3c68:	7c 91       	ld	r23, X
    3c6a:	6d 93       	st	X+, r22
    3c6c:	70 83       	st	Z, r23
    3c6e:	62 91       	ld	r22, -Z
    3c70:	ae 17       	cp	r26, r30
    3c72:	bf 07       	cpc	r27, r31
    3c74:	c8 f3       	brcs	.-14     	; 0x3c68 <strrev+0x10>
    3c76:	08 95       	ret

00003c78 <fputc>:
    3c78:	0f 93       	push	r16
    3c7a:	1f 93       	push	r17
    3c7c:	cf 93       	push	r28
    3c7e:	df 93       	push	r29
    3c80:	fb 01       	movw	r30, r22
    3c82:	23 81       	ldd	r18, Z+3	; 0x03
    3c84:	21 fd       	sbrc	r18, 1
    3c86:	03 c0       	rjmp	.+6      	; 0x3c8e <fputc+0x16>
    3c88:	8f ef       	ldi	r24, 0xFF	; 255
    3c8a:	9f ef       	ldi	r25, 0xFF	; 255
    3c8c:	2c c0       	rjmp	.+88     	; 0x3ce6 <fputc+0x6e>
    3c8e:	22 ff       	sbrs	r18, 2
    3c90:	16 c0       	rjmp	.+44     	; 0x3cbe <fputc+0x46>
    3c92:	46 81       	ldd	r20, Z+6	; 0x06
    3c94:	57 81       	ldd	r21, Z+7	; 0x07
    3c96:	24 81       	ldd	r18, Z+4	; 0x04
    3c98:	35 81       	ldd	r19, Z+5	; 0x05
    3c9a:	42 17       	cp	r20, r18
    3c9c:	53 07       	cpc	r21, r19
    3c9e:	44 f4       	brge	.+16     	; 0x3cb0 <fputc+0x38>
    3ca0:	a0 81       	ld	r26, Z
    3ca2:	b1 81       	ldd	r27, Z+1	; 0x01
    3ca4:	9d 01       	movw	r18, r26
    3ca6:	2f 5f       	subi	r18, 0xFF	; 255
    3ca8:	3f 4f       	sbci	r19, 0xFF	; 255
    3caa:	31 83       	std	Z+1, r19	; 0x01
    3cac:	20 83       	st	Z, r18
    3cae:	8c 93       	st	X, r24
    3cb0:	26 81       	ldd	r18, Z+6	; 0x06
    3cb2:	37 81       	ldd	r19, Z+7	; 0x07
    3cb4:	2f 5f       	subi	r18, 0xFF	; 255
    3cb6:	3f 4f       	sbci	r19, 0xFF	; 255
    3cb8:	37 83       	std	Z+7, r19	; 0x07
    3cba:	26 83       	std	Z+6, r18	; 0x06
    3cbc:	14 c0       	rjmp	.+40     	; 0x3ce6 <fputc+0x6e>
    3cbe:	8b 01       	movw	r16, r22
    3cc0:	ec 01       	movw	r28, r24
    3cc2:	fb 01       	movw	r30, r22
    3cc4:	00 84       	ldd	r0, Z+8	; 0x08
    3cc6:	f1 85       	ldd	r31, Z+9	; 0x09
    3cc8:	e0 2d       	mov	r30, r0
    3cca:	09 95       	icall
    3ccc:	89 2b       	or	r24, r25
    3cce:	e1 f6       	brne	.-72     	; 0x3c88 <fputc+0x10>
    3cd0:	d8 01       	movw	r26, r16
    3cd2:	16 96       	adiw	r26, 0x06	; 6
    3cd4:	8d 91       	ld	r24, X+
    3cd6:	9c 91       	ld	r25, X
    3cd8:	17 97       	sbiw	r26, 0x07	; 7
    3cda:	01 96       	adiw	r24, 0x01	; 1
    3cdc:	17 96       	adiw	r26, 0x07	; 7
    3cde:	9c 93       	st	X, r25
    3ce0:	8e 93       	st	-X, r24
    3ce2:	16 97       	sbiw	r26, 0x06	; 6
    3ce4:	ce 01       	movw	r24, r28
    3ce6:	df 91       	pop	r29
    3ce8:	cf 91       	pop	r28
    3cea:	1f 91       	pop	r17
    3cec:	0f 91       	pop	r16
    3cee:	08 95       	ret

00003cf0 <__ultoa_invert>:
    3cf0:	fa 01       	movw	r30, r20
    3cf2:	aa 27       	eor	r26, r26
    3cf4:	28 30       	cpi	r18, 0x08	; 8
    3cf6:	51 f1       	breq	.+84     	; 0x3d4c <__ultoa_invert+0x5c>
    3cf8:	20 31       	cpi	r18, 0x10	; 16
    3cfa:	81 f1       	breq	.+96     	; 0x3d5c <__ultoa_invert+0x6c>
    3cfc:	e8 94       	clt
    3cfe:	6f 93       	push	r22
    3d00:	6e 7f       	andi	r22, 0xFE	; 254
    3d02:	6e 5f       	subi	r22, 0xFE	; 254
    3d04:	7f 4f       	sbci	r23, 0xFF	; 255
    3d06:	8f 4f       	sbci	r24, 0xFF	; 255
    3d08:	9f 4f       	sbci	r25, 0xFF	; 255
    3d0a:	af 4f       	sbci	r26, 0xFF	; 255
    3d0c:	b1 e0       	ldi	r27, 0x01	; 1
    3d0e:	3e d0       	rcall	.+124    	; 0x3d8c <__ultoa_invert+0x9c>
    3d10:	b4 e0       	ldi	r27, 0x04	; 4
    3d12:	3c d0       	rcall	.+120    	; 0x3d8c <__ultoa_invert+0x9c>
    3d14:	67 0f       	add	r22, r23
    3d16:	78 1f       	adc	r23, r24
    3d18:	89 1f       	adc	r24, r25
    3d1a:	9a 1f       	adc	r25, r26
    3d1c:	a1 1d       	adc	r26, r1
    3d1e:	68 0f       	add	r22, r24
    3d20:	79 1f       	adc	r23, r25
    3d22:	8a 1f       	adc	r24, r26
    3d24:	91 1d       	adc	r25, r1
    3d26:	a1 1d       	adc	r26, r1
    3d28:	6a 0f       	add	r22, r26
    3d2a:	71 1d       	adc	r23, r1
    3d2c:	81 1d       	adc	r24, r1
    3d2e:	91 1d       	adc	r25, r1
    3d30:	a1 1d       	adc	r26, r1
    3d32:	20 d0       	rcall	.+64     	; 0x3d74 <__ultoa_invert+0x84>
    3d34:	09 f4       	brne	.+2      	; 0x3d38 <__ultoa_invert+0x48>
    3d36:	68 94       	set
    3d38:	3f 91       	pop	r19
    3d3a:	2a e0       	ldi	r18, 0x0A	; 10
    3d3c:	26 9f       	mul	r18, r22
    3d3e:	11 24       	eor	r1, r1
    3d40:	30 19       	sub	r19, r0
    3d42:	30 5d       	subi	r19, 0xD0	; 208
    3d44:	31 93       	st	Z+, r19
    3d46:	de f6       	brtc	.-74     	; 0x3cfe <__ultoa_invert+0xe>
    3d48:	cf 01       	movw	r24, r30
    3d4a:	08 95       	ret
    3d4c:	46 2f       	mov	r20, r22
    3d4e:	47 70       	andi	r20, 0x07	; 7
    3d50:	40 5d       	subi	r20, 0xD0	; 208
    3d52:	41 93       	st	Z+, r20
    3d54:	b3 e0       	ldi	r27, 0x03	; 3
    3d56:	0f d0       	rcall	.+30     	; 0x3d76 <__ultoa_invert+0x86>
    3d58:	c9 f7       	brne	.-14     	; 0x3d4c <__ultoa_invert+0x5c>
    3d5a:	f6 cf       	rjmp	.-20     	; 0x3d48 <__ultoa_invert+0x58>
    3d5c:	46 2f       	mov	r20, r22
    3d5e:	4f 70       	andi	r20, 0x0F	; 15
    3d60:	40 5d       	subi	r20, 0xD0	; 208
    3d62:	4a 33       	cpi	r20, 0x3A	; 58
    3d64:	18 f0       	brcs	.+6      	; 0x3d6c <__ultoa_invert+0x7c>
    3d66:	49 5d       	subi	r20, 0xD9	; 217
    3d68:	31 fd       	sbrc	r19, 1
    3d6a:	40 52       	subi	r20, 0x20	; 32
    3d6c:	41 93       	st	Z+, r20
    3d6e:	02 d0       	rcall	.+4      	; 0x3d74 <__ultoa_invert+0x84>
    3d70:	a9 f7       	brne	.-22     	; 0x3d5c <__ultoa_invert+0x6c>
    3d72:	ea cf       	rjmp	.-44     	; 0x3d48 <__ultoa_invert+0x58>
    3d74:	b4 e0       	ldi	r27, 0x04	; 4
    3d76:	a6 95       	lsr	r26
    3d78:	97 95       	ror	r25
    3d7a:	87 95       	ror	r24
    3d7c:	77 95       	ror	r23
    3d7e:	67 95       	ror	r22
    3d80:	ba 95       	dec	r27
    3d82:	c9 f7       	brne	.-14     	; 0x3d76 <__ultoa_invert+0x86>
    3d84:	00 97       	sbiw	r24, 0x00	; 0
    3d86:	61 05       	cpc	r22, r1
    3d88:	71 05       	cpc	r23, r1
    3d8a:	08 95       	ret
    3d8c:	9b 01       	movw	r18, r22
    3d8e:	ac 01       	movw	r20, r24
    3d90:	0a 2e       	mov	r0, r26
    3d92:	06 94       	lsr	r0
    3d94:	57 95       	ror	r21
    3d96:	47 95       	ror	r20
    3d98:	37 95       	ror	r19
    3d9a:	27 95       	ror	r18
    3d9c:	ba 95       	dec	r27
    3d9e:	c9 f7       	brne	.-14     	; 0x3d92 <__ultoa_invert+0xa2>
    3da0:	62 0f       	add	r22, r18
    3da2:	73 1f       	adc	r23, r19
    3da4:	84 1f       	adc	r24, r20
    3da6:	95 1f       	adc	r25, r21
    3da8:	a0 1d       	adc	r26, r0
    3daa:	08 95       	ret

00003dac <_exit>:
    3dac:	f8 94       	cli

00003dae <__stop_program>:
    3dae:	ff cf       	rjmp	.-2      	; 0x3dae <__stop_program>
