
Praca_dyplomowa.elf:     file format elf32-avr

Sections:
Idx Name          Size      VMA       LMA       File off  Algn
  0 .text         000039e8  00000000  00000000  00000094  2**1
                  CONTENTS, ALLOC, LOAD, READONLY, CODE
  1 .data         000002f8  00800060  000039e8  00003a7c  2**0
                  CONTENTS, ALLOC, LOAD, DATA
  2 .bss          000004ae  00800358  00800358  00003d74  2**0
                  ALLOC
  3 .comment      0000008c  00000000  00000000  00003d74  2**0
                  CONTENTS, READONLY
  4 .note.gnu.avr.deviceinfo 0000003c  00000000  00000000  00003e00  2**2
                  CONTENTS, READONLY
  5 .debug_info   000004e6  00000000  00000000  00003e3c  2**0
                  CONTENTS, READONLY, DEBUGGING
  6 .debug_abbrev 000004a3  00000000  00000000  00004322  2**0
                  CONTENTS, READONLY, DEBUGGING
  7 .debug_line   00000116  00000000  00000000  000047c5  2**0
                  CONTENTS, READONLY, DEBUGGING
  8 .debug_str    00000196  00000000  00000000  000048db  2**0
                  CONTENTS, READONLY, DEBUGGING

Disassembly of section .text:

00000000 <__vectors>:
       0:	0c 94 6c 02 	jmp	0x4d8	; 0x4d8 <__ctors_end>
       4:	0c 94 b8 06 	jmp	0xd70	; 0xd70 <__vector_1>
       8:	0c 94 89 02 	jmp	0x512	; 0x512 <__bad_interrupt>
       c:	0c 94 89 02 	jmp	0x512	; 0x512 <__bad_interrupt>
      10:	0c 94 c7 06 	jmp	0xd8e	; 0xd8e <__vector_4>
      14:	0c 94 89 02 	jmp	0x512	; 0x512 <__bad_interrupt>
      18:	0c 94 91 05 	jmp	0xb22	; 0xb22 <__vector_6>
      1c:	0c 94 89 02 	jmp	0x512	; 0x512 <__bad_interrupt>
      20:	0c 94 89 02 	jmp	0x512	; 0x512 <__bad_interrupt>
      24:	0c 94 89 02 	jmp	0x512	; 0x512 <__bad_interrupt>
      28:	0c 94 b4 04 	jmp	0x968	; 0x968 <__vector_10>
      2c:	0c 94 89 02 	jmp	0x512	; 0x512 <__bad_interrupt>
      30:	0c 94 89 02 	jmp	0x512	; 0x512 <__bad_interrupt>
      34:	0c 94 41 0e 	jmp	0x1c82	; 0x1c82 <__vector_13>
      38:	0c 94 05 0e 	jmp	0x1c0a	; 0x1c0a <__vector_14>
      3c:	0c 94 89 02 	jmp	0x512	; 0x512 <__bad_interrupt>
      40:	0c 94 89 02 	jmp	0x512	; 0x512 <__bad_interrupt>
      44:	0c 94 89 02 	jmp	0x512	; 0x512 <__bad_interrupt>
      48:	0c 94 89 02 	jmp	0x512	; 0x512 <__bad_interrupt>
      4c:	0c 94 89 02 	jmp	0x512	; 0x512 <__bad_interrupt>
      50:	0c 94 89 02 	jmp	0x512	; 0x512 <__bad_interrupt>
      54:	ce 07       	cpc	r28, r30
      56:	d1 07       	cpc	r29, r17
      58:	d4 07       	cpc	r29, r20
      5a:	d7 07       	cpc	r29, r23
      5c:	da 07       	cpc	r29, r26
      5e:	dd 07       	cpc	r29, r29
      60:	e0 07       	cpc	r30, r16
      62:	ef 07       	cpc	r30, r31
      64:	f2 07       	cpc	r31, r18
      66:	f5 07       	cpc	r31, r21
      68:	f8 07       	cpc	r31, r24
      6a:	fb 07       	cpc	r31, r27
      6c:	fe 07       	cpc	r31, r30
      6e:	01 08       	sbc	r0, r1

00000070 <__trampolines_end>:
      70:	c0 f9       	bld	r28, 0
      72:	a4 b0       	in	r10, 0x04	; 4
      74:	99 92       	st	Y+, r9
      76:	82 d8       	rcall	.-3836   	; 0xfffff17c <__eeprom_end+0xff7ef17c>
      78:	80 90 ff 7f 	lds	r8, 0x7FFF	; 0x807fff <__bss_end+0x77f9>
      7c:	00 00       	nop
	...

0000007f <__c.2940>:
      7f:	44 41 54 41 20 64 6f 6e 27 74 20 73 65 6e 64 00     DATA don't send.

0000008f <__c.2935>:
      8f:	44 41 54 41 20 73 65 6e 64 20 20 20 20 20 20 00     DATA send      .

0000009f <__c.2930>:
      9f:	44 41 54 41 20 64 6f 6e 27 74 20 73 65 6e 64 00     DATA don't send.

000000af <__c.2925>:
      af:	44 41 54 41 20 73 65 6e 64 20 20 20 20 20 20 00     DATA send      .

000000bf <__c.2899>:
      bf:	44 41 54 41 20 64 6f 6e 27 74 20 73 65 6e 64 00     DATA don't send.

000000cf <__c.2897>:
      cf:	44 41 54 41 20 73 65 6e 64 20 20 20 20 20 20 00     DATA send      .

000000df <__c.2895>:
      df:	44 41 54 41 20 64 6f 6e 27 74 20 73 65 6e 64 00     DATA don't send.

000000ef <__c.2893>:
      ef:	44 41 54 41 20 73 65 6e 64 20 20 20 20 20 20 00     DATA send      .

000000ff <__c.2891>:
      ff:	49 52 63 6f 6e 00                                   IRcon.

00000105 <__c.2889>:
     105:	20 20 20 20 20 00                                        .

0000010b <__c.2884>:
     10b:	44 41 54 41 20 64 6f 6e 27 74 20 73 65 6e 64 00     DATA don't send.

0000011b <__c.2882>:
     11b:	44 41 54 41 20 73 65 6e 64 20 20 20 20 20 20 00     DATA send      .

0000012b <__c.2880>:
     12b:	44 41 54 41 20 64 6f 6e 27 74 20 73 65 6e 64 00     DATA don't send.

0000013b <__c.2878>:
     13b:	44 41 54 41 20 73 65 6e 64 20 20 20 20 20 20 00     DATA send      .

0000014b <__c.2862>:
     14b:	53 75 00                                            Su.

0000014e <__c.2859>:
     14e:	53 61 00                                            Sa.

00000151 <__c.2856>:
     151:	46 72 00                                            Fr.

00000154 <__c.2853>:
     154:	54 68 00                                            Th.

00000157 <__c.2850>:
     157:	57 65 00                                            We.

0000015a <__c.2847>:
     15a:	54 75 00                                            Tu.

0000015d <__c.2843>:
     15d:	4d 6f 00                                            Mo.

00000160 <__c.2837>:
     160:	b0 43 00                                            .C.

00000163 <__c.2835>:
     163:	2e 00                                               ..

00000165 <__c.2833>:
     165:	20 00                                                .

00000167 <__c.2831>:
     167:	20 20 00                                              .

0000016a <__c.2829>:
     16a:	2d 00                                               -.

0000016c <__c.2827>:
     16c:	20 2d 00                                             -.

0000016f <__c.2825>:
     16f:	44 53 31 38 42 32 30 20 73 65 6e 2e 54 3a 20 00     DS18B20 sen.T: .

0000017f <__c.2790>:
     17f:	44 41 54 41 20 64 6f 6e 27 74 20 73 65 6e 64 00     DATA don't send.

0000018f <__c.2788>:
     18f:	20 25 00                                             %.

00000192 <__c.2786>:
     192:	30 00                                               0.

00000194 <__c.2784>:
     194:	2e 00                                               ..

00000196 <__c.2782>:
     196:	48 75 6d 69 64 69 74 79 3a 20 00                    Humidity: .

000001a1 <__c.2780>:
     1a1:	20 68 50 61 00                                       hPa.

000001a6 <__c.2778>:
     1a6:	30 00                                               0.

000001a8 <__c.2776>:
     1a8:	2e 00                                               ..

000001aa <__c.2774>:
     1aa:	50 72 65 73 73 75 72 65 3a 20 20 20 00              Pressure:   .

000001b7 <__c.2772>:
     1b7:	b0 43 00                                            .C.

000001ba <__c.2770>:
     1ba:	30 00                                               0.

000001bc <__c.2768>:
     1bc:	2e 00                                               ..

000001be <__c.2766>:
     1be:	54 65 6d 70 65 72 61 74 75 72 65 3a 20 20 20 20     Temperature:    
	...

000001cf <__c.2764>:
     1cf:	54 65 6d 70 65 72 61 74 75 72 65 3a 20 20 00        Temperature:  .

000001de <__c.2762>:
     1de:	54 65 6d 70 65 72 61 74 75 72 65 3a 20 20 2d 00     Temperature:  -.

000001ee <__c.2760>:
     1ee:	2d 2d 2d 2d 42 4d 45 32 38 30 20 73 65 6e 73 6f     ----BME280 senso
     1fe:	72 2d 2d 2d 2d 00                                   r----.

00000204 <__c.2758>:
     204:	20 20 00                                              .

00000207 <__c.2756>:
     207:	32 30 00                                            20.

0000020a <__c.2754>:
     20a:	2f 00                                               /.

0000020c <__c.2752>:
     20c:	2f 00                                               /.

0000020e <__c.2750>:
     20e:	2f 00                                               /.

00000210 <__c.2748>:
     210:	44 61 74 65 3a 20 00                                Date: .

00000217 <__c.2746>:
     217:	30 00                                               0.

00000219 <__c.2744>:
     219:	3a 00                                               :.

0000021b <__c.2742>:
     21b:	30 00                                               0.

0000021d <__c.2740>:
     21d:	3a 00                                               :.

0000021f <__c.2738>:
     21f:	30 00                                               0.

00000221 <__c.2736>:
     221:	54 69 6d 65 3a 20 00                                Time: .

00000228 <special_char>:
     228:	bc 5f 9c 60 a4 61 84 62 b6 63 96 64 b0 65 9f 66     ._.`.a.b.c.d.e.f
     238:	b5 67 89 68 a9 69 ff ff                             .g.h.i..

00000240 <ssd1306oled_font>:
	...
     248:	00 2f 00 00 00 00 07 00 07 00 00 14 7f 14 7f 14     ./..............
     258:	00 24 2a 7f 2a 12 00 62 64 08 13 23 00 36 49 55     .$*.*..bd..#.6IU
     268:	22 50 00 00 05 03 00 00 00 00 1c 22 41 00 00 00     "P........."A...
     278:	41 22 1c 00 00 14 08 3e 08 14 00 08 08 3e 08 08     A".....>.....>..
     288:	00 00 00 a0 60 00 00 08 08 08 08 08 00 00 60 60     ....`.........``
     298:	00 00 00 20 10 08 04 02 00 3e 51 49 45 3e 00 00     ... .....>QIE>..
     2a8:	42 7f 40 00 00 42 61 51 49 46 00 21 41 45 4b 31     B.@..BaQIF.!AEK1
     2b8:	00 18 14 12 7f 10 00 27 45 45 45 39 00 3c 4a 49     .......'EEE9.<JI
     2c8:	49 30 00 01 71 09 05 03 00 36 49 49 49 36 00 06     I0..q....6III6..
     2d8:	49 49 29 1e 00 00 36 36 00 00 00 00 56 36 00 00     II)...66....V6..
     2e8:	00 08 14 22 41 00 00 14 14 14 14 14 00 00 41 22     ..."A.........A"
     2f8:	14 08 00 02 01 51 09 06 00 32 49 59 51 3e 00 7c     .....Q...2IYQ>.|
     308:	12 11 12 7c 00 7f 49 49 49 36 00 3e 41 41 41 22     ...|..III6.>AAA"
     318:	00 7f 41 41 22 1c 00 7f 49 49 49 41 00 7f 09 09     ..AA"...IIIA....
     328:	09 01 00 3e 41 49 49 7a 00 7f 08 08 08 7f 00 00     ...>AIIz........
     338:	41 7f 41 00 00 20 40 41 3f 01 00 7f 08 14 22 41     A.A.. @A?....."A
     348:	00 7f 40 40 40 40 00 7f 02 0c 02 7f 00 7f 04 08     ..@@@@..........
     358:	10 7f 00 3e 41 41 41 3e 00 7f 09 09 09 06 00 3e     ...>AAA>.......>
     368:	41 51 21 5e 00 7f 09 19 29 46 00 46 49 49 49 31     AQ!^....)F.FIII1
     378:	00 01 01 7f 01 01 00 3f 40 40 40 3f 00 1f 20 40     .......?@@@?.. @
     388:	20 1f 00 3f 40 38 40 3f 00 63 14 08 14 63 00 07      ..?@8@?.c...c..
     398:	08 70 08 07 00 61 51 49 45 43 00 00 7f 41 41 00     .p...aQIEC...AA.
     3a8:	00 55 2a 55 2a 55 00 00 41 41 7f 00 00 04 02 01     .U*U*U..AA......
     3b8:	02 04 00 40 40 40 40 40 00 00 01 02 04 00 00 20     ...@@@@@....... 
     3c8:	54 54 54 78 00 7f 48 44 44 38 00 38 44 44 44 20     TTTx..HDD8.8DDD 
     3d8:	00 38 44 44 48 7f 00 38 54 54 54 18 00 08 7e 09     .8DDH..8TTT...~.
     3e8:	01 02 00 18 a4 a4 a4 7c 00 7f 08 04 04 78 00 00     .......|.....x..
     3f8:	44 7d 40 00 00 40 80 84 7d 00 00 7f 10 28 44 00     D}@..@..}....(D.
     408:	00 00 41 7f 40 00 00 7c 04 18 04 78 00 7c 08 04     ..A.@..|...x.|..
     418:	04 78 00 38 44 44 44 38 00 fc 24 24 24 18 00 18     .x.8DDD8..$$$...
     428:	24 24 18 fc 00 7c 08 04 04 08 00 48 54 54 54 20     $$...|.....HTTT 
     438:	00 04 3f 44 40 20 00 3c 40 40 20 7c 00 1c 20 40     ..?D@ .<@@ |.. @
     448:	20 1c 00 3c 40 30 40 3c 00 44 28 10 28 44 00 1c      ..<@0@<.D(.(D..
     458:	a0 a0 a0 7c 00 44 64 54 4c 44 00 00 08 77 41 00     ...|.DdTLD...wA.
     468:	00 00 00 63 00 00 00 00 41 77 08 00 00 08 04 08     ...c....Aw......
     478:	08 04 00 3a 40 40 20 7a 00 3d 40 40 40 3d 00 21     ...:@@ z.=@@@=.!
     488:	54 54 54 79 00 7d 12 11 12 7d 00 39 44 44 44 39     TTTy.}...}.9DDD9
     498:	00 3d 42 42 42 3d 00 02 05 02 00 00 00 7e 01 49     .=BBB=.......~.I
     4a8:	55 73 00 7c 10 10 08 1c 00 30 48 20 48 30 00 5c     Us.|.....0H H0.\
     4b8:	62 02 62 5c                                         b.b\

000004bc <init_sequence>:
     4bc:	ae 20 00 b0 c8 00 10 40 81 3f a1 a6 a8 3f a4 d3     . .....@.?...?..
     4cc:	00 d5 f0 d9 22 da 12 db 20 8d 14 00                 ...."... ...

000004d8 <__ctors_end>:
     4d8:	11 24       	eor	r1, r1
     4da:	1f be       	out	0x3f, r1	; 63
     4dc:	cf e5       	ldi	r28, 0x5F	; 95
     4de:	d8 e0       	ldi	r29, 0x08	; 8
     4e0:	de bf       	out	0x3e, r29	; 62
     4e2:	cd bf       	out	0x3d, r28	; 61

000004e4 <__do_copy_data>:
     4e4:	13 e0       	ldi	r17, 0x03	; 3
     4e6:	a0 e6       	ldi	r26, 0x60	; 96
     4e8:	b0 e0       	ldi	r27, 0x00	; 0
     4ea:	e8 ee       	ldi	r30, 0xE8	; 232
     4ec:	f9 e3       	ldi	r31, 0x39	; 57
     4ee:	02 c0       	rjmp	.+4      	; 0x4f4 <__do_copy_data+0x10>
     4f0:	05 90       	lpm	r0, Z+
     4f2:	0d 92       	st	X+, r0
     4f4:	a8 35       	cpi	r26, 0x58	; 88
     4f6:	b1 07       	cpc	r27, r17
     4f8:	d9 f7       	brne	.-10     	; 0x4f0 <__do_copy_data+0xc>

000004fa <__do_clear_bss>:
     4fa:	28 e0       	ldi	r18, 0x08	; 8
     4fc:	a8 e5       	ldi	r26, 0x58	; 88
     4fe:	b3 e0       	ldi	r27, 0x03	; 3
     500:	01 c0       	rjmp	.+2      	; 0x504 <.do_clear_bss_start>

00000502 <.do_clear_bss_loop>:
     502:	1d 92       	st	X+, r1

00000504 <.do_clear_bss_start>:
     504:	a6 30       	cpi	r26, 0x06	; 6
     506:	b2 07       	cpc	r27, r18
     508:	e1 f7       	brne	.-8      	; 0x502 <.do_clear_bss_loop>
     50a:	0e 94 f9 0a 	call	0x15f2	; 0x15f2 <main>
     50e:	0c 94 f2 1c 	jmp	0x39e4	; 0x39e4 <_exit>

00000512 <__bad_interrupt>:
     512:	0c 94 00 00 	jmp	0	; 0x0 <__vectors>

00000516 <crc8>:
     516:	fc 01       	movw	r30, r24
     518:	68 0f       	add	r22, r24
     51a:	79 1f       	adc	r23, r25
     51c:	80 e0       	ldi	r24, 0x00	; 0
     51e:	48 e1       	ldi	r20, 0x18	; 24
     520:	e6 17       	cp	r30, r22
     522:	f7 07       	cpc	r31, r23
     524:	81 f0       	breq	.+32     	; 0x546 <crc8+0x30>
     526:	21 91       	ld	r18, Z+
     528:	98 e0       	ldi	r25, 0x08	; 8
     52a:	38 2f       	mov	r19, r24
     52c:	32 27       	eor	r19, r18
     52e:	53 2f       	mov	r21, r19
     530:	51 70       	andi	r21, 0x01	; 1
     532:	30 fd       	sbrc	r19, 0
     534:	84 27       	eor	r24, r20
     536:	86 95       	lsr	r24
     538:	51 30       	cpi	r21, 0x01	; 1
     53a:	09 f4       	brne	.+2      	; 0x53e <crc8+0x28>
     53c:	80 68       	ori	r24, 0x80	; 128
     53e:	26 95       	lsr	r18
     540:	91 50       	subi	r25, 0x01	; 1
     542:	99 f7       	brne	.-26     	; 0x52a <crc8+0x14>
     544:	ed cf       	rjmp	.-38     	; 0x520 <crc8+0xa>
     546:	08 95       	ret

00000548 <DS18X20_meas_to_cel>:
     548:	0f 93       	push	r16
     54a:	1f 93       	push	r17
     54c:	cf 93       	push	r28
     54e:	df 93       	push	r29
     550:	cd b7       	in	r28, 0x3d	; 61
     552:	de b7       	in	r29, 0x3e	; 62
     554:	60 97       	sbiw	r28, 0x10	; 16
     556:	0f b6       	in	r0, 0x3f	; 63
     558:	f8 94       	cli
     55a:	de bf       	out	0x3e, r29	; 62
     55c:	0f be       	out	0x3f, r0	; 63
     55e:	cd bf       	out	0x3d, r28	; 61
     560:	90 e1       	ldi	r25, 0x10	; 16
     562:	e6 e6       	ldi	r30, 0x66	; 102
     564:	f0 e0       	ldi	r31, 0x00	; 0
     566:	de 01       	movw	r26, r28
     568:	11 96       	adiw	r26, 0x01	; 1
     56a:	01 90       	ld	r0, Z+
     56c:	0d 92       	st	X+, r0
     56e:	9a 95       	dec	r25
     570:	e1 f7       	brne	.-8      	; 0x56a <DS18X20_meas_to_cel+0x22>
     572:	db 01       	movw	r26, r22
     574:	ed 91       	ld	r30, X+
     576:	fc 91       	ld	r31, X
     578:	11 97       	sbiw	r26, 0x01	; 1
     57a:	80 31       	cpi	r24, 0x10	; 16
     57c:	59 f4       	brne	.+22     	; 0x594 <DS18X20_meas_to_cel+0x4c>
     57e:	ee 7f       	andi	r30, 0xFE	; 254
     580:	93 e0       	ldi	r25, 0x03	; 3
     582:	ee 0f       	add	r30, r30
     584:	ff 1f       	adc	r31, r31
     586:	9a 95       	dec	r25
     588:	e1 f7       	brne	.-8      	; 0x582 <DS18X20_meas_to_cel+0x3a>
     58a:	16 96       	adiw	r26, 0x06	; 6
     58c:	9c 91       	ld	r25, X
     58e:	e9 1b       	sub	r30, r25
     590:	f1 09       	sbc	r31, r1
     592:	3c 96       	adiw	r30, 0x0c	; 12
     594:	f7 ff       	sbrs	r31, 7
     596:	07 c0       	rjmp	.+14     	; 0x5a6 <DS18X20_meas_to_cel+0x5e>
     598:	91 e0       	ldi	r25, 0x01	; 1
     59a:	da 01       	movw	r26, r20
     59c:	9c 93       	st	X, r25
     59e:	f1 95       	neg	r31
     5a0:	e1 95       	neg	r30
     5a2:	f1 09       	sbc	r31, r1
     5a4:	02 c0       	rjmp	.+4      	; 0x5aa <DS18X20_meas_to_cel+0x62>
     5a6:	da 01       	movw	r26, r20
     5a8:	1c 92       	st	X, r1
     5aa:	88 32       	cpi	r24, 0x28	; 40
     5ac:	81 f4       	brne	.+32     	; 0x5ce <DS18X20_meas_to_cel+0x86>
     5ae:	db 01       	movw	r26, r22
     5b0:	14 96       	adiw	r26, 0x04	; 4
     5b2:	8c 91       	ld	r24, X
     5b4:	98 2f       	mov	r25, r24
     5b6:	90 76       	andi	r25, 0x60	; 96
     5b8:	90 36       	cpi	r25, 0x60	; 96
     5ba:	49 f0       	breq	.+18     	; 0x5ce <DS18X20_meas_to_cel+0x86>
     5bc:	86 ff       	sbrs	r24, 6
     5be:	02 c0       	rjmp	.+4      	; 0x5c4 <DS18X20_meas_to_cel+0x7c>
     5c0:	ee 7f       	andi	r30, 0xFE	; 254
     5c2:	05 c0       	rjmp	.+10     	; 0x5ce <DS18X20_meas_to_cel+0x86>
     5c4:	85 ff       	sbrs	r24, 5
     5c6:	02 c0       	rjmp	.+4      	; 0x5cc <DS18X20_meas_to_cel+0x84>
     5c8:	ec 7f       	andi	r30, 0xFC	; 252
     5ca:	01 c0       	rjmp	.+2      	; 0x5ce <DS18X20_meas_to_cel+0x86>
     5cc:	e8 7f       	andi	r30, 0xF8	; 248
     5ce:	cf 01       	movw	r24, r30
     5d0:	44 e0       	ldi	r20, 0x04	; 4
     5d2:	96 95       	lsr	r25
     5d4:	87 95       	ror	r24
     5d6:	4a 95       	dec	r20
     5d8:	e1 f7       	brne	.-8      	; 0x5d2 <DS18X20_meas_to_cel+0x8a>
     5da:	d9 01       	movw	r26, r18
     5dc:	8c 93       	st	X, r24
     5de:	ef 70       	andi	r30, 0x0F	; 15
     5e0:	ff 27       	eor	r31, r31
     5e2:	81 e0       	ldi	r24, 0x01	; 1
     5e4:	90 e0       	ldi	r25, 0x00	; 0
     5e6:	8c 0f       	add	r24, r28
     5e8:	9d 1f       	adc	r25, r29
     5ea:	e8 0f       	add	r30, r24
     5ec:	f9 1f       	adc	r31, r25
     5ee:	80 81       	ld	r24, Z
     5f0:	d8 01       	movw	r26, r16
     5f2:	8c 93       	st	X, r24
     5f4:	80 e0       	ldi	r24, 0x00	; 0
     5f6:	60 96       	adiw	r28, 0x10	; 16
     5f8:	0f b6       	in	r0, 0x3f	; 63
     5fa:	f8 94       	cli
     5fc:	de bf       	out	0x3e, r29	; 62
     5fe:	0f be       	out	0x3f, r0	; 63
     600:	cd bf       	out	0x3d, r28	; 61
     602:	df 91       	pop	r29
     604:	cf 91       	pop	r28
     606:	1f 91       	pop	r17
     608:	0f 91       	pop	r16
     60a:	08 95       	ret

0000060c <DS18X20_find_sensor>:
     60c:	0f 93       	push	r16
     60e:	1f 93       	push	r17
     610:	cf 93       	push	r28
     612:	df 93       	push	r29
     614:	ec 01       	movw	r28, r24
     616:	8b 01       	movw	r16, r22
     618:	b8 01       	movw	r22, r16
     61a:	88 81       	ld	r24, Y
     61c:	0e 94 2e 04 	call	0x85c	; 0x85c <ow_rom_search>
     620:	88 83       	st	Y, r24
     622:	81 50       	subi	r24, 0x01	; 1
     624:	8d 3f       	cpi	r24, 0xFD	; 253
     626:	30 f4       	brcc	.+12     	; 0x634 <DS18X20_find_sensor+0x28>
     628:	f8 01       	movw	r30, r16
     62a:	80 81       	ld	r24, Z
     62c:	88 32       	cpi	r24, 0x28	; 40
     62e:	11 f0       	breq	.+4      	; 0x634 <DS18X20_find_sensor+0x28>
     630:	80 31       	cpi	r24, 0x10	; 16
     632:	91 f7       	brne	.-28     	; 0x618 <DS18X20_find_sensor+0xc>
     634:	df 91       	pop	r29
     636:	cf 91       	pop	r28
     638:	1f 91       	pop	r17
     63a:	0f 91       	pop	r16
     63c:	08 95       	ret

0000063e <search_sensors>:
     63e:	ef 92       	push	r14
     640:	ff 92       	push	r15
     642:	1f 93       	push	r17
     644:	cf 93       	push	r28
     646:	df 93       	push	r29
     648:	cd b7       	in	r28, 0x3d	; 61
     64a:	de b7       	in	r29, 0x3e	; 62
     64c:	29 97       	sbiw	r28, 0x09	; 9
     64e:	0f b6       	in	r0, 0x3f	; 63
     650:	f8 94       	cli
     652:	de bf       	out	0x3e, r29	; 62
     654:	0f be       	out	0x3f, r0	; 63
     656:	cd bf       	out	0x3d, r28	; 61
     658:	8f ef       	ldi	r24, 0xFF	; 255
     65a:	89 87       	std	Y+9, r24	; 0x09
     65c:	87 e9       	ldi	r24, 0x97	; 151
     65e:	e8 2e       	mov	r14, r24
     660:	87 e0       	ldi	r24, 0x07	; 7
     662:	f8 2e       	mov	r15, r24
     664:	10 e0       	ldi	r17, 0x00	; 0
     666:	89 85       	ldd	r24, Y+9	; 0x09
     668:	88 23       	and	r24, r24
     66a:	f9 f0       	breq	.+62     	; 0x6aa <search_sensors+0x6c>
     66c:	14 30       	cpi	r17, 0x04	; 4
     66e:	e9 f0       	breq	.+58     	; 0x6aa <search_sensors+0x6c>
     670:	be 01       	movw	r22, r28
     672:	6f 5f       	subi	r22, 0xFF	; 255
     674:	7f 4f       	sbci	r23, 0xFF	; 255
     676:	ce 01       	movw	r24, r28
     678:	09 96       	adiw	r24, 0x09	; 9
     67a:	0e 94 06 03 	call	0x60c	; 0x60c <DS18X20_find_sensor>
     67e:	89 85       	ldd	r24, Y+9	; 0x09
     680:	8e 5f       	subi	r24, 0xFE	; 254
     682:	82 30       	cpi	r24, 0x02	; 2
     684:	90 f0       	brcs	.+36     	; 0x6aa <search_sensors+0x6c>
     686:	fe 01       	movw	r30, r28
     688:	31 96       	adiw	r30, 0x01	; 1
     68a:	80 e0       	ldi	r24, 0x00	; 0
     68c:	90 e0       	ldi	r25, 0x00	; 0
     68e:	21 91       	ld	r18, Z+
     690:	d7 01       	movw	r26, r14
     692:	a8 0f       	add	r26, r24
     694:	b9 1f       	adc	r27, r25
     696:	2c 93       	st	X, r18
     698:	01 96       	adiw	r24, 0x01	; 1
     69a:	88 30       	cpi	r24, 0x08	; 8
     69c:	91 05       	cpc	r25, r1
     69e:	b9 f7       	brne	.-18     	; 0x68e <search_sensors+0x50>
     6a0:	1f 5f       	subi	r17, 0xFF	; 255
     6a2:	88 e0       	ldi	r24, 0x08	; 8
     6a4:	e8 0e       	add	r14, r24
     6a6:	f1 1c       	adc	r15, r1
     6a8:	de cf       	rjmp	.-68     	; 0x666 <search_sensors+0x28>
     6aa:	81 2f       	mov	r24, r17
     6ac:	29 96       	adiw	r28, 0x09	; 9
     6ae:	0f b6       	in	r0, 0x3f	; 63
     6b0:	f8 94       	cli
     6b2:	de bf       	out	0x3e, r29	; 62
     6b4:	0f be       	out	0x3f, r0	; 63
     6b6:	cd bf       	out	0x3d, r28	; 61
     6b8:	df 91       	pop	r29
     6ba:	cf 91       	pop	r28
     6bc:	1f 91       	pop	r17
     6be:	ff 90       	pop	r15
     6c0:	ef 90       	pop	r14
     6c2:	08 95       	ret

000006c4 <DS18X20_start_meas>:
     6c4:	0f 93       	push	r16
     6c6:	1f 93       	push	r17
     6c8:	cf 93       	push	r28
     6ca:	df 93       	push	r29
     6cc:	d8 2f       	mov	r29, r24
     6ce:	8b 01       	movw	r16, r22
     6d0:	0e 94 ea 03 	call	0x7d4	; 0x7d4 <ow_reset>
     6d4:	c8 2f       	mov	r28, r24
     6d6:	81 11       	cpse	r24, r1
     6d8:	0d c0       	rjmp	.+26     	; 0x6f4 <DS18X20_start_meas+0x30>
     6da:	0e 94 e4 03 	call	0x7c8	; 0x7c8 <ow_input_pin_state>
     6de:	88 23       	and	r24, r24
     6e0:	59 f0       	breq	.+22     	; 0x6f8 <DS18X20_start_meas+0x34>
     6e2:	b8 01       	movw	r22, r16
     6e4:	84 e4       	ldi	r24, 0x44	; 68
     6e6:	0e 94 7b 04 	call	0x8f6	; 0x8f6 <ow_command>
     6ea:	d1 30       	cpi	r29, 0x01	; 1
     6ec:	31 f0       	breq	.+12     	; 0x6fa <DS18X20_start_meas+0x36>
     6ee:	0e 94 e7 03 	call	0x7ce	; 0x7ce <ow_parasite_enable>
     6f2:	03 c0       	rjmp	.+6      	; 0x6fa <DS18X20_start_meas+0x36>
     6f4:	c1 e0       	ldi	r28, 0x01	; 1
     6f6:	01 c0       	rjmp	.+2      	; 0x6fa <DS18X20_start_meas+0x36>
     6f8:	c2 e0       	ldi	r28, 0x02	; 2
     6fa:	8c 2f       	mov	r24, r28
     6fc:	df 91       	pop	r29
     6fe:	cf 91       	pop	r28
     700:	1f 91       	pop	r17
     702:	0f 91       	pop	r16
     704:	08 95       	ret

00000706 <DS18X20_read_meas>:
     706:	4f 92       	push	r4
     708:	5f 92       	push	r5
     70a:	6f 92       	push	r6
     70c:	7f 92       	push	r7
     70e:	8f 92       	push	r8
     710:	9f 92       	push	r9
     712:	af 92       	push	r10
     714:	bf 92       	push	r11
     716:	cf 92       	push	r12
     718:	df 92       	push	r13
     71a:	ef 92       	push	r14
     71c:	ff 92       	push	r15
     71e:	0f 93       	push	r16
     720:	1f 93       	push	r17
     722:	cf 93       	push	r28
     724:	df 93       	push	r29
     726:	cd b7       	in	r28, 0x3d	; 61
     728:	de b7       	in	r29, 0x3e	; 62
     72a:	29 97       	sbiw	r28, 0x09	; 9
     72c:	0f b6       	in	r0, 0x3f	; 63
     72e:	f8 94       	cli
     730:	de bf       	out	0x3e, r29	; 62
     732:	0f be       	out	0x3f, r0	; 63
     734:	cd bf       	out	0x3d, r28	; 61
     736:	6c 01       	movw	r12, r24
     738:	3b 01       	movw	r6, r22
     73a:	5a 01       	movw	r10, r20
     73c:	89 01       	movw	r16, r18
     73e:	0e 94 ea 03 	call	0x7d4	; 0x7d4 <ow_reset>
     742:	81 11       	cpse	r24, r1
     744:	24 c0       	rjmp	.+72     	; 0x78e <DS18X20_read_meas+0x88>
     746:	b6 01       	movw	r22, r12
     748:	8e eb       	ldi	r24, 0xBE	; 190
     74a:	0e 94 7b 04 	call	0x8f6	; 0x8f6 <ow_command>
     74e:	ce 01       	movw	r24, r28
     750:	01 96       	adiw	r24, 0x01	; 1
     752:	7c 01       	movw	r14, r24
     754:	4e 01       	movw	r8, r28
     756:	9a e0       	ldi	r25, 0x0A	; 10
     758:	89 0e       	add	r8, r25
     75a:	91 1c       	adc	r9, r1
     75c:	27 01       	movw	r4, r14
     75e:	0e 94 2b 04 	call	0x856	; 0x856 <ow_byte_rd>
     762:	f7 01       	movw	r30, r14
     764:	81 93       	st	Z+, r24
     766:	7f 01       	movw	r14, r30
     768:	e8 15       	cp	r30, r8
     76a:	f9 05       	cpc	r31, r9
     76c:	c1 f7       	brne	.-16     	; 0x75e <DS18X20_read_meas+0x58>
     76e:	69 e0       	ldi	r22, 0x09	; 9
     770:	70 e0       	ldi	r23, 0x00	; 0
     772:	c2 01       	movw	r24, r4
     774:	0e 94 8b 02 	call	0x516	; 0x516 <crc8>
     778:	f8 2e       	mov	r15, r24
     77a:	81 11       	cpse	r24, r1
     77c:	0b c0       	rjmp	.+22     	; 0x794 <DS18X20_read_meas+0x8e>
     77e:	95 01       	movw	r18, r10
     780:	a3 01       	movw	r20, r6
     782:	b2 01       	movw	r22, r4
     784:	f6 01       	movw	r30, r12
     786:	80 81       	ld	r24, Z
     788:	0e 94 a4 02 	call	0x548	; 0x548 <DS18X20_meas_to_cel>
     78c:	05 c0       	rjmp	.+10     	; 0x798 <DS18X20_read_meas+0x92>
     78e:	ff 24       	eor	r15, r15
     790:	f3 94       	inc	r15
     792:	02 c0       	rjmp	.+4      	; 0x798 <DS18X20_read_meas+0x92>
     794:	83 e0       	ldi	r24, 0x03	; 3
     796:	f8 2e       	mov	r15, r24
     798:	8f 2d       	mov	r24, r15
     79a:	29 96       	adiw	r28, 0x09	; 9
     79c:	0f b6       	in	r0, 0x3f	; 63
     79e:	f8 94       	cli
     7a0:	de bf       	out	0x3e, r29	; 62
     7a2:	0f be       	out	0x3f, r0	; 63
     7a4:	cd bf       	out	0x3d, r28	; 61
     7a6:	df 91       	pop	r29
     7a8:	cf 91       	pop	r28
     7aa:	1f 91       	pop	r17
     7ac:	0f 91       	pop	r16
     7ae:	ff 90       	pop	r15
     7b0:	ef 90       	pop	r14
     7b2:	df 90       	pop	r13
     7b4:	cf 90       	pop	r12
     7b6:	bf 90       	pop	r11
     7b8:	af 90       	pop	r10
     7ba:	9f 90       	pop	r9
     7bc:	8f 90       	pop	r8
     7be:	7f 90       	pop	r7
     7c0:	6f 90       	pop	r6
     7c2:	5f 90       	pop	r5
     7c4:	4f 90       	pop	r4
     7c6:	08 95       	ret

000007c8 <ow_input_pin_state>:
     7c8:	80 b3       	in	r24, 0x10	; 16
     7ca:	80 78       	andi	r24, 0x80	; 128
     7cc:	08 95       	ret

000007ce <ow_parasite_enable>:
     7ce:	97 9a       	sbi	0x12, 7	; 18
     7d0:	8f 9a       	sbi	0x11, 7	; 17
     7d2:	08 95       	ret

000007d4 <ow_reset>:
     7d4:	97 98       	cbi	0x12, 7	; 18
     7d6:	8f 9a       	sbi	0x11, 7	; 17
     7d8:	8f e2       	ldi	r24, 0x2F	; 47
     7da:	95 e0       	ldi	r25, 0x05	; 5
     7dc:	01 97       	sbiw	r24, 0x01	; 1
     7de:	f1 f7       	brne	.-4      	; 0x7dc <ow_reset+0x8>
     7e0:	9f b7       	in	r25, 0x3f	; 63
     7e2:	f8 94       	cli
     7e4:	8f 98       	cbi	0x11, 7	; 17
     7e6:	e3 ef       	ldi	r30, 0xF3	; 243
     7e8:	ea 95       	dec	r30
     7ea:	f1 f7       	brne	.-4      	; 0x7e8 <ow_reset+0x14>
     7ec:	00 00       	nop
     7ee:	80 b3       	in	r24, 0x10	; 16
     7f0:	9f bf       	out	0x3f, r25	; 63
     7f2:	e8 e7       	ldi	r30, 0x78	; 120
     7f4:	f4 e0       	ldi	r31, 0x04	; 4
     7f6:	31 97       	sbiw	r30, 0x01	; 1
     7f8:	f1 f7       	brne	.-4      	; 0x7f6 <ow_reset+0x22>
     7fa:	00 c0       	rjmp	.+0      	; 0x7fc <ow_reset+0x28>
     7fc:	87 9b       	sbis	0x10, 7	; 16
     7fe:	02 c0       	rjmp	.+4      	; 0x804 <__DATA_REGION_LENGTH__+0x4>
     800:	80 78       	andi	r24, 0x80	; 128
     802:	08 95       	ret
     804:	81 e0       	ldi	r24, 0x01	; 1
     806:	08 95       	ret

00000808 <ow_bit_io>:
     808:	2f b7       	in	r18, 0x3f	; 63
     80a:	f8 94       	cli
     80c:	8f 9a       	sbi	0x11, 7	; 17
     80e:	94 e0       	ldi	r25, 0x04	; 4
     810:	9a 95       	dec	r25
     812:	f1 f7       	brne	.-4      	; 0x810 <ow_bit_io+0x8>
     814:	81 11       	cpse	r24, r1
     816:	8f 98       	cbi	0x11, 7	; 17
     818:	97 e3       	ldi	r25, 0x37	; 55
     81a:	9a 95       	dec	r25
     81c:	f1 f7       	brne	.-4      	; 0x81a <ow_bit_io+0x12>
     81e:	00 00       	nop
     820:	90 b3       	in	r25, 0x10	; 16
     822:	99 0f       	add	r25, r25
     824:	99 0b       	sbc	r25, r25
     826:	89 23       	and	r24, r25
     828:	96 ea       	ldi	r25, 0xA6	; 166
     82a:	9a 95       	dec	r25
     82c:	f1 f7       	brne	.-4      	; 0x82a <ow_bit_io+0x22>
     82e:	8f 98       	cbi	0x11, 7	; 17
     830:	2f bf       	out	0x3f, r18	; 63
     832:	08 95       	ret

00000834 <ow_byte_wr>:
     834:	cf 93       	push	r28
     836:	df 93       	push	r29
     838:	c8 2f       	mov	r28, r24
     83a:	d8 e0       	ldi	r29, 0x08	; 8
     83c:	8c 2f       	mov	r24, r28
     83e:	81 70       	andi	r24, 0x01	; 1
     840:	0e 94 04 04 	call	0x808	; 0x808 <ow_bit_io>
     844:	c6 95       	lsr	r28
     846:	81 11       	cpse	r24, r1
     848:	c0 68       	ori	r28, 0x80	; 128
     84a:	d1 50       	subi	r29, 0x01	; 1
     84c:	b9 f7       	brne	.-18     	; 0x83c <ow_byte_wr+0x8>
     84e:	8c 2f       	mov	r24, r28
     850:	df 91       	pop	r29
     852:	cf 91       	pop	r28
     854:	08 95       	ret

00000856 <ow_byte_rd>:
     856:	8f ef       	ldi	r24, 0xFF	; 255
     858:	0c 94 1a 04 	jmp	0x834	; 0x834 <ow_byte_wr>

0000085c <ow_rom_search>:
     85c:	df 92       	push	r13
     85e:	ef 92       	push	r14
     860:	ff 92       	push	r15
     862:	0f 93       	push	r16
     864:	1f 93       	push	r17
     866:	cf 93       	push	r28
     868:	df 93       	push	r29
     86a:	e8 2e       	mov	r14, r24
     86c:	8b 01       	movw	r16, r22
     86e:	0e 94 ea 03 	call	0x7d4	; 0x7d4 <ow_reset>
     872:	81 11       	cpse	r24, r1
     874:	35 c0       	rjmp	.+106    	; 0x8e0 <__stack+0x81>
     876:	80 ef       	ldi	r24, 0xF0	; 240
     878:	0e 94 1a 04 	call	0x834	; 0x834 <ow_byte_wr>
     87c:	d0 e0       	ldi	r29, 0x00	; 0
     87e:	c0 e4       	ldi	r28, 0x40	; 64
     880:	88 ef       	ldi	r24, 0xF8	; 248
     882:	d8 2e       	mov	r13, r24
     884:	dc 0e       	add	r13, r28
     886:	81 e0       	ldi	r24, 0x01	; 1
     888:	0e 94 04 04 	call	0x808	; 0x808 <ow_bit_io>
     88c:	f8 2e       	mov	r15, r24
     88e:	81 e0       	ldi	r24, 0x01	; 1
     890:	0e 94 04 04 	call	0x808	; 0x808 <ow_bit_io>
     894:	88 23       	and	r24, r24
     896:	19 f0       	breq	.+6      	; 0x89e <__stack+0x3f>
     898:	ff 20       	and	r15, r15
     89a:	71 f0       	breq	.+28     	; 0x8b8 <__stack+0x59>
     89c:	23 c0       	rjmp	.+70     	; 0x8e4 <__stack+0x85>
     89e:	f1 10       	cpse	r15, r1
     8a0:	0b c0       	rjmp	.+22     	; 0x8b8 <__stack+0x59>
     8a2:	ce 15       	cp	r28, r14
     8a4:	30 f0       	brcs	.+12     	; 0x8b2 <__stack+0x53>
     8a6:	f8 01       	movw	r30, r16
     8a8:	80 81       	ld	r24, Z
     8aa:	80 ff       	sbrs	r24, 0
     8ac:	05 c0       	rjmp	.+10     	; 0x8b8 <__stack+0x59>
     8ae:	ce 15       	cp	r28, r14
     8b0:	19 f0       	breq	.+6      	; 0x8b8 <__stack+0x59>
     8b2:	dc 2f       	mov	r29, r28
     8b4:	ff 24       	eor	r15, r15
     8b6:	f3 94       	inc	r15
     8b8:	8f 2d       	mov	r24, r15
     8ba:	0e 94 04 04 	call	0x808	; 0x808 <ow_bit_io>
     8be:	f8 01       	movw	r30, r16
     8c0:	80 81       	ld	r24, Z
     8c2:	86 95       	lsr	r24
     8c4:	ff 20       	and	r15, r15
     8c6:	11 f0       	breq	.+4      	; 0x8cc <__stack+0x6d>
     8c8:	80 68       	ori	r24, 0x80	; 128
     8ca:	f8 01       	movw	r30, r16
     8cc:	80 83       	st	Z, r24
     8ce:	c1 50       	subi	r28, 0x01	; 1
     8d0:	cd 11       	cpse	r28, r13
     8d2:	d9 cf       	rjmp	.-78     	; 0x886 <__stack+0x27>
     8d4:	0f 5f       	subi	r16, 0xFF	; 255
     8d6:	1f 4f       	sbci	r17, 0xFF	; 255
     8d8:	c1 11       	cpse	r28, r1
     8da:	d2 cf       	rjmp	.-92     	; 0x880 <__stack+0x21>
     8dc:	8d 2f       	mov	r24, r29
     8de:	03 c0       	rjmp	.+6      	; 0x8e6 <__stack+0x87>
     8e0:	8f ef       	ldi	r24, 0xFF	; 255
     8e2:	01 c0       	rjmp	.+2      	; 0x8e6 <__stack+0x87>
     8e4:	8e ef       	ldi	r24, 0xFE	; 254
     8e6:	df 91       	pop	r29
     8e8:	cf 91       	pop	r28
     8ea:	1f 91       	pop	r17
     8ec:	0f 91       	pop	r16
     8ee:	ff 90       	pop	r15
     8f0:	ef 90       	pop	r14
     8f2:	df 90       	pop	r13
     8f4:	08 95       	ret

000008f6 <ow_command>:
     8f6:	ef 92       	push	r14
     8f8:	ff 92       	push	r15
     8fa:	1f 93       	push	r17
     8fc:	cf 93       	push	r28
     8fe:	df 93       	push	r29
     900:	18 2f       	mov	r17, r24
     902:	eb 01       	movw	r28, r22
     904:	0e 94 ea 03 	call	0x7d4	; 0x7d4 <ow_reset>
     908:	20 97       	sbiw	r28, 0x00	; 0
     90a:	71 f0       	breq	.+28     	; 0x928 <ow_command+0x32>
     90c:	85 e5       	ldi	r24, 0x55	; 85
     90e:	0e 94 1a 04 	call	0x834	; 0x834 <ow_byte_wr>
     912:	7e 01       	movw	r14, r28
     914:	88 e0       	ldi	r24, 0x08	; 8
     916:	e8 0e       	add	r14, r24
     918:	f1 1c       	adc	r15, r1
     91a:	89 91       	ld	r24, Y+
     91c:	0e 94 1a 04 	call	0x834	; 0x834 <ow_byte_wr>
     920:	ce 15       	cp	r28, r14
     922:	df 05       	cpc	r29, r15
     924:	d1 f7       	brne	.-12     	; 0x91a <ow_command+0x24>
     926:	03 c0       	rjmp	.+6      	; 0x92e <ow_command+0x38>
     928:	8c ec       	ldi	r24, 0xCC	; 204
     92a:	0e 94 1a 04 	call	0x834	; 0x834 <ow_byte_wr>
     92e:	81 2f       	mov	r24, r17
     930:	df 91       	pop	r29
     932:	cf 91       	pop	r28
     934:	1f 91       	pop	r17
     936:	ff 90       	pop	r15
     938:	ef 90       	pop	r14
     93a:	0c 94 1a 04 	jmp	0x834	; 0x834 <ow_byte_wr>

0000093e <d_led_init>:
     93e:	8f ef       	ldi	r24, 0xFF	; 255
     940:	87 bb       	out	0x17, r24	; 23
     942:	88 bb       	out	0x18, r24	; 24
     944:	8a b3       	in	r24, 0x1a	; 26
     946:	8f 60       	ori	r24, 0x0F	; 15
     948:	8a bb       	out	0x1a, r24	; 26
     94a:	8b b3       	in	r24, 0x1b	; 27
     94c:	8f 60       	ori	r24, 0x0F	; 15
     94e:	8b bb       	out	0x1b, r24	; 27
     950:	83 b7       	in	r24, 0x33	; 51
     952:	88 60       	ori	r24, 0x08	; 8
     954:	83 bf       	out	0x33, r24	; 51
     956:	83 b7       	in	r24, 0x33	; 51
     958:	85 60       	ori	r24, 0x05	; 5
     95a:	83 bf       	out	0x33, r24	; 51
     95c:	87 e2       	ldi	r24, 0x27	; 39
     95e:	8c bf       	out	0x3c, r24	; 60
     960:	89 b7       	in	r24, 0x39	; 57
     962:	82 60       	ori	r24, 0x02	; 2
     964:	89 bf       	out	0x39, r24	; 57
     966:	08 95       	ret

00000968 <__vector_10>:
     968:	1f 92       	push	r1
     96a:	0f 92       	push	r0
     96c:	0f b6       	in	r0, 0x3f	; 63
     96e:	0f 92       	push	r0
     970:	11 24       	eor	r1, r1
     972:	8f 93       	push	r24
     974:	9f 93       	push	r25
     976:	ef 93       	push	r30
     978:	ff 93       	push	r31
     97a:	8b b3       	in	r24, 0x1b	; 27
     97c:	8f 60       	ori	r24, 0x0F	; 15
     97e:	8b bb       	out	0x1b, r24	; 27
     980:	80 91 58 03 	lds	r24, 0x0358	; 0x800358 <__data_end>
     984:	81 11       	cpse	r24, r1
     986:	03 c0       	rjmp	.+6      	; 0x98e <__vector_10+0x26>
     988:	e0 91 b8 07 	lds	r30, 0x07B8	; 0x8007b8 <cy1>
     98c:	13 c0       	rjmp	.+38     	; 0x9b4 <__vector_10+0x4c>
     98e:	81 30       	cpi	r24, 0x01	; 1
     990:	41 f4       	brne	.+16     	; 0x9a2 <__vector_10+0x3a>
     992:	e0 91 b9 07 	lds	r30, 0x07B9	; 0x8007b9 <cy2>
     996:	f0 e0       	ldi	r31, 0x00	; 0
     998:	e0 59       	subi	r30, 0x90	; 144
     99a:	ff 4f       	sbci	r31, 0xFF	; 255
     99c:	e4 91       	lpm	r30, Z
     99e:	e0 68       	ori	r30, 0x80	; 128
     9a0:	0d c0       	rjmp	.+26     	; 0x9bc <__vector_10+0x54>
     9a2:	82 30       	cpi	r24, 0x02	; 2
     9a4:	19 f4       	brne	.+6      	; 0x9ac <__vector_10+0x44>
     9a6:	e0 91 ba 07 	lds	r30, 0x07BA	; 0x8007ba <cy3>
     9aa:	04 c0       	rjmp	.+8      	; 0x9b4 <__vector_10+0x4c>
     9ac:	83 30       	cpi	r24, 0x03	; 3
     9ae:	39 f4       	brne	.+14     	; 0x9be <__vector_10+0x56>
     9b0:	e0 91 b7 07 	lds	r30, 0x07B7	; 0x8007b7 <cy4>
     9b4:	f0 e0       	ldi	r31, 0x00	; 0
     9b6:	e0 59       	subi	r30, 0x90	; 144
     9b8:	ff 4f       	sbci	r31, 0xFF	; 255
     9ba:	e4 91       	lpm	r30, Z
     9bc:	e8 bb       	out	0x18, r30	; 24
     9be:	9b b3       	in	r25, 0x1b	; 27
     9c0:	e0 91 58 03 	lds	r30, 0x0358	; 0x800358 <__data_end>
     9c4:	f0 e0       	ldi	r31, 0x00	; 0
     9c6:	ea 58       	subi	r30, 0x8A	; 138
     9c8:	ff 4f       	sbci	r31, 0xFF	; 255
     9ca:	80 81       	ld	r24, Z
     9cc:	80 95       	com	r24
     9ce:	89 23       	and	r24, r25
     9d0:	8b bb       	out	0x1b, r24	; 27
     9d2:	80 91 58 03 	lds	r24, 0x0358	; 0x800358 <__data_end>
     9d6:	8f 5f       	subi	r24, 0xFF	; 255
     9d8:	84 30       	cpi	r24, 0x04	; 4
     9da:	18 f4       	brcc	.+6      	; 0x9e2 <__vector_10+0x7a>
     9dc:	80 93 58 03 	sts	0x0358, r24	; 0x800358 <__data_end>
     9e0:	02 c0       	rjmp	.+4      	; 0x9e6 <__vector_10+0x7e>
     9e2:	10 92 58 03 	sts	0x0358, r1	; 0x800358 <__data_end>
     9e6:	ff 91       	pop	r31
     9e8:	ef 91       	pop	r30
     9ea:	9f 91       	pop	r25
     9ec:	8f 91       	pop	r24
     9ee:	0f 90       	pop	r0
     9f0:	0f be       	out	0x3f, r0	; 63
     9f2:	0f 90       	pop	r0
     9f4:	1f 90       	pop	r1
     9f6:	18 95       	reti

000009f8 <i2cSetBitrate>:
     9f8:	9c 01       	movw	r18, r24
     9fa:	40 e0       	ldi	r20, 0x00	; 0
     9fc:	50 e0       	ldi	r21, 0x00	; 0
     9fe:	63 e3       	ldi	r22, 0x33	; 51
     a00:	7b e2       	ldi	r23, 0x2B	; 43
     a02:	80 e0       	ldi	r24, 0x00	; 0
     a04:	90 e0       	ldi	r25, 0x00	; 0
     a06:	0e 94 33 18 	call	0x3066	; 0x3066 <__divmodsi4>
     a0a:	82 2f       	mov	r24, r18
     a0c:	20 31       	cpi	r18, 0x10	; 16
     a0e:	30 f0       	brcs	.+12     	; 0xa1c <i2cSetBitrate+0x24>
     a10:	30 e0       	ldi	r19, 0x00	; 0
     a12:	20 51       	subi	r18, 0x10	; 16
     a14:	31 09       	sbc	r19, r1
     a16:	35 95       	asr	r19
     a18:	27 95       	ror	r18
     a1a:	82 2f       	mov	r24, r18
     a1c:	80 b9       	out	0x00, r24	; 0
     a1e:	08 95       	ret

00000a20 <TWI_start>:
     a20:	84 ea       	ldi	r24, 0xA4	; 164
     a22:	86 bf       	out	0x36, r24	; 54
     a24:	06 b6       	in	r0, 0x36	; 54
     a26:	07 fe       	sbrs	r0, 7
     a28:	fd cf       	rjmp	.-6      	; 0xa24 <TWI_start+0x4>
     a2a:	08 95       	ret

00000a2c <TWI_stop>:
     a2c:	84 e9       	ldi	r24, 0x94	; 148
     a2e:	86 bf       	out	0x36, r24	; 54
     a30:	06 b6       	in	r0, 0x36	; 54
     a32:	04 fc       	sbrc	r0, 4
     a34:	fd cf       	rjmp	.-6      	; 0xa30 <TWI_stop+0x4>
     a36:	08 95       	ret

00000a38 <TWI_write>:
     a38:	83 b9       	out	0x03, r24	; 3
     a3a:	84 e8       	ldi	r24, 0x84	; 132
     a3c:	86 bf       	out	0x36, r24	; 54
     a3e:	06 b6       	in	r0, 0x36	; 54
     a40:	07 fe       	sbrs	r0, 7
     a42:	fd cf       	rjmp	.-6      	; 0xa3e <TWI_write+0x6>
     a44:	08 95       	ret

00000a46 <TWI_read>:
     a46:	20 e4       	ldi	r18, 0x40	; 64
     a48:	82 9f       	mul	r24, r18
     a4a:	c0 01       	movw	r24, r0
     a4c:	11 24       	eor	r1, r1
     a4e:	84 68       	ori	r24, 0x84	; 132
     a50:	86 bf       	out	0x36, r24	; 54
     a52:	06 b6       	in	r0, 0x36	; 54
     a54:	07 fe       	sbrs	r0, 7
     a56:	fd cf       	rjmp	.-6      	; 0xa52 <TWI_read+0xc>
     a58:	83 b1       	in	r24, 0x03	; 3
     a5a:	08 95       	ret

00000a5c <TWI_write_buf>:
     a5c:	ff 92       	push	r15
     a5e:	0f 93       	push	r16
     a60:	1f 93       	push	r17
     a62:	cf 93       	push	r28
     a64:	df 93       	push	r29
     a66:	08 2f       	mov	r16, r24
     a68:	16 2f       	mov	r17, r22
     a6a:	c4 2f       	mov	r28, r20
     a6c:	f2 2e       	mov	r15, r18
     a6e:	d3 2f       	mov	r29, r19
     a70:	0e 94 10 05 	call	0xa20	; 0xa20 <TWI_start>
     a74:	80 2f       	mov	r24, r16
     a76:	0e 94 1c 05 	call	0xa38	; 0xa38 <TWI_write>
     a7a:	81 2f       	mov	r24, r17
     a7c:	0e 94 1c 05 	call	0xa38	; 0xa38 <TWI_write>
     a80:	0f 2d       	mov	r16, r15
     a82:	1d 2f       	mov	r17, r29
     a84:	cc 23       	and	r28, r28
     a86:	39 f0       	breq	.+14     	; 0xa96 <TWI_write_buf+0x3a>
     a88:	f8 01       	movw	r30, r16
     a8a:	81 91       	ld	r24, Z+
     a8c:	8f 01       	movw	r16, r30
     a8e:	0e 94 1c 05 	call	0xa38	; 0xa38 <TWI_write>
     a92:	c1 50       	subi	r28, 0x01	; 1
     a94:	f7 cf       	rjmp	.-18     	; 0xa84 <TWI_write_buf+0x28>
     a96:	df 91       	pop	r29
     a98:	cf 91       	pop	r28
     a9a:	1f 91       	pop	r17
     a9c:	0f 91       	pop	r16
     a9e:	ff 90       	pop	r15
     aa0:	0c 94 16 05 	jmp	0xa2c	; 0xa2c <TWI_stop>

00000aa4 <TWI_read_buf>:
     aa4:	ff 92       	push	r15
     aa6:	0f 93       	push	r16
     aa8:	1f 93       	push	r17
     aaa:	cf 93       	push	r28
     aac:	df 93       	push	r29
     aae:	18 2f       	mov	r17, r24
     ab0:	06 2f       	mov	r16, r22
     ab2:	c4 2f       	mov	r28, r20
     ab4:	f2 2e       	mov	r15, r18
     ab6:	d3 2f       	mov	r29, r19
     ab8:	0e 94 10 05 	call	0xa20	; 0xa20 <TWI_start>
     abc:	81 2f       	mov	r24, r17
     abe:	0e 94 1c 05 	call	0xa38	; 0xa38 <TWI_write>
     ac2:	80 2f       	mov	r24, r16
     ac4:	0e 94 1c 05 	call	0xa38	; 0xa38 <TWI_write>
     ac8:	0e 94 10 05 	call	0xa20	; 0xa20 <TWI_start>
     acc:	81 e0       	ldi	r24, 0x01	; 1
     ace:	81 0f       	add	r24, r17
     ad0:	0e 94 1c 05 	call	0xa38	; 0xa38 <TWI_write>
     ad4:	c1 50       	subi	r28, 0x01	; 1
     ad6:	0f 2d       	mov	r16, r15
     ad8:	1d 2f       	mov	r17, r29
     ada:	cf 3f       	cpi	r28, 0xFF	; 255
     adc:	59 f0       	breq	.+22     	; 0xaf4 <TWI_read_buf+0x50>
     ade:	81 e0       	ldi	r24, 0x01	; 1
     ae0:	c1 11       	cpse	r28, r1
     ae2:	01 c0       	rjmp	.+2      	; 0xae6 <TWI_read_buf+0x42>
     ae4:	80 e0       	ldi	r24, 0x00	; 0
     ae6:	0e 94 23 05 	call	0xa46	; 0xa46 <TWI_read>
     aea:	f8 01       	movw	r30, r16
     aec:	81 93       	st	Z+, r24
     aee:	8f 01       	movw	r16, r30
     af0:	c1 50       	subi	r28, 0x01	; 1
     af2:	f3 cf       	rjmp	.-26     	; 0xada <TWI_read_buf+0x36>
     af4:	df 91       	pop	r29
     af6:	cf 91       	pop	r28
     af8:	1f 91       	pop	r17
     afa:	0f 91       	pop	r16
     afc:	ff 90       	pop	r15
     afe:	0c 94 16 05 	jmp	0xa2c	; 0xa2c <TWI_stop>

00000b02 <ir_init>:
     b02:	8e 98       	cbi	0x11, 6	; 17
     b04:	96 9a       	sbi	0x12, 6	; 18
     b06:	8e b5       	in	r24, 0x2e	; 46
     b08:	82 60       	ori	r24, 0x02	; 2
     b0a:	8e bd       	out	0x2e, r24	; 46
     b0c:	8e b5       	in	r24, 0x2e	; 46
     b0e:	8f 7b       	andi	r24, 0xBF	; 191
     b10:	8e bd       	out	0x2e, r24	; 46
     b12:	10 92 be 07 	sts	0x07BE, r1	; 0x8007be <rc5cnt>
     b16:	89 b7       	in	r24, 0x39	; 57
     b18:	80 62       	ori	r24, 0x20	; 32
     b1a:	89 bf       	out	0x39, r24	; 57
     b1c:	10 92 bf 07 	sts	0x07BF, r1	; 0x8007bf <Ir_key_press_flag>
     b20:	08 95       	ret

00000b22 <__vector_6>:
     b22:	1f 92       	push	r1
     b24:	0f 92       	push	r0
     b26:	0f b6       	in	r0, 0x3f	; 63
     b28:	0f 92       	push	r0
     b2a:	11 24       	eor	r1, r1
     b2c:	2f 93       	push	r18
     b2e:	3f 93       	push	r19
     b30:	4f 93       	push	r20
     b32:	8f 93       	push	r24
     b34:	9f 93       	push	r25
     b36:	86 b5       	in	r24, 0x26	; 38
     b38:	97 b5       	in	r25, 0x27	; 39
     b3a:	20 91 5d 03 	lds	r18, 0x035D	; 0x80035d <LastCapture.1617>
     b3e:	30 91 5e 03 	lds	r19, 0x035E	; 0x80035e <LastCapture.1617+0x1>
     b42:	82 1b       	sub	r24, r18
     b44:	93 0b       	sbc	r25, r19
     b46:	26 b5       	in	r18, 0x26	; 38
     b48:	37 b5       	in	r19, 0x27	; 39
     b4a:	30 93 5e 03 	sts	0x035E, r19	; 0x80035e <LastCapture.1617+0x1>
     b4e:	20 93 5d 03 	sts	0x035D, r18	; 0x80035d <LastCapture.1617>
     b52:	3e b5       	in	r19, 0x2e	; 46
     b54:	20 e4       	ldi	r18, 0x40	; 64
     b56:	23 27       	eor	r18, r19
     b58:	2e bd       	out	0x2e, r18	; 46
     b5a:	80 3a       	cpi	r24, 0xA0	; 160
     b5c:	2a e0       	ldi	r18, 0x0A	; 10
     b5e:	92 07       	cpc	r25, r18
     b60:	10 f0       	brcs	.+4      	; 0xb66 <__vector_6+0x44>
     b62:	10 92 be 07 	sts	0x07BE, r1	; 0x8007be <rc5cnt>
     b66:	20 91 be 07 	lds	r18, 0x07BE	; 0x8007be <rc5cnt>
     b6a:	22 23       	and	r18, r18
     b6c:	19 f0       	breq	.+6      	; 0xb74 <__vector_6+0x52>
     b6e:	21 e0       	ldi	r18, 0x01	; 1
     b70:	20 93 5c 03 	sts	0x035C, r18	; 0x80035c <frame_status.1621>
     b74:	20 91 be 07 	lds	r18, 0x07BE	; 0x8007be <rc5cnt>
     b78:	21 11       	cpse	r18, r1
     b7a:	11 c0       	rjmp	.+34     	; 0xb9e <__vector_6+0x7c>
     b7c:	10 92 5b 03 	sts	0x035B, r1	; 0x80035b <IrData.1620+0x1>
     b80:	10 92 5a 03 	sts	0x035A, r1	; 0x80035a <IrData.1620>
     b84:	10 92 59 03 	sts	0x0359, r1	; 0x800359 <IrPulseCount.1619>
     b88:	2e b5       	in	r18, 0x2e	; 46
     b8a:	20 64       	ori	r18, 0x40	; 64
     b8c:	2e bd       	out	0x2e, r18	; 46
     b8e:	20 91 be 07 	lds	r18, 0x07BE	; 0x8007be <rc5cnt>
     b92:	2f 5f       	subi	r18, 0xFF	; 255
     b94:	20 93 be 07 	sts	0x07BE, r18	; 0x8007be <rc5cnt>
     b98:	22 e0       	ldi	r18, 0x02	; 2
     b9a:	20 93 5c 03 	sts	0x035C, r18	; 0x80035c <frame_status.1621>
     b9e:	20 91 5c 03 	lds	r18, 0x035C	; 0x80035c <frame_status.1621>
     ba2:	21 30       	cpi	r18, 0x01	; 1
     ba4:	09 f0       	breq	.+2      	; 0xba8 <__vector_6+0x86>
     ba6:	5f c0       	rjmp	.+190    	; 0xc66 <__vector_6+0x144>
     ba8:	9c 01       	movw	r18, r24
     baa:	23 5b       	subi	r18, 0xB3	; 179
     bac:	33 40       	sbci	r19, 0x03	; 3
     bae:	2d 3e       	cpi	r18, 0xED	; 237
     bb0:	36 40       	sbci	r19, 0x06	; 6
     bb2:	10 f0       	brcs	.+4      	; 0xbb8 <__vector_6+0x96>
     bb4:	10 92 5c 03 	sts	0x035C, r1	; 0x80035c <frame_status.1621>
     bb8:	20 91 5c 03 	lds	r18, 0x035C	; 0x80035c <frame_status.1621>
     bbc:	21 30       	cpi	r18, 0x01	; 1
     bbe:	09 f0       	breq	.+2      	; 0xbc2 <__vector_6+0xa0>
     bc0:	52 c0       	rjmp	.+164    	; 0xc66 <__vector_6+0x144>
     bc2:	8a 3d       	cpi	r24, 0xDA	; 218
     bc4:	95 40       	sbci	r25, 0x05	; 5
     bc6:	28 f0       	brcs	.+10     	; 0xbd2 <__vector_6+0xb0>
     bc8:	80 91 be 07 	lds	r24, 0x07BE	; 0x8007be <rc5cnt>
     bcc:	8f 5f       	subi	r24, 0xFF	; 255
     bce:	80 93 be 07 	sts	0x07BE, r24	; 0x8007be <rc5cnt>
     bd2:	80 91 be 07 	lds	r24, 0x07BE	; 0x8007be <rc5cnt>
     bd6:	82 30       	cpi	r24, 0x02	; 2
     bd8:	08 f4       	brcc	.+2      	; 0xbdc <__vector_6+0xba>
     bda:	40 c0       	rjmp	.+128    	; 0xc5c <__vector_6+0x13a>
     bdc:	80 91 be 07 	lds	r24, 0x07BE	; 0x8007be <rc5cnt>
     be0:	80 fd       	sbrc	r24, 0
     be2:	3c c0       	rjmp	.+120    	; 0xc5c <__vector_6+0x13a>
     be4:	80 91 5a 03 	lds	r24, 0x035A	; 0x80035a <IrData.1620>
     be8:	90 91 5b 03 	lds	r25, 0x035B	; 0x80035b <IrData.1620+0x1>
     bec:	88 0f       	add	r24, r24
     bee:	99 1f       	adc	r25, r25
     bf0:	90 93 5b 03 	sts	0x035B, r25	; 0x80035b <IrData.1620+0x1>
     bf4:	80 93 5a 03 	sts	0x035A, r24	; 0x80035a <IrData.1620>
     bf8:	0e b4       	in	r0, 0x2e	; 46
     bfa:	06 fe       	sbrs	r0, 6
     bfc:	05 c0       	rjmp	.+10     	; 0xc08 <__vector_6+0xe6>
     bfe:	81 60       	ori	r24, 0x01	; 1
     c00:	90 93 5b 03 	sts	0x035B, r25	; 0x80035b <IrData.1620+0x1>
     c04:	80 93 5a 03 	sts	0x035A, r24	; 0x80035a <IrData.1620>
     c08:	80 91 59 03 	lds	r24, 0x0359	; 0x800359 <IrPulseCount.1619>
     c0c:	8f 5f       	subi	r24, 0xFF	; 255
     c0e:	80 93 59 03 	sts	0x0359, r24	; 0x800359 <IrPulseCount.1619>
     c12:	8d 30       	cpi	r24, 0x0D	; 13
     c14:	18 f1       	brcs	.+70     	; 0xc5c <__vector_6+0x13a>
     c16:	80 91 bf 07 	lds	r24, 0x07BF	; 0x8007bf <Ir_key_press_flag>
     c1a:	81 11       	cpse	r24, r1
     c1c:	1a c0       	rjmp	.+52     	; 0xc52 <__vector_6+0x130>
     c1e:	80 91 5a 03 	lds	r24, 0x035A	; 0x80035a <IrData.1620>
     c22:	90 91 5b 03 	lds	r25, 0x035B	; 0x80035b <IrData.1620+0x1>
     c26:	28 2f       	mov	r18, r24
     c28:	2f 73       	andi	r18, 0x3F	; 63
     c2a:	20 93 bd 07 	sts	0x07BD, r18	; 0x8007bd <command>
     c2e:	9c 01       	movw	r18, r24
     c30:	20 7c       	andi	r18, 0xC0	; 192
     c32:	37 70       	andi	r19, 0x07	; 7
     c34:	46 e0       	ldi	r20, 0x06	; 6
     c36:	36 95       	lsr	r19
     c38:	27 95       	ror	r18
     c3a:	4a 95       	dec	r20
     c3c:	e1 f7       	brne	.-8      	; 0xc36 <__vector_6+0x114>
     c3e:	20 93 bc 07 	sts	0x07BC, r18	; 0x8007bc <address>
     c42:	88 27       	eor	r24, r24
     c44:	98 70       	andi	r25, 0x08	; 8
     c46:	89 2f       	mov	r24, r25
     c48:	86 95       	lsr	r24
     c4a:	86 95       	lsr	r24
     c4c:	86 95       	lsr	r24
     c4e:	80 93 bb 07 	sts	0x07BB, r24	; 0x8007bb <toggle_bit>
     c52:	10 92 5c 03 	sts	0x035C, r1	; 0x80035c <frame_status.1621>
     c56:	81 e0       	ldi	r24, 0x01	; 1
     c58:	80 93 bf 07 	sts	0x07BF, r24	; 0x8007bf <Ir_key_press_flag>
     c5c:	80 91 be 07 	lds	r24, 0x07BE	; 0x8007be <rc5cnt>
     c60:	8f 5f       	subi	r24, 0xFF	; 255
     c62:	80 93 be 07 	sts	0x07BE, r24	; 0x8007be <rc5cnt>
     c66:	80 91 5c 03 	lds	r24, 0x035C	; 0x80035c <frame_status.1621>
     c6a:	81 11       	cpse	r24, r1
     c6c:	05 c0       	rjmp	.+10     	; 0xc78 <__vector_6+0x156>
     c6e:	10 92 be 07 	sts	0x07BE, r1	; 0x8007be <rc5cnt>
     c72:	8e b5       	in	r24, 0x2e	; 46
     c74:	8f 7b       	andi	r24, 0xBF	; 191
     c76:	8e bd       	out	0x2e, r24	; 46
     c78:	9f 91       	pop	r25
     c7a:	8f 91       	pop	r24
     c7c:	4f 91       	pop	r20
     c7e:	3f 91       	pop	r19
     c80:	2f 91       	pop	r18
     c82:	0f 90       	pop	r0
     c84:	0f be       	out	0x3f, r0	; 63
     c86:	0f 90       	pop	r0
     c88:	1f 90       	pop	r1
     c8a:	18 95       	reti

00000c8c <key2_press>:
     c8c:	81 e0       	ldi	r24, 0x01	; 1
     c8e:	80 93 62 00 	sts	0x0062, r24	; 0x800062 <led_display>
     c92:	8c e4       	ldi	r24, 0x4C	; 76
     c94:	91 e0       	ldi	r25, 0x01	; 1
     c96:	0c 94 dc 0d 	jmp	0x1bb8	; 0x1bb8 <uart_puts>

00000c9a <key2_repeat>:
     c9a:	10 92 62 00 	sts	0x0062, r1	; 0x800062 <led_display>
     c9e:	83 e6       	ldi	r24, 0x63	; 99
     ca0:	91 e0       	ldi	r25, 0x01	; 1
     ca2:	0c 94 dc 0d 	jmp	0x1bb8	; 0x1bb8 <uart_puts>

00000ca6 <key3_press>:
     ca6:	81 e0       	ldi	r24, 0x01	; 1
     ca8:	80 93 6d 03 	sts	0x036D, r24	; 0x80036d <led_blink>
     cac:	8b e7       	ldi	r24, 0x7B	; 123
     cae:	91 e0       	ldi	r25, 0x01	; 1
     cb0:	0c 94 dc 0d 	jmp	0x1bb8	; 0x1bb8 <uart_puts>

00000cb4 <key3_repeat>:
     cb4:	10 92 6d 03 	sts	0x036D, r1	; 0x80036d <led_blink>
     cb8:	ae 9a       	sbi	0x15, 6	; 21
     cba:	8e e8       	ldi	r24, 0x8E	; 142
     cbc:	91 e0       	ldi	r25, 0x01	; 1
     cbe:	0c 94 dc 0d 	jmp	0x1bb8	; 0x1bb8 <uart_puts>

00000cc2 <key4_press>:
     cc2:	81 e0       	ldi	r24, 0x01	; 1
     cc4:	80 93 6b 03 	sts	0x036B, r24	; 0x80036b <usart_logs_data>
     cc8:	67 e0       	ldi	r22, 0x07	; 7
     cca:	80 e0       	ldi	r24, 0x00	; 0
     ccc:	0e 94 79 15 	call	0x2af2	; 0x2af2 <lcd_gotoxy>
     cd0:	8f ea       	ldi	r24, 0xAF	; 175
     cd2:	90 e0       	ldi	r25, 0x00	; 0
     cd4:	0e 94 82 17 	call	0x2f04	; 0x2f04 <lcd_puts_p>
     cd8:	8f ef       	ldi	r24, 0xFF	; 255
     cda:	91 e0       	ldi	r25, 0x01	; 1
     cdc:	0c 94 dc 0d 	jmp	0x1bb8	; 0x1bb8 <uart_puts>

00000ce0 <key4_repeat>:
     ce0:	10 92 6b 03 	sts	0x036B, r1	; 0x80036b <usart_logs_data>
     ce4:	67 e0       	ldi	r22, 0x07	; 7
     ce6:	80 e0       	ldi	r24, 0x00	; 0
     ce8:	0e 94 79 15 	call	0x2af2	; 0x2af2 <lcd_gotoxy>
     cec:	8f e9       	ldi	r24, 0x9F	; 159
     cee:	90 e0       	ldi	r25, 0x00	; 0
     cf0:	0e 94 82 17 	call	0x2f04	; 0x2f04 <lcd_puts_p>
     cf4:	87 e4       	ldi	r24, 0x47	; 71
     cf6:	92 e0       	ldi	r25, 0x02	; 2
     cf8:	0c 94 dc 0d 	jmp	0x1bb8	; 0x1bb8 <uart_puts>

00000cfc <key1_press>:
     cfc:	80 e0       	ldi	r24, 0x00	; 0
     cfe:	0e 94 d0 15 	call	0x2ba0	; 0x2ba0 <lcd_sleep>
     d02:	8b e1       	ldi	r24, 0x1B	; 27
     d04:	91 e0       	ldi	r25, 0x01	; 1
     d06:	0c 94 dc 0d 	jmp	0x1bb8	; 0x1bb8 <uart_puts>

00000d0a <key1_repeat>:
     d0a:	81 e0       	ldi	r24, 0x01	; 1
     d0c:	0e 94 d0 15 	call	0x2ba0	; 0x2ba0 <lcd_sleep>
     d10:	83 e3       	ldi	r24, 0x33	; 51
     d12:	91 e0       	ldi	r25, 0x01	; 1
     d14:	0c 94 dc 0d 	jmp	0x1bb8	; 0x1bb8 <uart_puts>

00000d18 <key5_press>:
     d18:	80 e0       	ldi	r24, 0x00	; 0
     d1a:	0e 94 d0 15 	call	0x2ba0	; 0x2ba0 <lcd_sleep>
     d1e:	81 e0       	ldi	r24, 0x01	; 1
     d20:	80 93 62 00 	sts	0x0062, r24	; 0x800062 <led_display>
     d24:	80 93 6d 03 	sts	0x036D, r24	; 0x80036d <led_blink>
     d28:	80 93 6b 03 	sts	0x036B, r24	; 0x80036b <usart_logs_data>
     d2c:	67 e0       	ldi	r22, 0x07	; 7
     d2e:	80 e0       	ldi	r24, 0x00	; 0
     d30:	0e 94 79 15 	call	0x2af2	; 0x2af2 <lcd_gotoxy>
     d34:	8f e8       	ldi	r24, 0x8F	; 143
     d36:	90 e0       	ldi	r25, 0x00	; 0
     d38:	0e 94 82 17 	call	0x2f04	; 0x2f04 <lcd_puts_p>
     d3c:	82 ed       	ldi	r24, 0xD2	; 210
     d3e:	91 e0       	ldi	r25, 0x01	; 1
     d40:	0c 94 dc 0d 	jmp	0x1bb8	; 0x1bb8 <uart_puts>

00000d44 <key5_repeat>:
     d44:	81 e0       	ldi	r24, 0x01	; 1
     d46:	0e 94 d0 15 	call	0x2ba0	; 0x2ba0 <lcd_sleep>
     d4a:	10 92 62 00 	sts	0x0062, r1	; 0x800062 <led_display>
     d4e:	10 92 6d 03 	sts	0x036D, r1	; 0x80036d <led_blink>
     d52:	ae 9a       	sbi	0x15, 6	; 21
     d54:	10 92 6b 03 	sts	0x036B, r1	; 0x80036b <usart_logs_data>
     d58:	67 e0       	ldi	r22, 0x07	; 7
     d5a:	80 e0       	ldi	r24, 0x00	; 0
     d5c:	0e 94 79 15 	call	0x2af2	; 0x2af2 <lcd_gotoxy>
     d60:	8f e7       	ldi	r24, 0x7F	; 127
     d62:	90 e0       	ldi	r25, 0x00	; 0
     d64:	0e 94 82 17 	call	0x2f04	; 0x2f04 <lcd_puts_p>
     d68:	81 e1       	ldi	r24, 0x11	; 17
     d6a:	92 e0       	ldi	r25, 0x02	; 2
     d6c:	0c 94 dc 0d 	jmp	0x1bb8	; 0x1bb8 <uart_puts>

00000d70 <__vector_1>:
     d70:	1f 92       	push	r1
     d72:	0f 92       	push	r0
     d74:	0f b6       	in	r0, 0x3f	; 63
     d76:	0f 92       	push	r0
     d78:	11 24       	eor	r1, r1
     d7a:	8f 93       	push	r24
     d7c:	81 e0       	ldi	r24, 0x01	; 1
     d7e:	80 93 60 00 	sts	0x0060, r24	; 0x800060 <__DATA_REGION_ORIGIN__>
     d82:	8f 91       	pop	r24
     d84:	0f 90       	pop	r0
     d86:	0f be       	out	0x3f, r0	; 63
     d88:	0f 90       	pop	r0
     d8a:	1f 90       	pop	r1
     d8c:	18 95       	reti

00000d8e <__vector_4>:
     d8e:	1f 92       	push	r1
     d90:	0f 92       	push	r0
     d92:	0f b6       	in	r0, 0x3f	; 63
     d94:	0f 92       	push	r0
     d96:	11 24       	eor	r1, r1
     d98:	8f 93       	push	r24
     d9a:	9f 93       	push	r25
     d9c:	80 91 69 03 	lds	r24, 0x0369	; 0x800369 <Timer1>
     da0:	90 91 6a 03 	lds	r25, 0x036A	; 0x80036a <Timer1+0x1>
     da4:	00 97       	sbiw	r24, 0x00	; 0
     da6:	29 f0       	breq	.+10     	; 0xdb2 <__vector_4+0x24>
     da8:	01 97       	sbiw	r24, 0x01	; 1
     daa:	90 93 6a 03 	sts	0x036A, r25	; 0x80036a <Timer1+0x1>
     dae:	80 93 69 03 	sts	0x0369, r24	; 0x800369 <Timer1>
     db2:	80 91 67 03 	lds	r24, 0x0367	; 0x800367 <Timer2>
     db6:	90 91 68 03 	lds	r25, 0x0368	; 0x800368 <Timer2+0x1>
     dba:	00 97       	sbiw	r24, 0x00	; 0
     dbc:	29 f0       	breq	.+10     	; 0xdc8 <__vector_4+0x3a>
     dbe:	01 97       	sbiw	r24, 0x01	; 1
     dc0:	90 93 68 03 	sts	0x0368, r25	; 0x800368 <Timer2+0x1>
     dc4:	80 93 67 03 	sts	0x0367, r24	; 0x800367 <Timer2>
     dc8:	80 91 65 03 	lds	r24, 0x0365	; 0x800365 <Timer3>
     dcc:	90 91 66 03 	lds	r25, 0x0366	; 0x800366 <Timer3+0x1>
     dd0:	00 97       	sbiw	r24, 0x00	; 0
     dd2:	29 f0       	breq	.+10     	; 0xdde <__vector_4+0x50>
     dd4:	01 97       	sbiw	r24, 0x01	; 1
     dd6:	90 93 66 03 	sts	0x0366, r25	; 0x800366 <Timer3+0x1>
     dda:	80 93 65 03 	sts	0x0365, r24	; 0x800365 <Timer3>
     dde:	80 91 63 03 	lds	r24, 0x0363	; 0x800363 <Timer4>
     de2:	90 91 64 03 	lds	r25, 0x0364	; 0x800364 <Timer4+0x1>
     de6:	00 97       	sbiw	r24, 0x00	; 0
     de8:	29 f0       	breq	.+10     	; 0xdf4 <__vector_4+0x66>
     dea:	01 97       	sbiw	r24, 0x01	; 1
     dec:	90 93 64 03 	sts	0x0364, r25	; 0x800364 <Timer4+0x1>
     df0:	80 93 63 03 	sts	0x0363, r24	; 0x800363 <Timer4>
     df4:	9f 91       	pop	r25
     df6:	8f 91       	pop	r24
     df8:	0f 90       	pop	r0
     dfa:	0f be       	out	0x3f, r0	; 63
     dfc:	0f 90       	pop	r0
     dfe:	1f 90       	pop	r1
     e00:	18 95       	reti

00000e02 <SuperDebounce>:
     e02:	cf 92       	push	r12
     e04:	df 92       	push	r13
     e06:	ef 92       	push	r14
     e08:	ff 92       	push	r15
     e0a:	0f 93       	push	r16
     e0c:	1f 93       	push	r17
     e0e:	cf 93       	push	r28
     e10:	df 93       	push	r29
     e12:	ec 01       	movw	r28, r24
     e14:	d8 01       	movw	r26, r16
     e16:	21 15       	cp	r18, r1
     e18:	31 05       	cpc	r19, r1
     e1a:	11 f4       	brne	.+4      	; 0xe20 <SuperDebounce+0x1e>
     e1c:	24 e1       	ldi	r18, 0x14	; 20
     e1e:	30 e0       	ldi	r19, 0x00	; 0
     e20:	10 97       	sbiw	r26, 0x00	; 0
     e22:	11 f4       	brne	.+4      	; 0xe28 <SuperDebounce+0x26>
     e24:	a6 e9       	ldi	r26, 0x96	; 150
     e26:	b0 e0       	ldi	r27, 0x00	; 0
     e28:	fb 01       	movw	r30, r22
     e2a:	10 81       	ld	r17, Z
     e2c:	14 23       	and	r17, r20
     e2e:	88 81       	ld	r24, Y
     e30:	11 11       	cpse	r17, r1
     e32:	07 c0       	rjmp	.+14     	; 0xe42 <SuperDebounce+0x40>
     e34:	81 11       	cpse	r24, r1
     e36:	05 c0       	rjmp	.+10     	; 0xe42 <SuperDebounce+0x40>
     e38:	81 e0       	ldi	r24, 0x01	; 1
     e3a:	88 83       	st	Y, r24
     e3c:	8f e0       	ldi	r24, 0x0F	; 15
     e3e:	90 e0       	ldi	r25, 0x00	; 0
     e40:	12 c0       	rjmp	.+36     	; 0xe66 <SuperDebounce+0x64>
     e42:	88 23       	and	r24, r24
     e44:	09 f4       	brne	.+2      	; 0xe48 <SuperDebounce+0x46>
     e46:	4e c0       	rjmp	.+156    	; 0xee4 <SuperDebounce+0xe2>
     e48:	11 11       	cpse	r17, r1
     e4a:	12 c0       	rjmp	.+36     	; 0xe70 <SuperDebounce+0x6e>
     e4c:	81 30       	cpi	r24, 0x01	; 1
     e4e:	d1 f4       	brne	.+52     	; 0xe84 <SuperDebounce+0x82>
     e50:	80 91 69 03 	lds	r24, 0x0369	; 0x800369 <Timer1>
     e54:	90 91 6a 03 	lds	r25, 0x036A	; 0x80036a <Timer1+0x1>
     e58:	89 2b       	or	r24, r25
     e5a:	09 f0       	breq	.+2      	; 0xe5e <SuperDebounce+0x5c>
     e5c:	43 c0       	rjmp	.+134    	; 0xee4 <SuperDebounce+0xe2>
     e5e:	82 e0       	ldi	r24, 0x02	; 2
     e60:	88 83       	st	Y, r24
     e62:	85 e0       	ldi	r24, 0x05	; 5
     e64:	90 e0       	ldi	r25, 0x00	; 0
     e66:	90 93 6a 03 	sts	0x036A, r25	; 0x80036a <Timer1+0x1>
     e6a:	80 93 69 03 	sts	0x0369, r24	; 0x800369 <Timer1>
     e6e:	35 c0       	rjmp	.+106    	; 0xeda <SuperDebounce+0xd8>
     e70:	82 50       	subi	r24, 0x02	; 2
     e72:	82 30       	cpi	r24, 0x02	; 2
     e74:	90 f5       	brcc	.+100    	; 0xeda <SuperDebounce+0xd8>
     e76:	e1 14       	cp	r14, r1
     e78:	f1 04       	cpc	r15, r1
     e7a:	11 f0       	breq	.+4      	; 0xe80 <SuperDebounce+0x7e>
     e7c:	f7 01       	movw	r30, r14
     e7e:	09 95       	icall
     e80:	18 82       	st	Y, r1
     e82:	2b c0       	rjmp	.+86     	; 0xeda <SuperDebounce+0xd8>
     e84:	82 30       	cpi	r24, 0x02	; 2
     e86:	69 f4       	brne	.+26     	; 0xea2 <SuperDebounce+0xa0>
     e88:	80 91 69 03 	lds	r24, 0x0369	; 0x800369 <Timer1>
     e8c:	90 91 6a 03 	lds	r25, 0x036A	; 0x80036a <Timer1+0x1>
     e90:	89 2b       	or	r24, r25
     e92:	41 f5       	brne	.+80     	; 0xee4 <SuperDebounce+0xe2>
     e94:	83 e0       	ldi	r24, 0x03	; 3
     e96:	88 83       	st	Y, r24
     e98:	b0 93 6a 03 	sts	0x036A, r27	; 0x80036a <Timer1+0x1>
     e9c:	a0 93 69 03 	sts	0x0369, r26	; 0x800369 <Timer1>
     ea0:	1c c0       	rjmp	.+56     	; 0xeda <SuperDebounce+0xd8>
     ea2:	83 30       	cpi	r24, 0x03	; 3
     ea4:	49 f4       	brne	.+18     	; 0xeb8 <SuperDebounce+0xb6>
     ea6:	80 91 69 03 	lds	r24, 0x0369	; 0x800369 <Timer1>
     eaa:	90 91 6a 03 	lds	r25, 0x036A	; 0x80036a <Timer1+0x1>
     eae:	89 2b       	or	r24, r25
     eb0:	c9 f4       	brne	.+50     	; 0xee4 <SuperDebounce+0xe2>
     eb2:	84 e0       	ldi	r24, 0x04	; 4
     eb4:	88 83       	st	Y, r24
     eb6:	11 c0       	rjmp	.+34     	; 0xeda <SuperDebounce+0xd8>
     eb8:	84 30       	cpi	r24, 0x04	; 4
     eba:	79 f4       	brne	.+30     	; 0xeda <SuperDebounce+0xd8>
     ebc:	80 91 69 03 	lds	r24, 0x0369	; 0x800369 <Timer1>
     ec0:	90 91 6a 03 	lds	r25, 0x036A	; 0x80036a <Timer1+0x1>
     ec4:	89 2b       	or	r24, r25
     ec6:	71 f4       	brne	.+28     	; 0xee4 <SuperDebounce+0xe2>
     ec8:	30 93 6a 03 	sts	0x036A, r19	; 0x80036a <Timer1+0x1>
     ecc:	20 93 69 03 	sts	0x0369, r18	; 0x800369 <Timer1>
     ed0:	c1 14       	cp	r12, r1
     ed2:	d1 04       	cpc	r13, r1
     ed4:	39 f0       	breq	.+14     	; 0xee4 <SuperDebounce+0xe2>
     ed6:	f6 01       	movw	r30, r12
     ed8:	09 95       	icall
     eda:	88 81       	ld	r24, Y
     edc:	83 30       	cpi	r24, 0x03	; 3
     ede:	10 f0       	brcs	.+4      	; 0xee4 <SuperDebounce+0xe2>
     ee0:	11 11       	cpse	r17, r1
     ee2:	18 82       	st	Y, r1
     ee4:	df 91       	pop	r29
     ee6:	cf 91       	pop	r28
     ee8:	1f 91       	pop	r17
     eea:	0f 91       	pop	r16
     eec:	ff 90       	pop	r15
     eee:	ef 90       	pop	r14
     ef0:	df 90       	pop	r13
     ef2:	cf 90       	pop	r12
     ef4:	08 95       	ret

00000ef6 <oled_display_temp_DS18B20>:
     ef6:	cf 93       	push	r28
     ef8:	c8 2f       	mov	r28, r24
     efa:	68 2f       	mov	r22, r24
     efc:	80 e0       	ldi	r24, 0x00	; 0
     efe:	0e 94 79 15 	call	0x2af2	; 0x2af2 <lcd_gotoxy>
     f02:	8f e6       	ldi	r24, 0x6F	; 111
     f04:	91 e0       	ldi	r25, 0x01	; 1
     f06:	0e 94 82 17 	call	0x2f04	; 0x2f04 <lcd_puts_p>
     f0a:	80 91 d6 07 	lds	r24, 0x07D6	; 0x8007d6 <subzero>
     f0e:	88 23       	and	r24, r24
     f10:	91 f0       	breq	.+36     	; 0xf36 <oled_display_temp_DS18B20+0x40>
     f12:	80 91 da 07 	lds	r24, 0x07DA	; 0x8007da <cel>
     f16:	6c 2f       	mov	r22, r28
     f18:	8a 30       	cpi	r24, 0x0A	; 10
     f1a:	30 f4       	brcc	.+12     	; 0xf28 <oled_display_temp_DS18B20+0x32>
     f1c:	8e e0       	ldi	r24, 0x0E	; 14
     f1e:	0e 94 79 15 	call	0x2af2	; 0x2af2 <lcd_gotoxy>
     f22:	8c e6       	ldi	r24, 0x6C	; 108
     f24:	91 e0       	ldi	r25, 0x01	; 1
     f26:	05 c0       	rjmp	.+10     	; 0xf32 <oled_display_temp_DS18B20+0x3c>
     f28:	8e e0       	ldi	r24, 0x0E	; 14
     f2a:	0e 94 79 15 	call	0x2af2	; 0x2af2 <lcd_gotoxy>
     f2e:	8a e6       	ldi	r24, 0x6A	; 106
     f30:	91 e0       	ldi	r25, 0x01	; 1
     f32:	0e 94 82 17 	call	0x2f04	; 0x2f04 <lcd_puts_p>
     f36:	80 91 d6 07 	lds	r24, 0x07D6	; 0x8007d6 <subzero>
     f3a:	81 11       	cpse	r24, r1
     f3c:	12 c0       	rjmp	.+36     	; 0xf62 <oled_display_temp_DS18B20+0x6c>
     f3e:	80 91 da 07 	lds	r24, 0x07DA	; 0x8007da <cel>
     f42:	6c 2f       	mov	r22, r28
     f44:	8a 30       	cpi	r24, 0x0A	; 10
     f46:	30 f4       	brcc	.+12     	; 0xf54 <oled_display_temp_DS18B20+0x5e>
     f48:	8e e0       	ldi	r24, 0x0E	; 14
     f4a:	0e 94 79 15 	call	0x2af2	; 0x2af2 <lcd_gotoxy>
     f4e:	87 e6       	ldi	r24, 0x67	; 103
     f50:	91 e0       	ldi	r25, 0x01	; 1
     f52:	05 c0       	rjmp	.+10     	; 0xf5e <oled_display_temp_DS18B20+0x68>
     f54:	8e e0       	ldi	r24, 0x0E	; 14
     f56:	0e 94 79 15 	call	0x2af2	; 0x2af2 <lcd_gotoxy>
     f5a:	85 e6       	ldi	r24, 0x65	; 101
     f5c:	91 e0       	ldi	r25, 0x01	; 1
     f5e:	0e 94 82 17 	call	0x2f04	; 0x2f04 <lcd_puts_p>
     f62:	80 91 da 07 	lds	r24, 0x07DA	; 0x8007da <cel>
     f66:	90 e0       	ldi	r25, 0x00	; 0
     f68:	0e 94 91 17 	call	0x2f22	; 0x2f22 <oled_int>
     f6c:	83 e6       	ldi	r24, 0x63	; 99
     f6e:	91 e0       	ldi	r25, 0x01	; 1
     f70:	0e 94 82 17 	call	0x2f04	; 0x2f04 <lcd_puts_p>
     f74:	80 91 d4 07 	lds	r24, 0x07D4	; 0x8007d4 <cel_fract_bits>
     f78:	90 e0       	ldi	r25, 0x00	; 0
     f7a:	0e 94 91 17 	call	0x2f22	; 0x2f22 <oled_int>
     f7e:	80 e6       	ldi	r24, 0x60	; 96
     f80:	91 e0       	ldi	r25, 0x01	; 1
     f82:	cf 91       	pop	r28
     f84:	0c 94 82 17 	jmp	0x2f04	; 0x2f04 <lcd_puts_p>

00000f88 <oled_day_of_the_week>:
     f88:	90 e0       	ldi	r25, 0x00	; 0
     f8a:	fc 01       	movw	r30, r24
     f8c:	31 97       	sbiw	r30, 0x01	; 1
     f8e:	e7 30       	cpi	r30, 0x07	; 7
     f90:	f1 05       	cpc	r31, r1
     f92:	d0 f4       	brcc	.+52     	; 0xfc8 <oled_day_of_the_week+0x40>
     f94:	e6 5d       	subi	r30, 0xD6	; 214
     f96:	ff 4f       	sbci	r31, 0xFF	; 255
     f98:	0c 94 52 18 	jmp	0x30a4	; 0x30a4 <__tablejump2__>
     f9c:	8d e5       	ldi	r24, 0x5D	; 93
     f9e:	91 e0       	ldi	r25, 0x01	; 1
     fa0:	11 c0       	rjmp	.+34     	; 0xfc4 <oled_day_of_the_week+0x3c>
     fa2:	8a e5       	ldi	r24, 0x5A	; 90
     fa4:	91 e0       	ldi	r25, 0x01	; 1
     fa6:	0e c0       	rjmp	.+28     	; 0xfc4 <oled_day_of_the_week+0x3c>
     fa8:	87 e5       	ldi	r24, 0x57	; 87
     faa:	91 e0       	ldi	r25, 0x01	; 1
     fac:	0b c0       	rjmp	.+22     	; 0xfc4 <oled_day_of_the_week+0x3c>
     fae:	84 e5       	ldi	r24, 0x54	; 84
     fb0:	91 e0       	ldi	r25, 0x01	; 1
     fb2:	08 c0       	rjmp	.+16     	; 0xfc4 <oled_day_of_the_week+0x3c>
     fb4:	81 e5       	ldi	r24, 0x51	; 81
     fb6:	91 e0       	ldi	r25, 0x01	; 1
     fb8:	05 c0       	rjmp	.+10     	; 0xfc4 <oled_day_of_the_week+0x3c>
     fba:	8e e4       	ldi	r24, 0x4E	; 78
     fbc:	91 e0       	ldi	r25, 0x01	; 1
     fbe:	02 c0       	rjmp	.+4      	; 0xfc4 <oled_day_of_the_week+0x3c>
     fc0:	8b e4       	ldi	r24, 0x4B	; 75
     fc2:	91 e0       	ldi	r25, 0x01	; 1
     fc4:	0c 94 82 17 	jmp	0x2f04	; 0x2f04 <lcd_puts_p>
     fc8:	08 95       	ret

00000fca <usart_day_of_the_week>:
     fca:	90 e0       	ldi	r25, 0x00	; 0
     fcc:	fc 01       	movw	r30, r24
     fce:	31 97       	sbiw	r30, 0x01	; 1
     fd0:	e7 30       	cpi	r30, 0x07	; 7
     fd2:	f1 05       	cpc	r31, r1
     fd4:	d0 f4       	brcc	.+52     	; 0x100a <usart_day_of_the_week+0x40>
     fd6:	ef 5c       	subi	r30, 0xCF	; 207
     fd8:	ff 4f       	sbci	r31, 0xFF	; 255
     fda:	0c 94 52 18 	jmp	0x30a4	; 0x30a4 <__tablejump2__>
     fde:	8a e7       	ldi	r24, 0x7A	; 122
     fe0:	90 e0       	ldi	r25, 0x00	; 0
     fe2:	11 c0       	rjmp	.+34     	; 0x1006 <usart_day_of_the_week+0x3c>
     fe4:	8d e7       	ldi	r24, 0x7D	; 125
     fe6:	90 e0       	ldi	r25, 0x00	; 0
     fe8:	0e c0       	rjmp	.+28     	; 0x1006 <usart_day_of_the_week+0x3c>
     fea:	80 e8       	ldi	r24, 0x80	; 128
     fec:	90 e0       	ldi	r25, 0x00	; 0
     fee:	0b c0       	rjmp	.+22     	; 0x1006 <usart_day_of_the_week+0x3c>
     ff0:	83 e8       	ldi	r24, 0x83	; 131
     ff2:	90 e0       	ldi	r25, 0x00	; 0
     ff4:	08 c0       	rjmp	.+16     	; 0x1006 <usart_day_of_the_week+0x3c>
     ff6:	86 e8       	ldi	r24, 0x86	; 134
     ff8:	90 e0       	ldi	r25, 0x00	; 0
     ffa:	05 c0       	rjmp	.+10     	; 0x1006 <usart_day_of_the_week+0x3c>
     ffc:	89 e8       	ldi	r24, 0x89	; 137
     ffe:	90 e0       	ldi	r25, 0x00	; 0
    1000:	02 c0       	rjmp	.+4      	; 0x1006 <usart_day_of_the_week+0x3c>
    1002:	8c e8       	ldi	r24, 0x8C	; 140
    1004:	90 e0       	ldi	r25, 0x00	; 0
    1006:	0c 94 dc 0d 	jmp	0x1bb8	; 0x1bb8 <uart_puts>
    100a:	08 95       	ret

0000100c <usart_control>:
    100c:	80 91 61 00 	lds	r24, 0x0061	; 0x800061 <usart_help>
    1010:	88 23       	and	r24, r24
    1012:	21 f0       	breq	.+8      	; 0x101c <usart_control+0x10>
    1014:	8f e8       	ldi	r24, 0x8F	; 143
    1016:	90 e0       	ldi	r25, 0x00	; 0
    1018:	0e 94 dc 0d 	call	0x1bb8	; 0x1bb8 <uart_puts>
    101c:	10 92 61 00 	sts	0x0061, r1	; 0x800061 <usart_help>
    1020:	0e 94 2c 0e 	call	0x1c58	; 0x1c58 <uart_getc>
    1024:	80 93 6c 03 	sts	0x036C, r24	; 0x80036c <usart_tx>
    1028:	80 91 6c 03 	lds	r24, 0x036C	; 0x80036c <usart_tx>
    102c:	88 36       	cpi	r24, 0x68	; 104
    102e:	21 f0       	breq	.+8      	; 0x1038 <usart_control+0x2c>
    1030:	80 91 6c 03 	lds	r24, 0x036C	; 0x80036c <usart_tx>
    1034:	88 34       	cpi	r24, 0x48	; 72
    1036:	61 f5       	brne	.+88     	; 0x1090 <usart_control+0x84>
    1038:	8d eb       	ldi	r24, 0xBD	; 189
    103a:	90 e0       	ldi	r25, 0x00	; 0
    103c:	0e 94 dc 0d 	call	0x1bb8	; 0x1bb8 <uart_puts>
    1040:	85 e1       	ldi	r24, 0x15	; 21
    1042:	91 e0       	ldi	r25, 0x01	; 1
    1044:	0e 94 dc 0d 	call	0x1bb8	; 0x1bb8 <uart_puts>
    1048:	8d e2       	ldi	r24, 0x2D	; 45
    104a:	91 e0       	ldi	r25, 0x01	; 1
    104c:	0e 94 dc 0d 	call	0x1bb8	; 0x1bb8 <uart_puts>
    1050:	86 e4       	ldi	r24, 0x46	; 70
    1052:	91 e0       	ldi	r25, 0x01	; 1
    1054:	0e 94 dc 0d 	call	0x1bb8	; 0x1bb8 <uart_puts>
    1058:	8d e5       	ldi	r24, 0x5D	; 93
    105a:	91 e0       	ldi	r25, 0x01	; 1
    105c:	0e 94 dc 0d 	call	0x1bb8	; 0x1bb8 <uart_puts>
    1060:	85 e7       	ldi	r24, 0x75	; 117
    1062:	91 e0       	ldi	r25, 0x01	; 1
    1064:	0e 94 dc 0d 	call	0x1bb8	; 0x1bb8 <uart_puts>
    1068:	88 e8       	ldi	r24, 0x88	; 136
    106a:	91 e0       	ldi	r25, 0x01	; 1
    106c:	0e 94 dc 0d 	call	0x1bb8	; 0x1bb8 <uart_puts>
    1070:	82 ea       	ldi	r24, 0xA2	; 162
    1072:	91 e0       	ldi	r25, 0x01	; 1
    1074:	0e 94 dc 0d 	call	0x1bb8	; 0x1bb8 <uart_puts>
    1078:	84 eb       	ldi	r24, 0xB4	; 180
    107a:	91 e0       	ldi	r25, 0x01	; 1
    107c:	0e 94 dc 0d 	call	0x1bb8	; 0x1bb8 <uart_puts>
    1080:	8c ec       	ldi	r24, 0xCC	; 204
    1082:	91 e0       	ldi	r25, 0x01	; 1
    1084:	0e 94 dc 0d 	call	0x1bb8	; 0x1bb8 <uart_puts>
    1088:	8b e0       	ldi	r24, 0x0B	; 11
    108a:	92 e0       	ldi	r25, 0x02	; 2
    108c:	0e 94 dc 0d 	call	0x1bb8	; 0x1bb8 <uart_puts>
    1090:	80 91 6c 03 	lds	r24, 0x036C	; 0x80036c <usart_tx>
    1094:	80 33       	cpi	r24, 0x30	; 48
    1096:	51 f4       	brne	.+20     	; 0x10ac <usart_control+0xa0>
    1098:	80 e0       	ldi	r24, 0x00	; 0
    109a:	0e 94 d0 15 	call	0x2ba0	; 0x2ba0 <lcd_sleep>
    109e:	89 e5       	ldi	r24, 0x59	; 89
    10a0:	92 e0       	ldi	r25, 0x02	; 2
    10a2:	0e 94 dc 0d 	call	0x1bb8	; 0x1bb8 <uart_puts>
    10a6:	8b e1       	ldi	r24, 0x1B	; 27
    10a8:	91 e0       	ldi	r25, 0x01	; 1
    10aa:	a9 c0       	rjmp	.+338    	; 0x11fe <usart_control+0x1f2>
    10ac:	80 91 6c 03 	lds	r24, 0x036C	; 0x80036c <usart_tx>
    10b0:	81 33       	cpi	r24, 0x31	; 49
    10b2:	51 f4       	brne	.+20     	; 0x10c8 <usart_control+0xbc>
    10b4:	81 e0       	ldi	r24, 0x01	; 1
    10b6:	0e 94 d0 15 	call	0x2ba0	; 0x2ba0 <lcd_sleep>
    10ba:	8b e6       	ldi	r24, 0x6B	; 107
    10bc:	92 e0       	ldi	r25, 0x02	; 2
    10be:	0e 94 dc 0d 	call	0x1bb8	; 0x1bb8 <uart_puts>
    10c2:	83 e3       	ldi	r24, 0x33	; 51
    10c4:	91 e0       	ldi	r25, 0x01	; 1
    10c6:	9b c0       	rjmp	.+310    	; 0x11fe <usart_control+0x1f2>
    10c8:	80 91 6c 03 	lds	r24, 0x036C	; 0x80036c <usart_tx>
    10cc:	82 33       	cpi	r24, 0x32	; 50
    10ce:	51 f4       	brne	.+20     	; 0x10e4 <usart_control+0xd8>
    10d0:	81 e0       	ldi	r24, 0x01	; 1
    10d2:	80 93 62 00 	sts	0x0062, r24	; 0x800062 <led_display>
    10d6:	8d e7       	ldi	r24, 0x7D	; 125
    10d8:	92 e0       	ldi	r25, 0x02	; 2
    10da:	0e 94 dc 0d 	call	0x1bb8	; 0x1bb8 <uart_puts>
    10de:	8c e4       	ldi	r24, 0x4C	; 76
    10e0:	91 e0       	ldi	r25, 0x01	; 1
    10e2:	8d c0       	rjmp	.+282    	; 0x11fe <usart_control+0x1f2>
    10e4:	80 91 6c 03 	lds	r24, 0x036C	; 0x80036c <usart_tx>
    10e8:	83 33       	cpi	r24, 0x33	; 51
    10ea:	49 f4       	brne	.+18     	; 0x10fe <usart_control+0xf2>
    10ec:	10 92 62 00 	sts	0x0062, r1	; 0x800062 <led_display>
    10f0:	8f e8       	ldi	r24, 0x8F	; 143
    10f2:	92 e0       	ldi	r25, 0x02	; 2
    10f4:	0e 94 dc 0d 	call	0x1bb8	; 0x1bb8 <uart_puts>
    10f8:	83 e6       	ldi	r24, 0x63	; 99
    10fa:	91 e0       	ldi	r25, 0x01	; 1
    10fc:	80 c0       	rjmp	.+256    	; 0x11fe <usart_control+0x1f2>
    10fe:	80 91 6c 03 	lds	r24, 0x036C	; 0x80036c <usart_tx>
    1102:	84 33       	cpi	r24, 0x34	; 52
    1104:	51 f4       	brne	.+20     	; 0x111a <usart_control+0x10e>
    1106:	81 e0       	ldi	r24, 0x01	; 1
    1108:	80 93 6d 03 	sts	0x036D, r24	; 0x80036d <led_blink>
    110c:	81 ea       	ldi	r24, 0xA1	; 161
    110e:	92 e0       	ldi	r25, 0x02	; 2
    1110:	0e 94 dc 0d 	call	0x1bb8	; 0x1bb8 <uart_puts>
    1114:	8b e7       	ldi	r24, 0x7B	; 123
    1116:	91 e0       	ldi	r25, 0x01	; 1
    1118:	72 c0       	rjmp	.+228    	; 0x11fe <usart_control+0x1f2>
    111a:	80 91 6c 03 	lds	r24, 0x036C	; 0x80036c <usart_tx>
    111e:	85 33       	cpi	r24, 0x35	; 53
    1120:	51 f4       	brne	.+20     	; 0x1136 <usart_control+0x12a>
    1122:	10 92 6d 03 	sts	0x036D, r1	; 0x80036d <led_blink>
    1126:	83 eb       	ldi	r24, 0xB3	; 179
    1128:	92 e0       	ldi	r25, 0x02	; 2
    112a:	0e 94 dc 0d 	call	0x1bb8	; 0x1bb8 <uart_puts>
    112e:	ae 9a       	sbi	0x15, 6	; 21
    1130:	8e e8       	ldi	r24, 0x8E	; 142
    1132:	91 e0       	ldi	r25, 0x01	; 1
    1134:	64 c0       	rjmp	.+200    	; 0x11fe <usart_control+0x1f2>
    1136:	80 91 6c 03 	lds	r24, 0x036C	; 0x80036c <usart_tx>
    113a:	86 33       	cpi	r24, 0x36	; 54
    113c:	91 f4       	brne	.+36     	; 0x1162 <usart_control+0x156>
    113e:	81 e0       	ldi	r24, 0x01	; 1
    1140:	80 93 6b 03 	sts	0x036B, r24	; 0x80036b <usart_logs_data>
    1144:	67 e0       	ldi	r22, 0x07	; 7
    1146:	80 e0       	ldi	r24, 0x00	; 0
    1148:	0e 94 79 15 	call	0x2af2	; 0x2af2 <lcd_gotoxy>
    114c:	85 ec       	ldi	r24, 0xC5	; 197
    114e:	92 e0       	ldi	r25, 0x02	; 2
    1150:	0e 94 dc 0d 	call	0x1bb8	; 0x1bb8 <uart_puts>
    1154:	8b e3       	ldi	r24, 0x3B	; 59
    1156:	91 e0       	ldi	r25, 0x01	; 1
    1158:	0e 94 82 17 	call	0x2f04	; 0x2f04 <lcd_puts_p>
    115c:	8f ef       	ldi	r24, 0xFF	; 255
    115e:	91 e0       	ldi	r25, 0x01	; 1
    1160:	4e c0       	rjmp	.+156    	; 0x11fe <usart_control+0x1f2>
    1162:	80 91 6c 03 	lds	r24, 0x036C	; 0x80036c <usart_tx>
    1166:	87 33       	cpi	r24, 0x37	; 55
    1168:	89 f4       	brne	.+34     	; 0x118c <usart_control+0x180>
    116a:	10 92 6b 03 	sts	0x036B, r1	; 0x80036b <usart_logs_data>
    116e:	67 e0       	ldi	r22, 0x07	; 7
    1170:	80 e0       	ldi	r24, 0x00	; 0
    1172:	0e 94 79 15 	call	0x2af2	; 0x2af2 <lcd_gotoxy>
    1176:	87 ed       	ldi	r24, 0xD7	; 215
    1178:	92 e0       	ldi	r25, 0x02	; 2
    117a:	0e 94 dc 0d 	call	0x1bb8	; 0x1bb8 <uart_puts>
    117e:	8b e2       	ldi	r24, 0x2B	; 43
    1180:	91 e0       	ldi	r25, 0x01	; 1
    1182:	0e 94 82 17 	call	0x2f04	; 0x2f04 <lcd_puts_p>
    1186:	87 e4       	ldi	r24, 0x47	; 71
    1188:	92 e0       	ldi	r25, 0x02	; 2
    118a:	39 c0       	rjmp	.+114    	; 0x11fe <usart_control+0x1f2>
    118c:	80 91 6c 03 	lds	r24, 0x036C	; 0x80036c <usart_tx>
    1190:	88 33       	cpi	r24, 0x38	; 56
    1192:	c9 f4       	brne	.+50     	; 0x11c6 <usart_control+0x1ba>
    1194:	80 e0       	ldi	r24, 0x00	; 0
    1196:	0e 94 d0 15 	call	0x2ba0	; 0x2ba0 <lcd_sleep>
    119a:	81 e0       	ldi	r24, 0x01	; 1
    119c:	80 93 62 00 	sts	0x0062, r24	; 0x800062 <led_display>
    11a0:	80 93 6d 03 	sts	0x036D, r24	; 0x80036d <led_blink>
    11a4:	80 93 6b 03 	sts	0x036B, r24	; 0x80036b <usart_logs_data>
    11a8:	67 e0       	ldi	r22, 0x07	; 7
    11aa:	80 e0       	ldi	r24, 0x00	; 0
    11ac:	0e 94 79 15 	call	0x2af2	; 0x2af2 <lcd_gotoxy>
    11b0:	89 ee       	ldi	r24, 0xE9	; 233
    11b2:	92 e0       	ldi	r25, 0x02	; 2
    11b4:	0e 94 dc 0d 	call	0x1bb8	; 0x1bb8 <uart_puts>
    11b8:	8b e1       	ldi	r24, 0x1B	; 27
    11ba:	91 e0       	ldi	r25, 0x01	; 1
    11bc:	0e 94 82 17 	call	0x2f04	; 0x2f04 <lcd_puts_p>
    11c0:	82 ed       	ldi	r24, 0xD2	; 210
    11c2:	91 e0       	ldi	r25, 0x01	; 1
    11c4:	1c c0       	rjmp	.+56     	; 0x11fe <usart_control+0x1f2>
    11c6:	80 91 6c 03 	lds	r24, 0x036C	; 0x80036c <usart_tx>
    11ca:	89 33       	cpi	r24, 0x39	; 57
    11cc:	d1 f4       	brne	.+52     	; 0x1202 <usart_control+0x1f6>
    11ce:	81 e0       	ldi	r24, 0x01	; 1
    11d0:	0e 94 d0 15 	call	0x2ba0	; 0x2ba0 <lcd_sleep>
    11d4:	10 92 62 00 	sts	0x0062, r1	; 0x800062 <led_display>
    11d8:	10 92 6d 03 	sts	0x036D, r1	; 0x80036d <led_blink>
    11dc:	ae 9a       	sbi	0x15, 6	; 21
    11de:	10 92 6b 03 	sts	0x036B, r1	; 0x80036b <usart_logs_data>
    11e2:	67 e0       	ldi	r22, 0x07	; 7
    11e4:	80 e0       	ldi	r24, 0x00	; 0
    11e6:	0e 94 79 15 	call	0x2af2	; 0x2af2 <lcd_gotoxy>
    11ea:	8b ef       	ldi	r24, 0xFB	; 251
    11ec:	92 e0       	ldi	r25, 0x02	; 2
    11ee:	0e 94 dc 0d 	call	0x1bb8	; 0x1bb8 <uart_puts>
    11f2:	8b e0       	ldi	r24, 0x0B	; 11
    11f4:	91 e0       	ldi	r25, 0x01	; 1
    11f6:	0e 94 82 17 	call	0x2f04	; 0x2f04 <lcd_puts_p>
    11fa:	81 e1       	ldi	r24, 0x11	; 17
    11fc:	92 e0       	ldi	r25, 0x02	; 2
    11fe:	0c 94 dc 0d 	jmp	0x1bb8	; 0x1bb8 <uart_puts>
    1202:	08 95       	ret

00001204 <ir_control>:
    1204:	80 91 bf 07 	lds	r24, 0x07BF	; 0x8007bf <Ir_key_press_flag>
    1208:	81 11       	cpse	r24, r1
    120a:	08 c0       	rjmp	.+16     	; 0x121c <ir_control+0x18>
    120c:	67 e0       	ldi	r22, 0x07	; 7
    120e:	80 e1       	ldi	r24, 0x10	; 16
    1210:	0e 94 79 15 	call	0x2af2	; 0x2af2 <lcd_gotoxy>
    1214:	85 e0       	ldi	r24, 0x05	; 5
    1216:	91 e0       	ldi	r25, 0x01	; 1
    1218:	0e 94 82 17 	call	0x2f04	; 0x2f04 <lcd_puts_p>
    121c:	80 91 bf 07 	lds	r24, 0x07BF	; 0x8007bf <Ir_key_press_flag>
    1220:	88 23       	and	r24, r24
    1222:	09 f4       	brne	.+2      	; 0x1226 <ir_control+0x22>
    1224:	df c0       	rjmp	.+446    	; 0x13e4 <ir_control+0x1e0>
    1226:	80 91 bc 07 	lds	r24, 0x07BC	; 0x8007bc <address>
    122a:	81 11       	cpse	r24, r1
    122c:	1d c0       	rjmp	.+58     	; 0x1268 <ir_control+0x64>
    122e:	80 91 bd 07 	lds	r24, 0x07BD	; 0x8007bd <command>
    1232:	80 91 bd 07 	lds	r24, 0x07BD	; 0x8007bd <command>
    1236:	8a 30       	cpi	r24, 0x0A	; 10
    1238:	b8 f4       	brcc	.+46     	; 0x1268 <ir_control+0x64>
    123a:	67 e0       	ldi	r22, 0x07	; 7
    123c:	80 e1       	ldi	r24, 0x10	; 16
    123e:	0e 94 79 15 	call	0x2af2	; 0x2af2 <lcd_gotoxy>
    1242:	8f ef       	ldi	r24, 0xFF	; 255
    1244:	90 e0       	ldi	r25, 0x00	; 0
    1246:	0e 94 82 17 	call	0x2f04	; 0x2f04 <lcd_puts_p>
    124a:	8d e0       	ldi	r24, 0x0D	; 13
    124c:	93 e0       	ldi	r25, 0x03	; 3
    124e:	0e 94 dc 0d 	call	0x1bb8	; 0x1bb8 <uart_puts>
    1252:	80 91 bd 07 	lds	r24, 0x07BD	; 0x8007bd <command>
    1256:	6a e0       	ldi	r22, 0x0A	; 10
    1258:	70 e0       	ldi	r23, 0x00	; 0
    125a:	90 e0       	ldi	r25, 0x00	; 0
    125c:	0e 94 e8 0d 	call	0x1bd0	; 0x1bd0 <uart_putint>
    1260:	86 e6       	ldi	r24, 0x66	; 102
    1262:	92 e0       	ldi	r25, 0x02	; 2
    1264:	0e 94 dc 0d 	call	0x1bb8	; 0x1bb8 <uart_puts>
    1268:	80 91 bc 07 	lds	r24, 0x07BC	; 0x8007bc <address>
    126c:	81 11       	cpse	r24, r1
    126e:	09 c0       	rjmp	.+18     	; 0x1282 <ir_control+0x7e>
    1270:	80 91 bd 07 	lds	r24, 0x07BD	; 0x8007bd <command>
    1274:	81 11       	cpse	r24, r1
    1276:	05 c0       	rjmp	.+10     	; 0x1282 <ir_control+0x7e>
    1278:	0e 94 d0 15 	call	0x2ba0	; 0x2ba0 <lcd_sleep>
    127c:	8b e1       	ldi	r24, 0x1B	; 27
    127e:	91 e0       	ldi	r25, 0x01	; 1
    1280:	a8 c0       	rjmp	.+336    	; 0x13d2 <ir_control+0x1ce>
    1282:	80 91 bc 07 	lds	r24, 0x07BC	; 0x8007bc <address>
    1286:	81 11       	cpse	r24, r1
    1288:	09 c0       	rjmp	.+18     	; 0x129c <ir_control+0x98>
    128a:	80 91 bd 07 	lds	r24, 0x07BD	; 0x8007bd <command>
    128e:	81 30       	cpi	r24, 0x01	; 1
    1290:	29 f4       	brne	.+10     	; 0x129c <ir_control+0x98>
    1292:	0e 94 d0 15 	call	0x2ba0	; 0x2ba0 <lcd_sleep>
    1296:	83 e3       	ldi	r24, 0x33	; 51
    1298:	91 e0       	ldi	r25, 0x01	; 1
    129a:	9b c0       	rjmp	.+310    	; 0x13d2 <ir_control+0x1ce>
    129c:	80 91 bc 07 	lds	r24, 0x07BC	; 0x8007bc <address>
    12a0:	81 11       	cpse	r24, r1
    12a2:	0a c0       	rjmp	.+20     	; 0x12b8 <ir_control+0xb4>
    12a4:	80 91 bd 07 	lds	r24, 0x07BD	; 0x8007bd <command>
    12a8:	82 30       	cpi	r24, 0x02	; 2
    12aa:	31 f4       	brne	.+12     	; 0x12b8 <ir_control+0xb4>
    12ac:	81 e0       	ldi	r24, 0x01	; 1
    12ae:	80 93 62 00 	sts	0x0062, r24	; 0x800062 <led_display>
    12b2:	8c e4       	ldi	r24, 0x4C	; 76
    12b4:	91 e0       	ldi	r25, 0x01	; 1
    12b6:	8d c0       	rjmp	.+282    	; 0x13d2 <ir_control+0x1ce>
    12b8:	80 91 bc 07 	lds	r24, 0x07BC	; 0x8007bc <address>
    12bc:	81 11       	cpse	r24, r1
    12be:	09 c0       	rjmp	.+18     	; 0x12d2 <ir_control+0xce>
    12c0:	80 91 bd 07 	lds	r24, 0x07BD	; 0x8007bd <command>
    12c4:	83 30       	cpi	r24, 0x03	; 3
    12c6:	29 f4       	brne	.+10     	; 0x12d2 <ir_control+0xce>
    12c8:	10 92 62 00 	sts	0x0062, r1	; 0x800062 <led_display>
    12cc:	83 e6       	ldi	r24, 0x63	; 99
    12ce:	91 e0       	ldi	r25, 0x01	; 1
    12d0:	80 c0       	rjmp	.+256    	; 0x13d2 <ir_control+0x1ce>
    12d2:	80 91 bc 07 	lds	r24, 0x07BC	; 0x8007bc <address>
    12d6:	81 11       	cpse	r24, r1
    12d8:	0a c0       	rjmp	.+20     	; 0x12ee <ir_control+0xea>
    12da:	80 91 bd 07 	lds	r24, 0x07BD	; 0x8007bd <command>
    12de:	84 30       	cpi	r24, 0x04	; 4
    12e0:	31 f4       	brne	.+12     	; 0x12ee <ir_control+0xea>
    12e2:	81 e0       	ldi	r24, 0x01	; 1
    12e4:	80 93 6d 03 	sts	0x036D, r24	; 0x80036d <led_blink>
    12e8:	8b e7       	ldi	r24, 0x7B	; 123
    12ea:	91 e0       	ldi	r25, 0x01	; 1
    12ec:	72 c0       	rjmp	.+228    	; 0x13d2 <ir_control+0x1ce>
    12ee:	80 91 bc 07 	lds	r24, 0x07BC	; 0x8007bc <address>
    12f2:	81 11       	cpse	r24, r1
    12f4:	0a c0       	rjmp	.+20     	; 0x130a <ir_control+0x106>
    12f6:	80 91 bd 07 	lds	r24, 0x07BD	; 0x8007bd <command>
    12fa:	85 30       	cpi	r24, 0x05	; 5
    12fc:	31 f4       	brne	.+12     	; 0x130a <ir_control+0x106>
    12fe:	10 92 6d 03 	sts	0x036D, r1	; 0x80036d <led_blink>
    1302:	ae 9a       	sbi	0x15, 6	; 21
    1304:	8e e8       	ldi	r24, 0x8E	; 142
    1306:	91 e0       	ldi	r25, 0x01	; 1
    1308:	64 c0       	rjmp	.+200    	; 0x13d2 <ir_control+0x1ce>
    130a:	80 91 bc 07 	lds	r24, 0x07BC	; 0x8007bc <address>
    130e:	81 11       	cpse	r24, r1
    1310:	12 c0       	rjmp	.+36     	; 0x1336 <ir_control+0x132>
    1312:	80 91 bd 07 	lds	r24, 0x07BD	; 0x8007bd <command>
    1316:	86 30       	cpi	r24, 0x06	; 6
    1318:	71 f4       	brne	.+28     	; 0x1336 <ir_control+0x132>
    131a:	81 e0       	ldi	r24, 0x01	; 1
    131c:	80 93 6b 03 	sts	0x036B, r24	; 0x80036b <usart_logs_data>
    1320:	67 e0       	ldi	r22, 0x07	; 7
    1322:	80 e0       	ldi	r24, 0x00	; 0
    1324:	0e 94 79 15 	call	0x2af2	; 0x2af2 <lcd_gotoxy>
    1328:	8f ee       	ldi	r24, 0xEF	; 239
    132a:	90 e0       	ldi	r25, 0x00	; 0
    132c:	0e 94 82 17 	call	0x2f04	; 0x2f04 <lcd_puts_p>
    1330:	8f ef       	ldi	r24, 0xFF	; 255
    1332:	91 e0       	ldi	r25, 0x01	; 1
    1334:	4e c0       	rjmp	.+156    	; 0x13d2 <ir_control+0x1ce>
    1336:	80 91 bc 07 	lds	r24, 0x07BC	; 0x8007bc <address>
    133a:	81 11       	cpse	r24, r1
    133c:	11 c0       	rjmp	.+34     	; 0x1360 <ir_control+0x15c>
    133e:	80 91 bd 07 	lds	r24, 0x07BD	; 0x8007bd <command>
    1342:	87 30       	cpi	r24, 0x07	; 7
    1344:	69 f4       	brne	.+26     	; 0x1360 <ir_control+0x15c>
    1346:	10 92 6b 03 	sts	0x036B, r1	; 0x80036b <usart_logs_data>
    134a:	67 e0       	ldi	r22, 0x07	; 7
    134c:	80 e0       	ldi	r24, 0x00	; 0
    134e:	0e 94 79 15 	call	0x2af2	; 0x2af2 <lcd_gotoxy>
    1352:	8f ed       	ldi	r24, 0xDF	; 223
    1354:	90 e0       	ldi	r25, 0x00	; 0
    1356:	0e 94 82 17 	call	0x2f04	; 0x2f04 <lcd_puts_p>
    135a:	87 e4       	ldi	r24, 0x47	; 71
    135c:	92 e0       	ldi	r25, 0x02	; 2
    135e:	39 c0       	rjmp	.+114    	; 0x13d2 <ir_control+0x1ce>
    1360:	80 91 bc 07 	lds	r24, 0x07BC	; 0x8007bc <address>
    1364:	81 11       	cpse	r24, r1
    1366:	19 c0       	rjmp	.+50     	; 0x139a <ir_control+0x196>
    1368:	80 91 bd 07 	lds	r24, 0x07BD	; 0x8007bd <command>
    136c:	88 30       	cpi	r24, 0x08	; 8
    136e:	a9 f4       	brne	.+42     	; 0x139a <ir_control+0x196>
    1370:	80 e0       	ldi	r24, 0x00	; 0
    1372:	0e 94 d0 15 	call	0x2ba0	; 0x2ba0 <lcd_sleep>
    1376:	81 e0       	ldi	r24, 0x01	; 1
    1378:	80 93 62 00 	sts	0x0062, r24	; 0x800062 <led_display>
    137c:	80 93 6d 03 	sts	0x036D, r24	; 0x80036d <led_blink>
    1380:	80 93 6b 03 	sts	0x036B, r24	; 0x80036b <usart_logs_data>
    1384:	67 e0       	ldi	r22, 0x07	; 7
    1386:	80 e0       	ldi	r24, 0x00	; 0
    1388:	0e 94 79 15 	call	0x2af2	; 0x2af2 <lcd_gotoxy>
    138c:	8f ec       	ldi	r24, 0xCF	; 207
    138e:	90 e0       	ldi	r25, 0x00	; 0
    1390:	0e 94 82 17 	call	0x2f04	; 0x2f04 <lcd_puts_p>
    1394:	82 ed       	ldi	r24, 0xD2	; 210
    1396:	91 e0       	ldi	r25, 0x01	; 1
    1398:	1c c0       	rjmp	.+56     	; 0x13d2 <ir_control+0x1ce>
    139a:	80 91 bc 07 	lds	r24, 0x07BC	; 0x8007bc <address>
    139e:	81 11       	cpse	r24, r1
    13a0:	1a c0       	rjmp	.+52     	; 0x13d6 <ir_control+0x1d2>
    13a2:	80 91 bd 07 	lds	r24, 0x07BD	; 0x8007bd <command>
    13a6:	89 30       	cpi	r24, 0x09	; 9
    13a8:	b1 f4       	brne	.+44     	; 0x13d6 <ir_control+0x1d2>
    13aa:	81 e0       	ldi	r24, 0x01	; 1
    13ac:	0e 94 d0 15 	call	0x2ba0	; 0x2ba0 <lcd_sleep>
    13b0:	10 92 62 00 	sts	0x0062, r1	; 0x800062 <led_display>
    13b4:	10 92 6d 03 	sts	0x036D, r1	; 0x80036d <led_blink>
    13b8:	ae 9a       	sbi	0x15, 6	; 21
    13ba:	10 92 6b 03 	sts	0x036B, r1	; 0x80036b <usart_logs_data>
    13be:	67 e0       	ldi	r22, 0x07	; 7
    13c0:	80 e0       	ldi	r24, 0x00	; 0
    13c2:	0e 94 79 15 	call	0x2af2	; 0x2af2 <lcd_gotoxy>
    13c6:	8f eb       	ldi	r24, 0xBF	; 191
    13c8:	90 e0       	ldi	r25, 0x00	; 0
    13ca:	0e 94 82 17 	call	0x2f04	; 0x2f04 <lcd_puts_p>
    13ce:	81 e1       	ldi	r24, 0x11	; 17
    13d0:	92 e0       	ldi	r25, 0x02	; 2
    13d2:	0e 94 dc 0d 	call	0x1bb8	; 0x1bb8 <uart_puts>
    13d6:	10 92 bf 07 	sts	0x07BF, r1	; 0x8007bf <Ir_key_press_flag>
    13da:	8f ef       	ldi	r24, 0xFF	; 255
    13dc:	80 93 bd 07 	sts	0x07BD, r24	; 0x8007bd <command>
    13e0:	80 93 bc 07 	sts	0x07BC, r24	; 0x8007bc <address>
    13e4:	08 95       	ret

000013e6 <usart_data_logging>:
    13e6:	80 91 6b 03 	lds	r24, 0x036B	; 0x80036b <usart_logs_data>
    13ea:	81 30       	cpi	r24, 0x01	; 1
    13ec:	09 f0       	breq	.+2      	; 0x13f0 <usart_data_logging+0xa>
    13ee:	f7 c0       	rjmp	.+494    	; 0x15de <usart_data_logging+0x1f8>
    13f0:	80 91 dc 07 	lds	r24, 0x07DC	; 0x8007dc <hh>
    13f4:	8a 30       	cpi	r24, 0x0A	; 10
    13f6:	20 f4       	brcc	.+8      	; 0x1400 <usart_data_logging+0x1a>
    13f8:	8d e1       	ldi	r24, 0x1D	; 29
    13fa:	93 e0       	ldi	r25, 0x03	; 3
    13fc:	0e 94 dc 0d 	call	0x1bb8	; 0x1bb8 <uart_puts>
    1400:	80 91 dc 07 	lds	r24, 0x07DC	; 0x8007dc <hh>
    1404:	6a e0       	ldi	r22, 0x0A	; 10
    1406:	70 e0       	ldi	r23, 0x00	; 0
    1408:	90 e0       	ldi	r25, 0x00	; 0
    140a:	0e 94 e8 0d 	call	0x1bd0	; 0x1bd0 <uart_putint>
    140e:	88 e1       	ldi	r24, 0x18	; 24
    1410:	93 e0       	ldi	r25, 0x03	; 3
    1412:	0e 94 dc 0d 	call	0x1bb8	; 0x1bb8 <uart_puts>
    1416:	80 91 d7 07 	lds	r24, 0x07D7	; 0x8007d7 <min>
    141a:	8a 30       	cpi	r24, 0x0A	; 10
    141c:	20 f4       	brcc	.+8      	; 0x1426 <usart_data_logging+0x40>
    141e:	8d e1       	ldi	r24, 0x1D	; 29
    1420:	93 e0       	ldi	r25, 0x03	; 3
    1422:	0e 94 dc 0d 	call	0x1bb8	; 0x1bb8 <uart_puts>
    1426:	80 91 d7 07 	lds	r24, 0x07D7	; 0x8007d7 <min>
    142a:	6a e0       	ldi	r22, 0x0A	; 10
    142c:	70 e0       	ldi	r23, 0x00	; 0
    142e:	90 e0       	ldi	r25, 0x00	; 0
    1430:	0e 94 e8 0d 	call	0x1bd0	; 0x1bd0 <uart_putint>
    1434:	88 e1       	ldi	r24, 0x18	; 24
    1436:	93 e0       	ldi	r25, 0x03	; 3
    1438:	0e 94 dc 0d 	call	0x1bb8	; 0x1bb8 <uart_puts>
    143c:	80 91 c7 07 	lds	r24, 0x07C7	; 0x8007c7 <ss>
    1440:	8a 30       	cpi	r24, 0x0A	; 10
    1442:	20 f4       	brcc	.+8      	; 0x144c <usart_data_logging+0x66>
    1444:	8d e1       	ldi	r24, 0x1D	; 29
    1446:	93 e0       	ldi	r25, 0x03	; 3
    1448:	0e 94 dc 0d 	call	0x1bb8	; 0x1bb8 <uart_puts>
    144c:	80 91 c7 07 	lds	r24, 0x07C7	; 0x8007c7 <ss>
    1450:	6a e0       	ldi	r22, 0x0A	; 10
    1452:	70 e0       	ldi	r23, 0x00	; 0
    1454:	90 e0       	ldi	r25, 0x00	; 0
    1456:	0e 94 e8 0d 	call	0x1bd0	; 0x1bd0 <uart_putint>
    145a:	81 e4       	ldi	r24, 0x41	; 65
    145c:	93 e0       	ldi	r25, 0x03	; 3
    145e:	0e 94 dc 0d 	call	0x1bb8	; 0x1bb8 <uart_puts>
    1462:	80 91 db 07 	lds	r24, 0x07DB	; 0x8007db <day>
    1466:	0e 94 e5 07 	call	0xfca	; 0xfca <usart_day_of_the_week>
    146a:	8a e1       	ldi	r24, 0x1A	; 26
    146c:	93 e0       	ldi	r25, 0x03	; 3
    146e:	0e 94 dc 0d 	call	0x1bb8	; 0x1bb8 <uart_puts>
    1472:	80 91 cc 07 	lds	r24, 0x07CC	; 0x8007cc <dd>
    1476:	6a e0       	ldi	r22, 0x0A	; 10
    1478:	70 e0       	ldi	r23, 0x00	; 0
    147a:	90 e0       	ldi	r25, 0x00	; 0
    147c:	0e 94 e8 0d 	call	0x1bd0	; 0x1bd0 <uart_putint>
    1480:	8a e1       	ldi	r24, 0x1A	; 26
    1482:	93 e0       	ldi	r25, 0x03	; 3
    1484:	0e 94 dc 0d 	call	0x1bb8	; 0x1bb8 <uart_puts>
    1488:	80 91 c1 07 	lds	r24, 0x07C1	; 0x8007c1 <mm>
    148c:	6a e0       	ldi	r22, 0x0A	; 10
    148e:	70 e0       	ldi	r23, 0x00	; 0
    1490:	90 e0       	ldi	r25, 0x00	; 0
    1492:	0e 94 e8 0d 	call	0x1bd0	; 0x1bd0 <uart_putint>
    1496:	8a e1       	ldi	r24, 0x1A	; 26
    1498:	93 e0       	ldi	r25, 0x03	; 3
    149a:	0e 94 dc 0d 	call	0x1bb8	; 0x1bb8 <uart_puts>
    149e:	80 91 d9 07 	lds	r24, 0x07D9	; 0x8007d9 <yy>
    14a2:	88 23       	and	r24, r24
    14a4:	21 f0       	breq	.+8      	; 0x14ae <usart_data_logging+0xc8>
    14a6:	8c e1       	ldi	r24, 0x1C	; 28
    14a8:	93 e0       	ldi	r25, 0x03	; 3
    14aa:	0e 94 dc 0d 	call	0x1bb8	; 0x1bb8 <uart_puts>
    14ae:	80 91 d9 07 	lds	r24, 0x07D9	; 0x8007d9 <yy>
    14b2:	6a e0       	ldi	r22, 0x0A	; 10
    14b4:	70 e0       	ldi	r23, 0x00	; 0
    14b6:	90 e0       	ldi	r25, 0x00	; 0
    14b8:	0e 94 e8 0d 	call	0x1bd0	; 0x1bd0 <uart_putint>
    14bc:	8f e1       	ldi	r24, 0x1F	; 31
    14be:	93 e0       	ldi	r25, 0x03	; 3
    14c0:	0e 94 dc 0d 	call	0x1bb8	; 0x1bb8 <uart_puts>
    14c4:	80 91 d6 07 	lds	r24, 0x07D6	; 0x8007d6 <subzero>
    14c8:	88 23       	and	r24, r24
    14ca:	21 f0       	breq	.+8      	; 0x14d4 <usart_data_logging+0xee>
    14cc:	8c e2       	ldi	r24, 0x2C	; 44
    14ce:	93 e0       	ldi	r25, 0x03	; 3
    14d0:	0e 94 dc 0d 	call	0x1bb8	; 0x1bb8 <uart_puts>
    14d4:	80 91 da 07 	lds	r24, 0x07DA	; 0x8007da <cel>
    14d8:	6a e0       	ldi	r22, 0x0A	; 10
    14da:	70 e0       	ldi	r23, 0x00	; 0
    14dc:	90 e0       	ldi	r25, 0x00	; 0
    14de:	0e 94 e8 0d 	call	0x1bd0	; 0x1bd0 <uart_putint>
    14e2:	8e e2       	ldi	r24, 0x2E	; 46
    14e4:	93 e0       	ldi	r25, 0x03	; 3
    14e6:	0e 94 dc 0d 	call	0x1bb8	; 0x1bb8 <uart_puts>
    14ea:	80 91 d4 07 	lds	r24, 0x07D4	; 0x8007d4 <cel_fract_bits>
    14ee:	6a e0       	ldi	r22, 0x0A	; 10
    14f0:	70 e0       	ldi	r23, 0x00	; 0
    14f2:	90 e0       	ldi	r25, 0x00	; 0
    14f4:	0e 94 e8 0d 	call	0x1bd0	; 0x1bd0 <uart_putint>
    14f8:	80 e3       	ldi	r24, 0x30	; 48
    14fa:	93 e0       	ldi	r25, 0x03	; 3
    14fc:	0e 94 dc 0d 	call	0x1bb8	; 0x1bb8 <uart_puts>
    1500:	83 e3       	ldi	r24, 0x33	; 51
    1502:	93 e0       	ldi	r25, 0x03	; 3
    1504:	0e 94 dc 0d 	call	0x1bb8	; 0x1bb8 <uart_puts>
    1508:	80 91 5f 03 	lds	r24, 0x035F	; 0x80035f <t_fract_flag>
    150c:	88 23       	and	r24, r24
    150e:	21 f0       	breq	.+8      	; 0x1518 <usart_data_logging+0x132>
    1510:	8c e2       	ldi	r24, 0x2C	; 44
    1512:	93 e0       	ldi	r25, 0x03	; 3
    1514:	0e 94 dc 0d 	call	0x1bb8	; 0x1bb8 <uart_puts>
    1518:	80 91 c5 07 	lds	r24, 0x07C5	; 0x8007c5 <t_int>
    151c:	6a e0       	ldi	r22, 0x0A	; 10
    151e:	70 e0       	ldi	r23, 0x00	; 0
    1520:	08 2e       	mov	r0, r24
    1522:	00 0c       	add	r0, r0
    1524:	99 0b       	sbc	r25, r25
    1526:	0e 94 e8 0d 	call	0x1bd0	; 0x1bd0 <uart_putint>
    152a:	8e e2       	ldi	r24, 0x2E	; 46
    152c:	93 e0       	ldi	r25, 0x03	; 3
    152e:	0e 94 dc 0d 	call	0x1bb8	; 0x1bb8 <uart_puts>
    1532:	80 91 c8 07 	lds	r24, 0x07C8	; 0x8007c8 <t_fract>
    1536:	8a 30       	cpi	r24, 0x0A	; 10
    1538:	24 f4       	brge	.+8      	; 0x1542 <usart_data_logging+0x15c>
    153a:	8d e1       	ldi	r24, 0x1D	; 29
    153c:	93 e0       	ldi	r25, 0x03	; 3
    153e:	0e 94 dc 0d 	call	0x1bb8	; 0x1bb8 <uart_puts>
    1542:	80 91 c8 07 	lds	r24, 0x07C8	; 0x8007c8 <t_fract>
    1546:	6a e0       	ldi	r22, 0x0A	; 10
    1548:	70 e0       	ldi	r23, 0x00	; 0
    154a:	08 2e       	mov	r0, r24
    154c:	00 0c       	add	r0, r0
    154e:	99 0b       	sbc	r25, r25
    1550:	0e 94 e8 0d 	call	0x1bd0	; 0x1bd0 <uart_putint>
    1554:	8f e3       	ldi	r24, 0x3F	; 63
    1556:	93 e0       	ldi	r25, 0x03	; 3
    1558:	0e 94 dc 0d 	call	0x1bb8	; 0x1bb8 <uart_puts>
    155c:	6a e0       	ldi	r22, 0x0A	; 10
    155e:	70 e0       	ldi	r23, 0x00	; 0
    1560:	80 91 c9 07 	lds	r24, 0x07C9	; 0x8007c9 <hp_int>
    1564:	90 91 ca 07 	lds	r25, 0x07CA	; 0x8007ca <hp_int+0x1>
    1568:	0e 94 e8 0d 	call	0x1bd0	; 0x1bd0 <uart_putint>
    156c:	8e e2       	ldi	r24, 0x2E	; 46
    156e:	93 e0       	ldi	r25, 0x03	; 3
    1570:	0e 94 dc 0d 	call	0x1bb8	; 0x1bb8 <uart_puts>
    1574:	80 91 c0 07 	lds	r24, 0x07C0	; 0x8007c0 <hp_fract>
    1578:	8a 30       	cpi	r24, 0x0A	; 10
    157a:	20 f4       	brcc	.+8      	; 0x1584 <usart_data_logging+0x19e>
    157c:	8d e1       	ldi	r24, 0x1D	; 29
    157e:	93 e0       	ldi	r25, 0x03	; 3
    1580:	0e 94 dc 0d 	call	0x1bb8	; 0x1bb8 <uart_puts>
    1584:	80 91 c0 07 	lds	r24, 0x07C0	; 0x8007c0 <hp_fract>
    1588:	6a e0       	ldi	r22, 0x0A	; 10
    158a:	70 e0       	ldi	r23, 0x00	; 0
    158c:	90 e0       	ldi	r25, 0x00	; 0
    158e:	0e 94 e8 0d 	call	0x1bd0	; 0x1bd0 <uart_putint>
    1592:	85 e4       	ldi	r24, 0x45	; 69
    1594:	93 e0       	ldi	r25, 0x03	; 3
    1596:	0e 94 dc 0d 	call	0x1bb8	; 0x1bb8 <uart_puts>
    159a:	80 91 c3 07 	lds	r24, 0x07C3	; 0x8007c3 <hm_int>
    159e:	6a e0       	ldi	r22, 0x0A	; 10
    15a0:	70 e0       	ldi	r23, 0x00	; 0
    15a2:	90 e0       	ldi	r25, 0x00	; 0
    15a4:	0e 94 e8 0d 	call	0x1bd0	; 0x1bd0 <uart_putint>
    15a8:	8e e2       	ldi	r24, 0x2E	; 46
    15aa:	93 e0       	ldi	r25, 0x03	; 3
    15ac:	0e 94 dc 0d 	call	0x1bb8	; 0x1bb8 <uart_puts>
    15b0:	80 91 c3 07 	lds	r24, 0x07C3	; 0x8007c3 <hm_int>
    15b4:	84 36       	cpi	r24, 0x64	; 100
    15b6:	40 f4       	brcc	.+16     	; 0x15c8 <usart_data_logging+0x1e2>
    15b8:	80 91 c4 07 	lds	r24, 0x07C4	; 0x8007c4 <hm_fract>
    15bc:	8a 30       	cpi	r24, 0x0A	; 10
    15be:	20 f4       	brcc	.+8      	; 0x15c8 <usart_data_logging+0x1e2>
    15c0:	8d e1       	ldi	r24, 0x1D	; 29
    15c2:	93 e0       	ldi	r25, 0x03	; 3
    15c4:	0e 94 dc 0d 	call	0x1bb8	; 0x1bb8 <uart_puts>
    15c8:	80 91 c4 07 	lds	r24, 0x07C4	; 0x8007c4 <hm_fract>
    15cc:	6a e0       	ldi	r22, 0x0A	; 10
    15ce:	70 e0       	ldi	r23, 0x00	; 0
    15d0:	90 e0       	ldi	r25, 0x00	; 0
    15d2:	0e 94 e8 0d 	call	0x1bd0	; 0x1bd0 <uart_putint>
    15d6:	8c e4       	ldi	r24, 0x4C	; 76
    15d8:	93 e0       	ldi	r25, 0x03	; 3
    15da:	0c 94 dc 0d 	jmp	0x1bb8	; 0x1bb8 <uart_puts>
    15de:	08 95       	ret

000015e0 <bcd2dec>:
    15e0:	98 2f       	mov	r25, r24
    15e2:	92 95       	swap	r25
    15e4:	9f 70       	andi	r25, 0x0F	; 15
    15e6:	8f 70       	andi	r24, 0x0F	; 15
    15e8:	2a e0       	ldi	r18, 0x0A	; 10
    15ea:	92 9f       	mul	r25, r18
    15ec:	80 0d       	add	r24, r0
    15ee:	11 24       	eor	r1, r1
    15f0:	08 95       	ret

000015f2 <main>:
    15f2:	8a b3       	in	r24, 0x1a	; 26
    15f4:	8f 70       	andi	r24, 0x0F	; 15
    15f6:	8a bb       	out	0x1a, r24	; 26
    15f8:	a7 98       	cbi	0x14, 7	; 20
    15fa:	8b b3       	in	r24, 0x1b	; 27
    15fc:	80 6f       	ori	r24, 0xF0	; 240
    15fe:	8b bb       	out	0x1b, r24	; 27
    1600:	af 9a       	sbi	0x15, 7	; 21
    1602:	a6 9a       	sbi	0x14, 6	; 20
    1604:	ae 9a       	sbi	0x15, 6	; 21
    1606:	85 b7       	in	r24, 0x35	; 53
    1608:	82 60       	ori	r24, 0x02	; 2
    160a:	85 bf       	out	0x35, r24	; 53
    160c:	8b b7       	in	r24, 0x3b	; 59
    160e:	80 64       	ori	r24, 0x40	; 64
    1610:	8b bf       	out	0x3b, r24	; 59
    1612:	92 9a       	sbi	0x12, 2	; 18
    1614:	85 b5       	in	r24, 0x25	; 37
    1616:	88 60       	ori	r24, 0x08	; 8
    1618:	85 bd       	out	0x25, r24	; 37
    161a:	85 b5       	in	r24, 0x25	; 37
    161c:	87 60       	ori	r24, 0x07	; 7
    161e:	85 bd       	out	0x25, r24	; 37
    1620:	8c e6       	ldi	r24, 0x6C	; 108
    1622:	83 bd       	out	0x23, r24	; 35
    1624:	80 e8       	ldi	r24, 0x80	; 128
    1626:	89 bf       	out	0x39, r24	; 57
    1628:	0e 94 1f 03 	call	0x63e	; 0x63e <search_sensors>
    162c:	80 93 d5 07 	sts	0x07D5, r24	; 0x8007d5 <sensors_cnt>
    1630:	84 e6       	ldi	r24, 0x64	; 100
    1632:	90 e0       	ldi	r25, 0x00	; 0
    1634:	0e 94 fc 04 	call	0x9f8	; 0x9f8 <i2cSetBitrate>
    1638:	0e 94 ab 14 	call	0x2956	; 0x2956 <mk_press_hum_init>
    163c:	8f ea       	ldi	r24, 0xAF	; 175
    163e:	0e 94 a4 15 	call	0x2b48	; 0x2b48 <lcd_oled_init>
    1642:	84 e6       	ldi	r24, 0x64	; 100
    1644:	0e 94 e4 15 	call	0x2bc8	; 0x2bc8 <lcd_set_contrast>
    1648:	81 e0       	ldi	r24, 0x01	; 1
    164a:	0e 94 73 17 	call	0x2ee6	; 0x2ee6 <lcd_charMode>
    164e:	0e 94 9f 04 	call	0x93e	; 0x93e <d_led_init>
    1652:	0e 94 81 05 	call	0xb02	; 0xb02 <ir_init>
    1656:	83 e2       	ldi	r24, 0x23	; 35
    1658:	90 e0       	ldi	r25, 0x00	; 0
    165a:	0e 94 c1 0d 	call	0x1b82	; 0x1b82 <USART_Init>
    165e:	78 94       	sei
    1660:	80 91 62 03 	lds	r24, 0x0362	; 0x800362 <RTC_modify>
    1664:	81 30       	cpi	r24, 0x01	; 1
    1666:	d1 f4       	brne	.+52     	; 0x169c <main+0xaa>
    1668:	99 e1       	ldi	r25, 0x19	; 25
    166a:	90 93 cf 07 	sts	0x07CF, r25	; 0x8007cf <buffer+0x2>
    166e:	96 e4       	ldi	r25, 0x46	; 70
    1670:	90 93 ce 07 	sts	0x07CE, r25	; 0x8007ce <buffer+0x1>
    1674:	95 e3       	ldi	r25, 0x35	; 53
    1676:	90 93 cd 07 	sts	0x07CD, r25	; 0x8007cd <buffer>
    167a:	97 e0       	ldi	r25, 0x07	; 7
    167c:	90 93 d0 07 	sts	0x07D0, r25	; 0x8007d0 <buffer+0x3>
    1680:	90 93 d1 07 	sts	0x07D1, r25	; 0x8007d1 <buffer+0x4>
    1684:	80 93 d2 07 	sts	0x07D2, r24	; 0x8007d2 <buffer+0x5>
    1688:	84 e2       	ldi	r24, 0x24	; 36
    168a:	80 93 d3 07 	sts	0x07D3, r24	; 0x8007d3 <buffer+0x6>
    168e:	2d ec       	ldi	r18, 0xCD	; 205
    1690:	37 e0       	ldi	r19, 0x07	; 7
    1692:	47 e0       	ldi	r20, 0x07	; 7
    1694:	60 e0       	ldi	r22, 0x00	; 0
    1696:	80 ed       	ldi	r24, 0xD0	; 208
    1698:	0e 94 2e 05 	call	0xa5c	; 0xa5c <TWI_write_buf>
    169c:	a9 e1       	ldi	r26, 0x19	; 25
    169e:	aa 2e       	mov	r10, r26
    16a0:	b1 2c       	mov	r11, r1
    16a2:	da e0       	ldi	r29, 0x0A	; 10
    16a4:	85 e8       	ldi	r24, 0x85	; 133
    16a6:	c8 2e       	mov	r12, r24
    16a8:	86 e0       	ldi	r24, 0x06	; 6
    16aa:	d8 2e       	mov	r13, r24
    16ac:	9e e7       	ldi	r25, 0x7E	; 126
    16ae:	e9 2e       	mov	r14, r25
    16b0:	96 e0       	ldi	r25, 0x06	; 6
    16b2:	f9 2e       	mov	r15, r25
    16b4:	0f e0       	ldi	r16, 0x0F	; 15
    16b6:	10 e0       	ldi	r17, 0x00	; 0
    16b8:	22 e0       	ldi	r18, 0x02	; 2
    16ba:	30 e0       	ldi	r19, 0x00	; 0
    16bc:	40 e1       	ldi	r20, 0x10	; 16
    16be:	69 e3       	ldi	r22, 0x39	; 57
    16c0:	70 e0       	ldi	r23, 0x00	; 0
    16c2:	8b ec       	ldi	r24, 0xCB	; 203
    16c4:	97 e0       	ldi	r25, 0x07	; 7
    16c6:	0e 94 01 07 	call	0xe02	; 0xe02 <SuperDebounce>
    16ca:	2d e4       	ldi	r18, 0x4D	; 77
    16cc:	c2 2e       	mov	r12, r18
    16ce:	26 e0       	ldi	r18, 0x06	; 6
    16d0:	d2 2e       	mov	r13, r18
    16d2:	36 e4       	ldi	r19, 0x46	; 70
    16d4:	e3 2e       	mov	r14, r19
    16d6:	36 e0       	ldi	r19, 0x06	; 6
    16d8:	f3 2e       	mov	r15, r19
    16da:	22 e0       	ldi	r18, 0x02	; 2
    16dc:	30 e0       	ldi	r19, 0x00	; 0
    16de:	40 e2       	ldi	r20, 0x20	; 32
    16e0:	69 e3       	ldi	r22, 0x39	; 57
    16e2:	70 e0       	ldi	r23, 0x00	; 0
    16e4:	8d ed       	ldi	r24, 0xDD	; 221
    16e6:	97 e0       	ldi	r25, 0x07	; 7
    16e8:	0e 94 01 07 	call	0xe02	; 0xe02 <SuperDebounce>
    16ec:	4a e5       	ldi	r20, 0x5A	; 90
    16ee:	c4 2e       	mov	r12, r20
    16f0:	46 e0       	ldi	r20, 0x06	; 6
    16f2:	d4 2e       	mov	r13, r20
    16f4:	53 e5       	ldi	r21, 0x53	; 83
    16f6:	e5 2e       	mov	r14, r21
    16f8:	56 e0       	ldi	r21, 0x06	; 6
    16fa:	f5 2e       	mov	r15, r21
    16fc:	22 e0       	ldi	r18, 0x02	; 2
    16fe:	30 e0       	ldi	r19, 0x00	; 0
    1700:	40 e4       	ldi	r20, 0x40	; 64
    1702:	69 e3       	ldi	r22, 0x39	; 57
    1704:	70 e0       	ldi	r23, 0x00	; 0
    1706:	88 ed       	ldi	r24, 0xD8	; 216
    1708:	97 e0       	ldi	r25, 0x07	; 7
    170a:	0e 94 01 07 	call	0xe02	; 0xe02 <SuperDebounce>
    170e:	60 e7       	ldi	r22, 0x70	; 112
    1710:	c6 2e       	mov	r12, r22
    1712:	66 e0       	ldi	r22, 0x06	; 6
    1714:	d6 2e       	mov	r13, r22
    1716:	71 e6       	ldi	r23, 0x61	; 97
    1718:	e7 2e       	mov	r14, r23
    171a:	76 e0       	ldi	r23, 0x06	; 6
    171c:	f7 2e       	mov	r15, r23
    171e:	22 e0       	ldi	r18, 0x02	; 2
    1720:	30 e0       	ldi	r19, 0x00	; 0
    1722:	40 e8       	ldi	r20, 0x80	; 128
    1724:	69 e3       	ldi	r22, 0x39	; 57
    1726:	70 e0       	ldi	r23, 0x00	; 0
    1728:	82 ec       	ldi	r24, 0xC2	; 194
    172a:	97 e0       	ldi	r25, 0x07	; 7
    172c:	0e 94 01 07 	call	0xe02	; 0xe02 <SuperDebounce>
    1730:	e2 ea       	ldi	r30, 0xA2	; 162
    1732:	ce 2e       	mov	r12, r30
    1734:	e6 e0       	ldi	r30, 0x06	; 6
    1736:	de 2e       	mov	r13, r30
    1738:	fc e8       	ldi	r31, 0x8C	; 140
    173a:	ef 2e       	mov	r14, r31
    173c:	f6 e0       	ldi	r31, 0x06	; 6
    173e:	ff 2e       	mov	r15, r31
    1740:	22 e0       	ldi	r18, 0x02	; 2
    1742:	30 e0       	ldi	r19, 0x00	; 0
    1744:	40 e8       	ldi	r20, 0x80	; 128
    1746:	63 e3       	ldi	r22, 0x33	; 51
    1748:	70 e0       	ldi	r23, 0x00	; 0
    174a:	86 ec       	ldi	r24, 0xC6	; 198
    174c:	97 e0       	ldi	r25, 0x07	; 7
    174e:	0e 94 01 07 	call	0xe02	; 0xe02 <SuperDebounce>
    1752:	0e 94 06 08 	call	0x100c	; 0x100c <usart_control>
    1756:	0e 94 02 09 	call	0x1204	; 0x1204 <ir_control>
    175a:	80 91 67 03 	lds	r24, 0x0367	; 0x800367 <Timer2>
    175e:	90 91 68 03 	lds	r25, 0x0368	; 0x800368 <Timer2+0x1>
    1762:	89 2b       	or	r24, r25
    1764:	61 f4       	brne	.+24     	; 0x177e <main+0x18c>
    1766:	b0 92 68 03 	sts	0x0368, r11	; 0x800368 <Timer2+0x1>
    176a:	a0 92 67 03 	sts	0x0367, r10	; 0x800367 <Timer2>
    176e:	80 91 6d 03 	lds	r24, 0x036D	; 0x80036d <led_blink>
    1772:	88 23       	and	r24, r24
    1774:	21 f0       	breq	.+8      	; 0x177e <main+0x18c>
    1776:	95 b3       	in	r25, 0x15	; 21
    1778:	80 e4       	ldi	r24, 0x40	; 64
    177a:	89 27       	eor	r24, r25
    177c:	85 bb       	out	0x15, r24	; 21
    177e:	80 91 60 00 	lds	r24, 0x0060	; 0x800060 <__DATA_REGION_ORIGIN__>
    1782:	88 23       	and	r24, r24
    1784:	09 f4       	brne	.+2      	; 0x1788 <main+0x196>
    1786:	8e cf       	rjmp	.-228    	; 0x16a4 <main+0xb2>
    1788:	2d ec       	ldi	r18, 0xCD	; 205
    178a:	37 e0       	ldi	r19, 0x07	; 7
    178c:	47 e0       	ldi	r20, 0x07	; 7
    178e:	60 e0       	ldi	r22, 0x00	; 0
    1790:	80 ed       	ldi	r24, 0xD0	; 208
    1792:	0e 94 52 05 	call	0xaa4	; 0xaa4 <TWI_read_buf>
    1796:	c0 91 cf 07 	lds	r28, 0x07CF	; 0x8007cf <buffer+0x2>
    179a:	8c 2f       	mov	r24, r28
    179c:	0e 94 f0 0a 	call	0x15e0	; 0x15e0 <bcd2dec>
    17a0:	80 93 dc 07 	sts	0x07DC, r24	; 0x8007dc <hh>
    17a4:	10 91 ce 07 	lds	r17, 0x07CE	; 0x8007ce <buffer+0x1>
    17a8:	81 2f       	mov	r24, r17
    17aa:	0e 94 f0 0a 	call	0x15e0	; 0x15e0 <bcd2dec>
    17ae:	80 93 d7 07 	sts	0x07D7, r24	; 0x8007d7 <min>
    17b2:	80 91 cd 07 	lds	r24, 0x07CD	; 0x8007cd <buffer>
    17b6:	0e 94 f0 0a 	call	0x15e0	; 0x15e0 <bcd2dec>
    17ba:	08 2f       	mov	r16, r24
    17bc:	80 93 c7 07 	sts	0x07C7, r24	; 0x8007c7 <ss>
    17c0:	80 91 d0 07 	lds	r24, 0x07D0	; 0x8007d0 <buffer+0x3>
    17c4:	0e 94 f0 0a 	call	0x15e0	; 0x15e0 <bcd2dec>
    17c8:	80 93 db 07 	sts	0x07DB, r24	; 0x8007db <day>
    17cc:	80 91 d1 07 	lds	r24, 0x07D1	; 0x8007d1 <buffer+0x4>
    17d0:	0e 94 f0 0a 	call	0x15e0	; 0x15e0 <bcd2dec>
    17d4:	80 93 cc 07 	sts	0x07CC, r24	; 0x8007cc <dd>
    17d8:	80 91 d2 07 	lds	r24, 0x07D2	; 0x8007d2 <buffer+0x5>
    17dc:	0e 94 f0 0a 	call	0x15e0	; 0x15e0 <bcd2dec>
    17e0:	80 93 c1 07 	sts	0x07C1, r24	; 0x8007c1 <mm>
    17e4:	80 91 d3 07 	lds	r24, 0x07D3	; 0x8007d3 <buffer+0x6>
    17e8:	0e 94 f0 0a 	call	0x15e0	; 0x15e0 <bcd2dec>
    17ec:	80 93 d9 07 	sts	0x07D9, r24	; 0x8007d9 <yy>
    17f0:	80 91 62 00 	lds	r24, 0x0062	; 0x800062 <led_display>
    17f4:	81 30       	cpi	r24, 0x01	; 1
    17f6:	29 f5       	brne	.+74     	; 0x1842 <main+0x250>
    17f8:	80 91 61 03 	lds	r24, 0x0361	; 0x800361 <ss_memory>
    17fc:	08 17       	cp	r16, r24
    17fe:	69 f0       	breq	.+26     	; 0x181a <main+0x228>
    1800:	8c 2f       	mov	r24, r28
    1802:	82 95       	swap	r24
    1804:	8f 70       	andi	r24, 0x0F	; 15
    1806:	80 93 b8 07 	sts	0x07B8, r24	; 0x8007b8 <cy1>
    180a:	cf 70       	andi	r28, 0x0F	; 15
    180c:	c0 93 b9 07 	sts	0x07B9, r28	; 0x8007b9 <cy2>
    1810:	d0 93 b7 07 	sts	0x07B7, r29	; 0x8007b7 <cy4>
    1814:	d0 93 ba 07 	sts	0x07BA, r29	; 0x8007ba <cy3>
    1818:	14 c0       	rjmp	.+40     	; 0x1842 <main+0x250>
    181a:	80 91 61 03 	lds	r24, 0x0361	; 0x800361 <ss_memory>
    181e:	08 13       	cpse	r16, r24
    1820:	10 c0       	rjmp	.+32     	; 0x1842 <main+0x250>
    1822:	8c 2f       	mov	r24, r28
    1824:	82 95       	swap	r24
    1826:	8f 70       	andi	r24, 0x0F	; 15
    1828:	80 93 b8 07 	sts	0x07B8, r24	; 0x8007b8 <cy1>
    182c:	cf 70       	andi	r28, 0x0F	; 15
    182e:	c0 93 b9 07 	sts	0x07B9, r28	; 0x8007b9 <cy2>
    1832:	81 2f       	mov	r24, r17
    1834:	82 95       	swap	r24
    1836:	8f 70       	andi	r24, 0x0F	; 15
    1838:	80 93 ba 07 	sts	0x07BA, r24	; 0x8007ba <cy3>
    183c:	1f 70       	andi	r17, 0x0F	; 15
    183e:	10 93 b7 07 	sts	0x07B7, r17	; 0x8007b7 <cy4>
    1842:	80 91 62 00 	lds	r24, 0x0062	; 0x800062 <led_display>
    1846:	81 11       	cpse	r24, r1
    1848:	08 c0       	rjmp	.+16     	; 0x185a <main+0x268>
    184a:	d0 93 b7 07 	sts	0x07B7, r29	; 0x8007b7 <cy4>
    184e:	d0 93 ba 07 	sts	0x07BA, r29	; 0x8007ba <cy3>
    1852:	d0 93 b9 07 	sts	0x07B9, r29	; 0x8007b9 <cy2>
    1856:	d0 93 b8 07 	sts	0x07B8, r29	; 0x8007b8 <cy1>
    185a:	60 e0       	ldi	r22, 0x00	; 0
    185c:	80 e0       	ldi	r24, 0x00	; 0
    185e:	0e 94 79 15 	call	0x2af2	; 0x2af2 <lcd_gotoxy>
    1862:	81 e2       	ldi	r24, 0x21	; 33
    1864:	92 e0       	ldi	r25, 0x02	; 2
    1866:	0e 94 82 17 	call	0x2f04	; 0x2f04 <lcd_puts_p>
    186a:	80 91 dc 07 	lds	r24, 0x07DC	; 0x8007dc <hh>
    186e:	8a 30       	cpi	r24, 0x0A	; 10
    1870:	20 f4       	brcc	.+8      	; 0x187a <main+0x288>
    1872:	8f e1       	ldi	r24, 0x1F	; 31
    1874:	92 e0       	ldi	r25, 0x02	; 2
    1876:	0e 94 82 17 	call	0x2f04	; 0x2f04 <lcd_puts_p>
    187a:	80 91 dc 07 	lds	r24, 0x07DC	; 0x8007dc <hh>
    187e:	90 e0       	ldi	r25, 0x00	; 0
    1880:	0e 94 91 17 	call	0x2f22	; 0x2f22 <oled_int>
    1884:	8d e1       	ldi	r24, 0x1D	; 29
    1886:	92 e0       	ldi	r25, 0x02	; 2
    1888:	0e 94 82 17 	call	0x2f04	; 0x2f04 <lcd_puts_p>
    188c:	80 91 d7 07 	lds	r24, 0x07D7	; 0x8007d7 <min>
    1890:	8a 30       	cpi	r24, 0x0A	; 10
    1892:	20 f4       	brcc	.+8      	; 0x189c <main+0x2aa>
    1894:	8b e1       	ldi	r24, 0x1B	; 27
    1896:	92 e0       	ldi	r25, 0x02	; 2
    1898:	0e 94 82 17 	call	0x2f04	; 0x2f04 <lcd_puts_p>
    189c:	80 91 d7 07 	lds	r24, 0x07D7	; 0x8007d7 <min>
    18a0:	90 e0       	ldi	r25, 0x00	; 0
    18a2:	0e 94 91 17 	call	0x2f22	; 0x2f22 <oled_int>
    18a6:	89 e1       	ldi	r24, 0x19	; 25
    18a8:	92 e0       	ldi	r25, 0x02	; 2
    18aa:	0e 94 82 17 	call	0x2f04	; 0x2f04 <lcd_puts_p>
    18ae:	80 91 c7 07 	lds	r24, 0x07C7	; 0x8007c7 <ss>
    18b2:	8a 30       	cpi	r24, 0x0A	; 10
    18b4:	20 f4       	brcc	.+8      	; 0x18be <main+0x2cc>
    18b6:	87 e1       	ldi	r24, 0x17	; 23
    18b8:	92 e0       	ldi	r25, 0x02	; 2
    18ba:	0e 94 82 17 	call	0x2f04	; 0x2f04 <lcd_puts_p>
    18be:	80 91 c7 07 	lds	r24, 0x07C7	; 0x8007c7 <ss>
    18c2:	90 e0       	ldi	r25, 0x00	; 0
    18c4:	0e 94 91 17 	call	0x2f22	; 0x2f22 <oled_int>
    18c8:	61 e0       	ldi	r22, 0x01	; 1
    18ca:	80 e0       	ldi	r24, 0x00	; 0
    18cc:	0e 94 79 15 	call	0x2af2	; 0x2af2 <lcd_gotoxy>
    18d0:	80 e1       	ldi	r24, 0x10	; 16
    18d2:	92 e0       	ldi	r25, 0x02	; 2
    18d4:	0e 94 82 17 	call	0x2f04	; 0x2f04 <lcd_puts_p>
    18d8:	80 91 db 07 	lds	r24, 0x07DB	; 0x8007db <day>
    18dc:	0e 94 c4 07 	call	0xf88	; 0xf88 <oled_day_of_the_week>
    18e0:	8e e0       	ldi	r24, 0x0E	; 14
    18e2:	92 e0       	ldi	r25, 0x02	; 2
    18e4:	0e 94 82 17 	call	0x2f04	; 0x2f04 <lcd_puts_p>
    18e8:	80 91 cc 07 	lds	r24, 0x07CC	; 0x8007cc <dd>
    18ec:	90 e0       	ldi	r25, 0x00	; 0
    18ee:	0e 94 91 17 	call	0x2f22	; 0x2f22 <oled_int>
    18f2:	8c e0       	ldi	r24, 0x0C	; 12
    18f4:	92 e0       	ldi	r25, 0x02	; 2
    18f6:	0e 94 82 17 	call	0x2f04	; 0x2f04 <lcd_puts_p>
    18fa:	80 91 c1 07 	lds	r24, 0x07C1	; 0x8007c1 <mm>
    18fe:	90 e0       	ldi	r25, 0x00	; 0
    1900:	0e 94 91 17 	call	0x2f22	; 0x2f22 <oled_int>
    1904:	8a e0       	ldi	r24, 0x0A	; 10
    1906:	92 e0       	ldi	r25, 0x02	; 2
    1908:	0e 94 82 17 	call	0x2f04	; 0x2f04 <lcd_puts_p>
    190c:	80 91 d9 07 	lds	r24, 0x07D9	; 0x8007d9 <yy>
    1910:	88 23       	and	r24, r24
    1912:	21 f0       	breq	.+8      	; 0x191c <main+0x32a>
    1914:	87 e0       	ldi	r24, 0x07	; 7
    1916:	92 e0       	ldi	r25, 0x02	; 2
    1918:	0e 94 82 17 	call	0x2f04	; 0x2f04 <lcd_puts_p>
    191c:	80 91 d9 07 	lds	r24, 0x07D9	; 0x8007d9 <yy>
    1920:	90 e0       	ldi	r25, 0x00	; 0
    1922:	0e 94 91 17 	call	0x2f22	; 0x2f22 <oled_int>
    1926:	80 91 cc 07 	lds	r24, 0x07CC	; 0x8007cc <dd>
    192a:	8a 30       	cpi	r24, 0x0A	; 10
    192c:	20 f0       	brcs	.+8      	; 0x1936 <main+0x344>
    192e:	80 91 c1 07 	lds	r24, 0x07C1	; 0x8007c1 <mm>
    1932:	8a 30       	cpi	r24, 0x0A	; 10
    1934:	20 f4       	brcc	.+8      	; 0x193e <main+0x34c>
    1936:	84 e0       	ldi	r24, 0x04	; 4
    1938:	92 e0       	ldi	r25, 0x02	; 2
    193a:	0e 94 82 17 	call	0x2f04	; 0x2f04 <lcd_puts_p>
    193e:	80 91 60 03 	lds	r24, 0x0360	; 0x800360 <cycle>
    1942:	81 11       	cpse	r24, r1
    1944:	05 c0       	rjmp	.+10     	; 0x1950 <main+0x35e>
    1946:	60 e0       	ldi	r22, 0x00	; 0
    1948:	70 e0       	ldi	r23, 0x00	; 0
    194a:	81 e0       	ldi	r24, 0x01	; 1
    194c:	0e 94 62 03 	call	0x6c4	; 0x6c4 <DS18X20_start_meas>
    1950:	80 91 60 03 	lds	r24, 0x0360	; 0x800360 <cycle>
    1954:	88 23       	and	r24, r24
    1956:	79 f0       	breq	.+30     	; 0x1976 <main+0x384>
    1958:	24 ed       	ldi	r18, 0xD4	; 212
    195a:	37 e0       	ldi	r19, 0x07	; 7
    195c:	4a ed       	ldi	r20, 0xDA	; 218
    195e:	57 e0       	ldi	r21, 0x07	; 7
    1960:	66 ed       	ldi	r22, 0xD6	; 214
    1962:	77 e0       	ldi	r23, 0x07	; 7
    1964:	87 e9       	ldi	r24, 0x97	; 151
    1966:	97 e0       	ldi	r25, 0x07	; 7
    1968:	0e 94 83 03 	call	0x706	; 0x706 <DS18X20_read_meas>
    196c:	81 11       	cpse	r24, r1
    196e:	03 c0       	rjmp	.+6      	; 0x1976 <main+0x384>
    1970:	82 e0       	ldi	r24, 0x02	; 2
    1972:	0e 94 7b 07 	call	0xef6	; 0xef6 <oled_display_temp_DS18B20>
    1976:	63 e0       	ldi	r22, 0x03	; 3
    1978:	80 e0       	ldi	r24, 0x00	; 0
    197a:	0e 94 79 15 	call	0x2af2	; 0x2af2 <lcd_gotoxy>
    197e:	8e ee       	ldi	r24, 0xEE	; 238
    1980:	91 e0       	ldi	r25, 0x01	; 1
    1982:	0e 94 82 17 	call	0x2f04	; 0x2f04 <lcd_puts_p>
    1986:	48 ec       	ldi	r20, 0xC8	; 200
    1988:	57 e0       	ldi	r21, 0x07	; 7
    198a:	65 ec       	ldi	r22, 0xC5	; 197
    198c:	77 e0       	ldi	r23, 0x07	; 7
    198e:	84 e0       	ldi	r24, 0x04	; 4
    1990:	0e 94 ad 14 	call	0x295a	; 0x295a <mkp_read_temp>
    1994:	81 11       	cpse	r24, r1
    1996:	64 c0       	rjmp	.+200    	; 0x1a60 <main+0x46e>
    1998:	80 91 c5 07 	lds	r24, 0x07C5	; 0x8007c5 <t_int>
    199c:	81 11       	cpse	r24, r1
    199e:	13 c0       	rjmp	.+38     	; 0x19c6 <main+0x3d4>
    19a0:	80 91 c8 07 	lds	r24, 0x07C8	; 0x8007c8 <t_fract>
    19a4:	87 ff       	sbrs	r24, 7
    19a6:	21 c0       	rjmp	.+66     	; 0x19ea <main+0x3f8>
    19a8:	81 95       	neg	r24
    19aa:	80 93 c8 07 	sts	0x07C8, r24	; 0x8007c8 <t_fract>
    19ae:	64 e0       	ldi	r22, 0x04	; 4
    19b0:	80 e0       	ldi	r24, 0x00	; 0
    19b2:	0e 94 79 15 	call	0x2af2	; 0x2af2 <lcd_gotoxy>
    19b6:	8e ed       	ldi	r24, 0xDE	; 222
    19b8:	91 e0       	ldi	r25, 0x01	; 1
    19ba:	0e 94 82 17 	call	0x2f04	; 0x2f04 <lcd_puts_p>
    19be:	81 e0       	ldi	r24, 0x01	; 1
    19c0:	80 93 5f 03 	sts	0x035F, r24	; 0x80035f <t_fract_flag>
    19c4:	1c c0       	rjmp	.+56     	; 0x19fe <main+0x40c>
    19c6:	87 ff       	sbrs	r24, 7
    19c8:	10 c0       	rjmp	.+32     	; 0x19ea <main+0x3f8>
    19ca:	80 91 c8 07 	lds	r24, 0x07C8	; 0x8007c8 <t_fract>
    19ce:	87 ff       	sbrs	r24, 7
    19d0:	0c c0       	rjmp	.+24     	; 0x19ea <main+0x3f8>
    19d2:	81 95       	neg	r24
    19d4:	80 93 c8 07 	sts	0x07C8, r24	; 0x8007c8 <t_fract>
    19d8:	64 e0       	ldi	r22, 0x04	; 4
    19da:	80 e0       	ldi	r24, 0x00	; 0
    19dc:	0e 94 79 15 	call	0x2af2	; 0x2af2 <lcd_gotoxy>
    19e0:	8f ec       	ldi	r24, 0xCF	; 207
    19e2:	91 e0       	ldi	r25, 0x01	; 1
    19e4:	0e 94 82 17 	call	0x2f04	; 0x2f04 <lcd_puts_p>
    19e8:	0a c0       	rjmp	.+20     	; 0x19fe <main+0x40c>
    19ea:	64 e0       	ldi	r22, 0x04	; 4
    19ec:	80 e0       	ldi	r24, 0x00	; 0
    19ee:	0e 94 79 15 	call	0x2af2	; 0x2af2 <lcd_gotoxy>
    19f2:	8e eb       	ldi	r24, 0xBE	; 190
    19f4:	91 e0       	ldi	r25, 0x01	; 1
    19f6:	0e 94 82 17 	call	0x2f04	; 0x2f04 <lcd_puts_p>
    19fa:	10 92 5f 03 	sts	0x035F, r1	; 0x80035f <t_fract_flag>
    19fe:	80 91 c5 07 	lds	r24, 0x07C5	; 0x8007c5 <t_int>
    1a02:	87 3f       	cpi	r24, 0xF7	; 247
    1a04:	1c f4       	brge	.+6      	; 0x1a0c <main+0x41a>
    1a06:	64 e0       	ldi	r22, 0x04	; 4
    1a08:	8d e0       	ldi	r24, 0x0D	; 13
    1a0a:	0a c0       	rjmp	.+20     	; 0x1a20 <main+0x42e>
    1a0c:	99 e0       	ldi	r25, 0x09	; 9
    1a0e:	98 0f       	add	r25, r24
    1a10:	64 e0       	ldi	r22, 0x04	; 4
    1a12:	99 30       	cpi	r25, 0x09	; 9
    1a14:	10 f4       	brcc	.+4      	; 0x1a1a <main+0x428>
    1a16:	8e e0       	ldi	r24, 0x0E	; 14
    1a18:	03 c0       	rjmp	.+6      	; 0x1a20 <main+0x42e>
    1a1a:	8a 30       	cpi	r24, 0x0A	; 10
    1a1c:	e0 f7       	brcc	.-8      	; 0x1a16 <main+0x424>
    1a1e:	8f e0       	ldi	r24, 0x0F	; 15
    1a20:	0e 94 79 15 	call	0x2af2	; 0x2af2 <lcd_gotoxy>
    1a24:	80 91 c5 07 	lds	r24, 0x07C5	; 0x8007c5 <t_int>
    1a28:	08 2e       	mov	r0, r24
    1a2a:	00 0c       	add	r0, r0
    1a2c:	99 0b       	sbc	r25, r25
    1a2e:	0e 94 91 17 	call	0x2f22	; 0x2f22 <oled_int>
    1a32:	8c eb       	ldi	r24, 0xBC	; 188
    1a34:	91 e0       	ldi	r25, 0x01	; 1
    1a36:	0e 94 82 17 	call	0x2f04	; 0x2f04 <lcd_puts_p>
    1a3a:	80 91 c8 07 	lds	r24, 0x07C8	; 0x8007c8 <t_fract>
    1a3e:	8a 30       	cpi	r24, 0x0A	; 10
    1a40:	24 f4       	brge	.+8      	; 0x1a4a <main+0x458>
    1a42:	8a eb       	ldi	r24, 0xBA	; 186
    1a44:	91 e0       	ldi	r25, 0x01	; 1
    1a46:	0e 94 82 17 	call	0x2f04	; 0x2f04 <lcd_puts_p>
    1a4a:	80 91 c8 07 	lds	r24, 0x07C8	; 0x8007c8 <t_fract>
    1a4e:	08 2e       	mov	r0, r24
    1a50:	00 0c       	add	r0, r0
    1a52:	99 0b       	sbc	r25, r25
    1a54:	0e 94 91 17 	call	0x2f22	; 0x2f22 <oled_int>
    1a58:	87 eb       	ldi	r24, 0xB7	; 183
    1a5a:	91 e0       	ldi	r25, 0x01	; 1
    1a5c:	0e 94 82 17 	call	0x2f04	; 0x2f04 <lcd_puts_p>
    1a60:	40 ec       	ldi	r20, 0xC0	; 192
    1a62:	57 e0       	ldi	r21, 0x07	; 7
    1a64:	69 ec       	ldi	r22, 0xC9	; 201
    1a66:	77 e0       	ldi	r23, 0x07	; 7
    1a68:	82 e0       	ldi	r24, 0x02	; 2
    1a6a:	0e 94 b6 14 	call	0x296c	; 0x296c <mkp_read_pressure>
    1a6e:	81 11       	cpse	r24, r1
    1a70:	31 c0       	rjmp	.+98     	; 0x1ad4 <main+0x4e2>
    1a72:	65 e0       	ldi	r22, 0x05	; 5
    1a74:	0e 94 79 15 	call	0x2af2	; 0x2af2 <lcd_gotoxy>
    1a78:	8a ea       	ldi	r24, 0xAA	; 170
    1a7a:	91 e0       	ldi	r25, 0x01	; 1
    1a7c:	0e 94 82 17 	call	0x2f04	; 0x2f04 <lcd_puts_p>
    1a80:	80 91 c9 07 	lds	r24, 0x07C9	; 0x8007c9 <hp_int>
    1a84:	90 91 ca 07 	lds	r25, 0x07CA	; 0x8007ca <hp_int+0x1>
    1a88:	65 e0       	ldi	r22, 0x05	; 5
    1a8a:	88 3e       	cpi	r24, 0xE8	; 232
    1a8c:	93 40       	sbci	r25, 0x03	; 3
    1a8e:	10 f4       	brcc	.+4      	; 0x1a94 <main+0x4a2>
    1a90:	8b e0       	ldi	r24, 0x0B	; 11
    1a92:	01 c0       	rjmp	.+2      	; 0x1a96 <main+0x4a4>
    1a94:	8a e0       	ldi	r24, 0x0A	; 10
    1a96:	0e 94 79 15 	call	0x2af2	; 0x2af2 <lcd_gotoxy>
    1a9a:	60 91 c9 07 	lds	r22, 0x07C9	; 0x8007c9 <hp_int>
    1a9e:	70 91 ca 07 	lds	r23, 0x07CA	; 0x8007ca <hp_int+0x1>
    1aa2:	80 e0       	ldi	r24, 0x00	; 0
    1aa4:	90 e0       	ldi	r25, 0x00	; 0
    1aa6:	0e 94 bb 17 	call	0x2f76	; 0x2f76 <oled_long_int>
    1aaa:	88 ea       	ldi	r24, 0xA8	; 168
    1aac:	91 e0       	ldi	r25, 0x01	; 1
    1aae:	0e 94 82 17 	call	0x2f04	; 0x2f04 <lcd_puts_p>
    1ab2:	80 91 c0 07 	lds	r24, 0x07C0	; 0x8007c0 <hp_fract>
    1ab6:	8a 30       	cpi	r24, 0x0A	; 10
    1ab8:	20 f4       	brcc	.+8      	; 0x1ac2 <main+0x4d0>
    1aba:	86 ea       	ldi	r24, 0xA6	; 166
    1abc:	91 e0       	ldi	r25, 0x01	; 1
    1abe:	0e 94 82 17 	call	0x2f04	; 0x2f04 <lcd_puts_p>
    1ac2:	80 91 c0 07 	lds	r24, 0x07C0	; 0x8007c0 <hp_fract>
    1ac6:	90 e0       	ldi	r25, 0x00	; 0
    1ac8:	0e 94 91 17 	call	0x2f22	; 0x2f22 <oled_int>
    1acc:	81 ea       	ldi	r24, 0xA1	; 161
    1ace:	91 e0       	ldi	r25, 0x01	; 1
    1ad0:	0e 94 82 17 	call	0x2f04	; 0x2f04 <lcd_puts_p>
    1ad4:	44 ec       	ldi	r20, 0xC4	; 196
    1ad6:	57 e0       	ldi	r21, 0x07	; 7
    1ad8:	63 ec       	ldi	r22, 0xC3	; 195
    1ada:	77 e0       	ldi	r23, 0x07	; 7
    1adc:	84 e0       	ldi	r24, 0x04	; 4
    1ade:	0e 94 c1 14 	call	0x2982	; 0x2982 <mkp_read_humidity>
    1ae2:	81 11       	cpse	r24, r1
    1ae4:	2f c0       	rjmp	.+94     	; 0x1b44 <main+0x552>
    1ae6:	66 e0       	ldi	r22, 0x06	; 6
    1ae8:	0e 94 79 15 	call	0x2af2	; 0x2af2 <lcd_gotoxy>
    1aec:	86 e9       	ldi	r24, 0x96	; 150
    1aee:	91 e0       	ldi	r25, 0x01	; 1
    1af0:	0e 94 82 17 	call	0x2f04	; 0x2f04 <lcd_puts_p>
    1af4:	80 91 c3 07 	lds	r24, 0x07C3	; 0x8007c3 <hm_int>
    1af8:	66 e0       	ldi	r22, 0x06	; 6
    1afa:	8a 30       	cpi	r24, 0x0A	; 10
    1afc:	10 f4       	brcc	.+4      	; 0x1b02 <main+0x510>
    1afe:	8f e0       	ldi	r24, 0x0F	; 15
    1b00:	01 c0       	rjmp	.+2      	; 0x1b04 <main+0x512>
    1b02:	8e e0       	ldi	r24, 0x0E	; 14
    1b04:	0e 94 79 15 	call	0x2af2	; 0x2af2 <lcd_gotoxy>
    1b08:	80 91 c3 07 	lds	r24, 0x07C3	; 0x8007c3 <hm_int>
    1b0c:	90 e0       	ldi	r25, 0x00	; 0
    1b0e:	0e 94 91 17 	call	0x2f22	; 0x2f22 <oled_int>
    1b12:	84 e9       	ldi	r24, 0x94	; 148
    1b14:	91 e0       	ldi	r25, 0x01	; 1
    1b16:	0e 94 82 17 	call	0x2f04	; 0x2f04 <lcd_puts_p>
    1b1a:	80 91 c3 07 	lds	r24, 0x07C3	; 0x8007c3 <hm_int>
    1b1e:	84 36       	cpi	r24, 0x64	; 100
    1b20:	40 f4       	brcc	.+16     	; 0x1b32 <main+0x540>
    1b22:	80 91 c4 07 	lds	r24, 0x07C4	; 0x8007c4 <hm_fract>
    1b26:	8a 30       	cpi	r24, 0x0A	; 10
    1b28:	20 f4       	brcc	.+8      	; 0x1b32 <main+0x540>
    1b2a:	82 e9       	ldi	r24, 0x92	; 146
    1b2c:	91 e0       	ldi	r25, 0x01	; 1
    1b2e:	0e 94 82 17 	call	0x2f04	; 0x2f04 <lcd_puts_p>
    1b32:	80 91 c4 07 	lds	r24, 0x07C4	; 0x8007c4 <hm_fract>
    1b36:	90 e0       	ldi	r25, 0x00	; 0
    1b38:	0e 94 91 17 	call	0x2f22	; 0x2f22 <oled_int>
    1b3c:	8f e8       	ldi	r24, 0x8F	; 143
    1b3e:	91 e0       	ldi	r25, 0x01	; 1
    1b40:	0e 94 82 17 	call	0x2f04	; 0x2f04 <lcd_puts_p>
    1b44:	80 91 6b 03 	lds	r24, 0x036B	; 0x80036b <usart_logs_data>
    1b48:	81 11       	cpse	r24, r1
    1b4a:	07 c0       	rjmp	.+14     	; 0x1b5a <main+0x568>
    1b4c:	67 e0       	ldi	r22, 0x07	; 7
    1b4e:	0e 94 79 15 	call	0x2af2	; 0x2af2 <lcd_gotoxy>
    1b52:	8f e7       	ldi	r24, 0x7F	; 127
    1b54:	91 e0       	ldi	r25, 0x01	; 1
    1b56:	0e 94 82 17 	call	0x2f04	; 0x2f04 <lcd_puts_p>
    1b5a:	0e 94 e9 17 	call	0x2fd2	; 0x2fd2 <lcd_display>
    1b5e:	0e 94 f3 09 	call	0x13e6	; 0x13e6 <usart_data_logging>
    1b62:	80 91 60 03 	lds	r24, 0x0360	; 0x800360 <cycle>
    1b66:	8f 5f       	subi	r24, 0xFF	; 255
    1b68:	80 93 60 03 	sts	0x0360, r24	; 0x800360 <cycle>
    1b6c:	82 30       	cpi	r24, 0x02	; 2
    1b6e:	10 f0       	brcs	.+4      	; 0x1b74 <main+0x582>
    1b70:	10 92 60 03 	sts	0x0360, r1	; 0x800360 <cycle>
    1b74:	10 92 60 00 	sts	0x0060, r1	; 0x800060 <__DATA_REGION_ORIGIN__>
    1b78:	80 91 c7 07 	lds	r24, 0x07C7	; 0x8007c7 <ss>
    1b7c:	80 93 61 03 	sts	0x0361, r24	; 0x800361 <ss_memory>
    1b80:	91 cd       	rjmp	.-1246   	; 0x16a4 <main+0xb2>

00001b82 <USART_Init>:
    1b82:	90 bd       	out	0x20, r25	; 32
    1b84:	89 b9       	out	0x09, r24	; 9
    1b86:	88 e1       	ldi	r24, 0x18	; 24
    1b88:	8a b9       	out	0x0a, r24	; 10
    1b8a:	86 e8       	ldi	r24, 0x86	; 134
    1b8c:	80 bd       	out	0x20, r24	; 32
    1b8e:	8a b1       	in	r24, 0x0a	; 10
    1b90:	88 69       	ori	r24, 0x98	; 152
    1b92:	8a b9       	out	0x0a, r24	; 10
    1b94:	08 95       	ret

00001b96 <uart_putc>:
    1b96:	90 91 de 07 	lds	r25, 0x07DE	; 0x8007de <UART_TxHead>
    1b9a:	9f 5f       	subi	r25, 0xFF	; 255
    1b9c:	91 70       	andi	r25, 0x01	; 1
    1b9e:	20 91 df 07 	lds	r18, 0x07DF	; 0x8007df <UART_TxTail>
    1ba2:	92 17       	cp	r25, r18
    1ba4:	e1 f3       	breq	.-8      	; 0x1b9e <uart_putc+0x8>
    1ba6:	e9 2f       	mov	r30, r25
    1ba8:	f0 e0       	ldi	r31, 0x00	; 0
    1baa:	e0 52       	subi	r30, 0x20	; 32
    1bac:	f8 4f       	sbci	r31, 0xF8	; 248
    1bae:	80 83       	st	Z, r24
    1bb0:	90 93 de 07 	sts	0x07DE, r25	; 0x8007de <UART_TxHead>
    1bb4:	55 9a       	sbi	0x0a, 5	; 10
    1bb6:	08 95       	ret

00001bb8 <uart_puts>:
    1bb8:	cf 93       	push	r28
    1bba:	df 93       	push	r29
    1bbc:	ec 01       	movw	r28, r24
    1bbe:	89 91       	ld	r24, Y+
    1bc0:	88 23       	and	r24, r24
    1bc2:	19 f0       	breq	.+6      	; 0x1bca <uart_puts+0x12>
    1bc4:	0e 94 cb 0d 	call	0x1b96	; 0x1b96 <uart_putc>
    1bc8:	fa cf       	rjmp	.-12     	; 0x1bbe <uart_puts+0x6>
    1bca:	df 91       	pop	r29
    1bcc:	cf 91       	pop	r28
    1bce:	08 95       	ret

00001bd0 <uart_putint>:
    1bd0:	cf 93       	push	r28
    1bd2:	df 93       	push	r29
    1bd4:	cd b7       	in	r28, 0x3d	; 61
    1bd6:	de b7       	in	r29, 0x3e	; 62
    1bd8:	61 97       	sbiw	r28, 0x11	; 17
    1bda:	0f b6       	in	r0, 0x3f	; 63
    1bdc:	f8 94       	cli
    1bde:	de bf       	out	0x3e, r29	; 62
    1be0:	0f be       	out	0x3f, r0	; 63
    1be2:	cd bf       	out	0x3d, r28	; 61
    1be4:	ab 01       	movw	r20, r22
    1be6:	be 01       	movw	r22, r28
    1be8:	6f 5f       	subi	r22, 0xFF	; 255
    1bea:	7f 4f       	sbci	r23, 0xFF	; 255
    1bec:	0e 94 ff 19 	call	0x33fe	; 0x33fe <itoa>
    1bf0:	ce 01       	movw	r24, r28
    1bf2:	01 96       	adiw	r24, 0x01	; 1
    1bf4:	0e 94 dc 0d 	call	0x1bb8	; 0x1bb8 <uart_puts>
    1bf8:	61 96       	adiw	r28, 0x11	; 17
    1bfa:	0f b6       	in	r0, 0x3f	; 63
    1bfc:	f8 94       	cli
    1bfe:	de bf       	out	0x3e, r29	; 62
    1c00:	0f be       	out	0x3f, r0	; 63
    1c02:	cd bf       	out	0x3d, r28	; 61
    1c04:	df 91       	pop	r29
    1c06:	cf 91       	pop	r28
    1c08:	08 95       	ret

00001c0a <__vector_14>:
    1c0a:	1f 92       	push	r1
    1c0c:	0f 92       	push	r0
    1c0e:	0f b6       	in	r0, 0x3f	; 63
    1c10:	0f 92       	push	r0
    1c12:	11 24       	eor	r1, r1
    1c14:	8f 93       	push	r24
    1c16:	9f 93       	push	r25
    1c18:	ef 93       	push	r30
    1c1a:	ff 93       	push	r31
    1c1c:	90 91 de 07 	lds	r25, 0x07DE	; 0x8007de <UART_TxHead>
    1c20:	80 91 df 07 	lds	r24, 0x07DF	; 0x8007df <UART_TxTail>
    1c24:	98 17       	cp	r25, r24
    1c26:	71 f0       	breq	.+28     	; 0x1c44 <__vector_14+0x3a>
    1c28:	80 91 df 07 	lds	r24, 0x07DF	; 0x8007df <UART_TxTail>
    1c2c:	8f 5f       	subi	r24, 0xFF	; 255
    1c2e:	81 70       	andi	r24, 0x01	; 1
    1c30:	80 93 df 07 	sts	0x07DF, r24	; 0x8007df <UART_TxTail>
    1c34:	e0 91 df 07 	lds	r30, 0x07DF	; 0x8007df <UART_TxTail>
    1c38:	f0 e0       	ldi	r31, 0x00	; 0
    1c3a:	e0 52       	subi	r30, 0x20	; 32
    1c3c:	f8 4f       	sbci	r31, 0xF8	; 248
    1c3e:	80 81       	ld	r24, Z
    1c40:	8c b9       	out	0x0c, r24	; 12
    1c42:	01 c0       	rjmp	.+2      	; 0x1c46 <__vector_14+0x3c>
    1c44:	55 98       	cbi	0x0a, 5	; 10
    1c46:	ff 91       	pop	r31
    1c48:	ef 91       	pop	r30
    1c4a:	9f 91       	pop	r25
    1c4c:	8f 91       	pop	r24
    1c4e:	0f 90       	pop	r0
    1c50:	0f be       	out	0x3f, r0	; 63
    1c52:	0f 90       	pop	r0
    1c54:	1f 90       	pop	r1
    1c56:	18 95       	reti

00001c58 <uart_getc>:
    1c58:	90 91 e2 07 	lds	r25, 0x07E2	; 0x8007e2 <UART_RxHead>
    1c5c:	80 91 e3 07 	lds	r24, 0x07E3	; 0x8007e3 <UART_RxTail>
    1c60:	98 17       	cp	r25, r24
    1c62:	69 f0       	breq	.+26     	; 0x1c7e <uart_getc+0x26>
    1c64:	80 91 e3 07 	lds	r24, 0x07E3	; 0x8007e3 <UART_RxTail>
    1c68:	8f 5f       	subi	r24, 0xFF	; 255
    1c6a:	8f 71       	andi	r24, 0x1F	; 31
    1c6c:	80 93 e3 07 	sts	0x07E3, r24	; 0x8007e3 <UART_RxTail>
    1c70:	e0 91 e3 07 	lds	r30, 0x07E3	; 0x8007e3 <UART_RxTail>
    1c74:	f0 e0       	ldi	r31, 0x00	; 0
    1c76:	ec 51       	subi	r30, 0x1C	; 28
    1c78:	f8 4f       	sbci	r31, 0xF8	; 248
    1c7a:	80 81       	ld	r24, Z
    1c7c:	08 95       	ret
    1c7e:	80 e0       	ldi	r24, 0x00	; 0
    1c80:	08 95       	ret

00001c82 <__vector_13>:
    1c82:	1f 92       	push	r1
    1c84:	0f 92       	push	r0
    1c86:	0f b6       	in	r0, 0x3f	; 63
    1c88:	0f 92       	push	r0
    1c8a:	11 24       	eor	r1, r1
    1c8c:	8f 93       	push	r24
    1c8e:	9f 93       	push	r25
    1c90:	ef 93       	push	r30
    1c92:	ff 93       	push	r31
    1c94:	8c b1       	in	r24, 0x0c	; 12
    1c96:	e0 91 e2 07 	lds	r30, 0x07E2	; 0x8007e2 <UART_RxHead>
    1c9a:	ef 5f       	subi	r30, 0xFF	; 255
    1c9c:	ef 71       	andi	r30, 0x1F	; 31
    1c9e:	90 91 e3 07 	lds	r25, 0x07E3	; 0x8007e3 <UART_RxTail>
    1ca2:	e9 17       	cp	r30, r25
    1ca4:	31 f0       	breq	.+12     	; 0x1cb2 <__vector_13+0x30>
    1ca6:	e0 93 e2 07 	sts	0x07E2, r30	; 0x8007e2 <UART_RxHead>
    1caa:	f0 e0       	ldi	r31, 0x00	; 0
    1cac:	ec 51       	subi	r30, 0x1C	; 28
    1cae:	f8 4f       	sbci	r31, 0xF8	; 248
    1cb0:	80 83       	st	Z, r24
    1cb2:	ff 91       	pop	r31
    1cb4:	ef 91       	pop	r30
    1cb6:	9f 91       	pop	r25
    1cb8:	8f 91       	pop	r24
    1cba:	0f 90       	pop	r0
    1cbc:	0f be       	out	0x3f, r0	; 63
    1cbe:	0f 90       	pop	r0
    1cc0:	1f 90       	pop	r1
    1cc2:	18 95       	reti

00001cc4 <bmpe280_read_byte>:
    1cc4:	cf 93       	push	r28
    1cc6:	c8 2f       	mov	r28, r24
    1cc8:	0e 94 03 14 	call	0x2806	; 0x2806 <i2c__start>
    1ccc:	8c ee       	ldi	r24, 0xEC	; 236
    1cce:	0e 94 4f 14 	call	0x289e	; 0x289e <i2c_write>
    1cd2:	8c 2f       	mov	r24, r28
    1cd4:	0e 94 4f 14 	call	0x289e	; 0x289e <i2c_write>
    1cd8:	0e 94 03 14 	call	0x2806	; 0x2806 <i2c__start>
    1cdc:	8d ee       	ldi	r24, 0xED	; 237
    1cde:	0e 94 4f 14 	call	0x289e	; 0x289e <i2c_write>
    1ce2:	80 e0       	ldi	r24, 0x00	; 0
    1ce4:	0e 94 7e 14 	call	0x28fc	; 0x28fc <i2c_read>
    1ce8:	c8 2f       	mov	r28, r24
    1cea:	0e 94 29 14 	call	0x2852	; 0x2852 <i2c__stop>
    1cee:	8c 2f       	mov	r24, r28
    1cf0:	cf 91       	pop	r28
    1cf2:	08 95       	ret

00001cf4 <bmpe280_read_word>:
    1cf4:	cf 93       	push	r28
    1cf6:	df 93       	push	r29
    1cf8:	c8 2f       	mov	r28, r24
    1cfa:	0e 94 03 14 	call	0x2806	; 0x2806 <i2c__start>
    1cfe:	8c ee       	ldi	r24, 0xEC	; 236
    1d00:	0e 94 4f 14 	call	0x289e	; 0x289e <i2c_write>
    1d04:	8c 2f       	mov	r24, r28
    1d06:	0e 94 4f 14 	call	0x289e	; 0x289e <i2c_write>
    1d0a:	0e 94 03 14 	call	0x2806	; 0x2806 <i2c__start>
    1d0e:	8d ee       	ldi	r24, 0xED	; 237
    1d10:	0e 94 4f 14 	call	0x289e	; 0x289e <i2c_write>
    1d14:	81 e0       	ldi	r24, 0x01	; 1
    1d16:	0e 94 7e 14 	call	0x28fc	; 0x28fc <i2c_read>
    1d1a:	c8 2f       	mov	r28, r24
    1d1c:	d0 e0       	ldi	r29, 0x00	; 0
    1d1e:	dc 2f       	mov	r29, r28
    1d20:	cc 27       	eor	r28, r28
    1d22:	80 e0       	ldi	r24, 0x00	; 0
    1d24:	0e 94 7e 14 	call	0x28fc	; 0x28fc <i2c_read>
    1d28:	c8 2b       	or	r28, r24
    1d2a:	0e 94 29 14 	call	0x2852	; 0x2852 <i2c__stop>
    1d2e:	ce 01       	movw	r24, r28
    1d30:	df 91       	pop	r29
    1d32:	cf 91       	pop	r28
    1d34:	08 95       	ret

00001d36 <bmpe280_read_uint16>:
    1d36:	0e 94 7a 0e 	call	0x1cf4	; 0x1cf4 <bmpe280_read_word>
    1d3a:	98 27       	eor	r25, r24
    1d3c:	89 27       	eor	r24, r25
    1d3e:	98 27       	eor	r25, r24
    1d40:	08 95       	ret

00001d42 <bmpe280_read_3bytes>:
    1d42:	cf 92       	push	r12
    1d44:	df 92       	push	r13
    1d46:	ef 92       	push	r14
    1d48:	ff 92       	push	r15
    1d4a:	f8 2e       	mov	r15, r24
    1d4c:	0e 94 03 14 	call	0x2806	; 0x2806 <i2c__start>
    1d50:	8c ee       	ldi	r24, 0xEC	; 236
    1d52:	0e 94 4f 14 	call	0x289e	; 0x289e <i2c_write>
    1d56:	8f 2d       	mov	r24, r15
    1d58:	0e 94 4f 14 	call	0x289e	; 0x289e <i2c_write>
    1d5c:	0e 94 03 14 	call	0x2806	; 0x2806 <i2c__start>
    1d60:	8d ee       	ldi	r24, 0xED	; 237
    1d62:	0e 94 4f 14 	call	0x289e	; 0x289e <i2c_write>
    1d66:	81 e0       	ldi	r24, 0x01	; 1
    1d68:	0e 94 7e 14 	call	0x28fc	; 0x28fc <i2c_read>
    1d6c:	c8 2e       	mov	r12, r24
    1d6e:	d1 2c       	mov	r13, r1
    1d70:	e1 2c       	mov	r14, r1
    1d72:	f1 2c       	mov	r15, r1
    1d74:	fe 2c       	mov	r15, r14
    1d76:	ed 2c       	mov	r14, r13
    1d78:	dc 2c       	mov	r13, r12
    1d7a:	cc 24       	eor	r12, r12
    1d7c:	81 e0       	ldi	r24, 0x01	; 1
    1d7e:	0e 94 7e 14 	call	0x28fc	; 0x28fc <i2c_read>
    1d82:	c8 2a       	or	r12, r24
    1d84:	fe 2c       	mov	r15, r14
    1d86:	ed 2c       	mov	r14, r13
    1d88:	dc 2c       	mov	r13, r12
    1d8a:	cc 24       	eor	r12, r12
    1d8c:	80 e0       	ldi	r24, 0x00	; 0
    1d8e:	0e 94 7e 14 	call	0x28fc	; 0x28fc <i2c_read>
    1d92:	c8 2a       	or	r12, r24
    1d94:	0e 94 29 14 	call	0x2852	; 0x2852 <i2c__stop>
    1d98:	c7 01       	movw	r24, r14
    1d9a:	b6 01       	movw	r22, r12
    1d9c:	ff 90       	pop	r15
    1d9e:	ef 90       	pop	r14
    1da0:	df 90       	pop	r13
    1da2:	cf 90       	pop	r12
    1da4:	08 95       	ret

00001da6 <bmpe280_init>:
    1da6:	cf 93       	push	r28
    1da8:	df 93       	push	r29
    1daa:	0e 94 03 14 	call	0x2806	; 0x2806 <i2c__start>
    1dae:	8c ee       	ldi	r24, 0xEC	; 236
    1db0:	0e 94 4f 14 	call	0x289e	; 0x289e <i2c_write>
    1db4:	c8 2f       	mov	r28, r24
    1db6:	0e 94 29 14 	call	0x2852	; 0x2852 <i2c__stop>
    1dba:	cc 23       	and	r28, r28
    1dbc:	09 f4       	brne	.+2      	; 0x1dc0 <bmpe280_init+0x1a>
    1dbe:	e5 c0       	rjmp	.+458    	; 0x1f8a <bmpe280_init+0x1e4>
    1dc0:	80 ed       	ldi	r24, 0xD0	; 208
    1dc2:	0e 94 62 0e 	call	0x1cc4	; 0x1cc4 <bmpe280_read_byte>
    1dc6:	88 35       	cpi	r24, 0x58	; 88
    1dc8:	01 f1       	breq	.+64     	; 0x1e0a <bmpe280_init+0x64>
    1dca:	80 36       	cpi	r24, 0x60	; 96
    1dcc:	09 f0       	breq	.+2      	; 0x1dd0 <bmpe280_init+0x2a>
    1dce:	df c0       	rjmp	.+446    	; 0x1f8e <bmpe280_init+0x1e8>
    1dd0:	0e 94 03 14 	call	0x2806	; 0x2806 <i2c__start>
    1dd4:	8c ee       	ldi	r24, 0xEC	; 236
    1dd6:	0e 94 4f 14 	call	0x289e	; 0x289e <i2c_write>
    1dda:	80 ee       	ldi	r24, 0xE0	; 224
    1ddc:	0e 94 4f 14 	call	0x289e	; 0x289e <i2c_write>
    1de0:	0e 94 29 14 	call	0x2852	; 0x2852 <i2c__stop>
    1de4:	8f ef       	ldi	r24, 0xFF	; 255
    1de6:	9b e6       	ldi	r25, 0x6B	; 107
    1de8:	01 97       	sbiw	r24, 0x01	; 1
    1dea:	f1 f7       	brne	.-4      	; 0x1de8 <bmpe280_init+0x42>
    1dec:	00 c0       	rjmp	.+0      	; 0x1dee <bmpe280_init+0x48>
    1dee:	00 00       	nop
    1df0:	0e 94 03 14 	call	0x2806	; 0x2806 <i2c__start>
    1df4:	8c ee       	ldi	r24, 0xEC	; 236
    1df6:	0e 94 4f 14 	call	0x289e	; 0x289e <i2c_write>
    1dfa:	82 ef       	ldi	r24, 0xF2	; 242
    1dfc:	0e 94 4f 14 	call	0x289e	; 0x289e <i2c_write>
    1e00:	85 e0       	ldi	r24, 0x05	; 5
    1e02:	0e 94 4f 14 	call	0x289e	; 0x289e <i2c_write>
    1e06:	c4 e0       	ldi	r28, 0x04	; 4
    1e08:	19 c0       	rjmp	.+50     	; 0x1e3c <bmpe280_init+0x96>
    1e0a:	0e 94 03 14 	call	0x2806	; 0x2806 <i2c__start>
    1e0e:	8c ee       	ldi	r24, 0xEC	; 236
    1e10:	0e 94 4f 14 	call	0x289e	; 0x289e <i2c_write>
    1e14:	80 ee       	ldi	r24, 0xE0	; 224
    1e16:	0e 94 4f 14 	call	0x289e	; 0x289e <i2c_write>
    1e1a:	86 eb       	ldi	r24, 0xB6	; 182
    1e1c:	0e 94 4f 14 	call	0x289e	; 0x289e <i2c_write>
    1e20:	0e 94 29 14 	call	0x2852	; 0x2852 <i2c__stop>
    1e24:	8f ef       	ldi	r24, 0xFF	; 255
    1e26:	9b e6       	ldi	r25, 0x6B	; 107
    1e28:	01 97       	sbiw	r24, 0x01	; 1
    1e2a:	f1 f7       	brne	.-4      	; 0x1e28 <bmpe280_init+0x82>
    1e2c:	00 c0       	rjmp	.+0      	; 0x1e2e <bmpe280_init+0x88>
    1e2e:	00 00       	nop
    1e30:	0e 94 03 14 	call	0x2806	; 0x2806 <i2c__start>
    1e34:	8c ee       	ldi	r24, 0xEC	; 236
    1e36:	0e 94 4f 14 	call	0x289e	; 0x289e <i2c_write>
    1e3a:	c2 e0       	ldi	r28, 0x02	; 2
    1e3c:	85 ef       	ldi	r24, 0xF5	; 245
    1e3e:	0e 94 4f 14 	call	0x289e	; 0x289e <i2c_write>
    1e42:	8c e6       	ldi	r24, 0x6C	; 108
    1e44:	0e 94 4f 14 	call	0x289e	; 0x289e <i2c_write>
    1e48:	84 ef       	ldi	r24, 0xF4	; 244
    1e4a:	0e 94 4f 14 	call	0x289e	; 0x289e <i2c_write>
    1e4e:	87 eb       	ldi	r24, 0xB7	; 183
    1e50:	0e 94 4f 14 	call	0x289e	; 0x289e <i2c_write>
    1e54:	0e 94 29 14 	call	0x2852	; 0x2852 <i2c__stop>
    1e58:	8f ef       	ldi	r24, 0xFF	; 255
    1e5a:	9b e6       	ldi	r25, 0x6B	; 107
    1e5c:	01 97       	sbiw	r24, 0x01	; 1
    1e5e:	f1 f7       	brne	.-4      	; 0x1e5c <bmpe280_init+0xb6>
    1e60:	00 c0       	rjmp	.+0      	; 0x1e62 <bmpe280_init+0xbc>
    1e62:	00 00       	nop
    1e64:	88 e8       	ldi	r24, 0x88	; 136
    1e66:	0e 94 9b 0e 	call	0x1d36	; 0x1d36 <bmpe280_read_uint16>
    1e6a:	90 93 6f 03 	sts	0x036F, r25	; 0x80036f <bmpe_calib+0x1>
    1e6e:	80 93 6e 03 	sts	0x036E, r24	; 0x80036e <bmpe_calib>
    1e72:	8a e8       	ldi	r24, 0x8A	; 138
    1e74:	0e 94 9b 0e 	call	0x1d36	; 0x1d36 <bmpe280_read_uint16>
    1e78:	90 93 71 03 	sts	0x0371, r25	; 0x800371 <bmpe_calib+0x3>
    1e7c:	80 93 70 03 	sts	0x0370, r24	; 0x800370 <bmpe_calib+0x2>
    1e80:	8c e8       	ldi	r24, 0x8C	; 140
    1e82:	0e 94 9b 0e 	call	0x1d36	; 0x1d36 <bmpe280_read_uint16>
    1e86:	90 93 73 03 	sts	0x0373, r25	; 0x800373 <bmpe_calib+0x5>
    1e8a:	80 93 72 03 	sts	0x0372, r24	; 0x800372 <bmpe_calib+0x4>
    1e8e:	8e e8       	ldi	r24, 0x8E	; 142
    1e90:	0e 94 9b 0e 	call	0x1d36	; 0x1d36 <bmpe280_read_uint16>
    1e94:	90 93 75 03 	sts	0x0375, r25	; 0x800375 <bmpe_calib+0x7>
    1e98:	80 93 74 03 	sts	0x0374, r24	; 0x800374 <bmpe_calib+0x6>
    1e9c:	80 e9       	ldi	r24, 0x90	; 144
    1e9e:	0e 94 9b 0e 	call	0x1d36	; 0x1d36 <bmpe280_read_uint16>
    1ea2:	90 93 77 03 	sts	0x0377, r25	; 0x800377 <bmpe_calib+0x9>
    1ea6:	80 93 76 03 	sts	0x0376, r24	; 0x800376 <bmpe_calib+0x8>
    1eaa:	82 e9       	ldi	r24, 0x92	; 146
    1eac:	0e 94 9b 0e 	call	0x1d36	; 0x1d36 <bmpe280_read_uint16>
    1eb0:	90 93 79 03 	sts	0x0379, r25	; 0x800379 <bmpe_calib+0xb>
    1eb4:	80 93 78 03 	sts	0x0378, r24	; 0x800378 <bmpe_calib+0xa>
    1eb8:	84 e9       	ldi	r24, 0x94	; 148
    1eba:	0e 94 9b 0e 	call	0x1d36	; 0x1d36 <bmpe280_read_uint16>
    1ebe:	90 93 7b 03 	sts	0x037B, r25	; 0x80037b <bmpe_calib+0xd>
    1ec2:	80 93 7a 03 	sts	0x037A, r24	; 0x80037a <bmpe_calib+0xc>
    1ec6:	86 e9       	ldi	r24, 0x96	; 150
    1ec8:	0e 94 9b 0e 	call	0x1d36	; 0x1d36 <bmpe280_read_uint16>
    1ecc:	90 93 7d 03 	sts	0x037D, r25	; 0x80037d <bmpe_calib+0xf>
    1ed0:	80 93 7c 03 	sts	0x037C, r24	; 0x80037c <bmpe_calib+0xe>
    1ed4:	88 e9       	ldi	r24, 0x98	; 152
    1ed6:	0e 94 9b 0e 	call	0x1d36	; 0x1d36 <bmpe280_read_uint16>
    1eda:	90 93 7f 03 	sts	0x037F, r25	; 0x80037f <bmpe_calib+0x11>
    1ede:	80 93 7e 03 	sts	0x037E, r24	; 0x80037e <bmpe_calib+0x10>
    1ee2:	8a e9       	ldi	r24, 0x9A	; 154
    1ee4:	0e 94 9b 0e 	call	0x1d36	; 0x1d36 <bmpe280_read_uint16>
    1ee8:	90 93 81 03 	sts	0x0381, r25	; 0x800381 <bmpe_calib+0x13>
    1eec:	80 93 80 03 	sts	0x0380, r24	; 0x800380 <bmpe_calib+0x12>
    1ef0:	8c e9       	ldi	r24, 0x9C	; 156
    1ef2:	0e 94 9b 0e 	call	0x1d36	; 0x1d36 <bmpe280_read_uint16>
    1ef6:	90 93 83 03 	sts	0x0383, r25	; 0x800383 <bmpe_calib+0x15>
    1efa:	80 93 82 03 	sts	0x0382, r24	; 0x800382 <bmpe_calib+0x14>
    1efe:	8e e9       	ldi	r24, 0x9E	; 158
    1f00:	0e 94 9b 0e 	call	0x1d36	; 0x1d36 <bmpe280_read_uint16>
    1f04:	90 93 85 03 	sts	0x0385, r25	; 0x800385 <bmpe_calib+0x17>
    1f08:	80 93 84 03 	sts	0x0384, r24	; 0x800384 <bmpe_calib+0x16>
    1f0c:	80 ed       	ldi	r24, 0xD0	; 208
    1f0e:	0e 94 62 0e 	call	0x1cc4	; 0x1cc4 <bmpe280_read_byte>
    1f12:	80 36       	cpi	r24, 0x60	; 96
    1f14:	f1 f5       	brne	.+124    	; 0x1f92 <bmpe280_init+0x1ec>
    1f16:	81 ea       	ldi	r24, 0xA1	; 161
    1f18:	0e 94 62 0e 	call	0x1cc4	; 0x1cc4 <bmpe280_read_byte>
    1f1c:	80 93 86 03 	sts	0x0386, r24	; 0x800386 <bmpe_calib+0x18>
    1f20:	81 ee       	ldi	r24, 0xE1	; 225
    1f22:	0e 94 9b 0e 	call	0x1d36	; 0x1d36 <bmpe280_read_uint16>
    1f26:	90 93 88 03 	sts	0x0388, r25	; 0x800388 <bmpe_calib+0x1a>
    1f2a:	80 93 87 03 	sts	0x0387, r24	; 0x800387 <bmpe_calib+0x19>
    1f2e:	83 ee       	ldi	r24, 0xE3	; 227
    1f30:	0e 94 62 0e 	call	0x1cc4	; 0x1cc4 <bmpe280_read_byte>
    1f34:	80 93 89 03 	sts	0x0389, r24	; 0x800389 <bmpe_calib+0x1b>
    1f38:	84 ee       	ldi	r24, 0xE4	; 228
    1f3a:	0e 94 62 0e 	call	0x1cc4	; 0x1cc4 <bmpe280_read_byte>
    1f3e:	d8 2f       	mov	r29, r24
    1f40:	85 ee       	ldi	r24, 0xE5	; 229
    1f42:	0e 94 62 0e 	call	0x1cc4	; 0x1cc4 <bmpe280_read_byte>
    1f46:	90 e1       	ldi	r25, 0x10	; 16
    1f48:	d9 9f       	mul	r29, r25
    1f4a:	90 01       	movw	r18, r0
    1f4c:	11 24       	eor	r1, r1
    1f4e:	8f 70       	andi	r24, 0x0F	; 15
    1f50:	28 2b       	or	r18, r24
    1f52:	30 93 8b 03 	sts	0x038B, r19	; 0x80038b <bmpe_calib+0x1d>
    1f56:	20 93 8a 03 	sts	0x038A, r18	; 0x80038a <bmpe_calib+0x1c>
    1f5a:	86 ee       	ldi	r24, 0xE6	; 230
    1f5c:	0e 94 62 0e 	call	0x1cc4	; 0x1cc4 <bmpe280_read_byte>
    1f60:	d8 2f       	mov	r29, r24
    1f62:	85 ee       	ldi	r24, 0xE5	; 229
    1f64:	0e 94 62 0e 	call	0x1cc4	; 0x1cc4 <bmpe280_read_byte>
    1f68:	90 e1       	ldi	r25, 0x10	; 16
    1f6a:	d9 9f       	mul	r29, r25
    1f6c:	90 01       	movw	r18, r0
    1f6e:	11 24       	eor	r1, r1
    1f70:	82 95       	swap	r24
    1f72:	8f 70       	andi	r24, 0x0F	; 15
    1f74:	28 2b       	or	r18, r24
    1f76:	30 93 8d 03 	sts	0x038D, r19	; 0x80038d <bmpe_calib+0x1f>
    1f7a:	20 93 8c 03 	sts	0x038C, r18	; 0x80038c <bmpe_calib+0x1e>
    1f7e:	87 ee       	ldi	r24, 0xE7	; 231
    1f80:	0e 94 62 0e 	call	0x1cc4	; 0x1cc4 <bmpe280_read_byte>
    1f84:	80 93 8e 03 	sts	0x038E, r24	; 0x80038e <bmpe_calib+0x20>
    1f88:	04 c0       	rjmp	.+8      	; 0x1f92 <bmpe280_init+0x1ec>
    1f8a:	8f ef       	ldi	r24, 0xFF	; 255
    1f8c:	03 c0       	rjmp	.+6      	; 0x1f94 <bmpe280_init+0x1ee>
    1f8e:	80 e0       	ldi	r24, 0x00	; 0
    1f90:	01 c0       	rjmp	.+2      	; 0x1f94 <bmpe280_init+0x1ee>
    1f92:	8c 2f       	mov	r24, r28
    1f94:	df 91       	pop	r29
    1f96:	cf 91       	pop	r28
    1f98:	08 95       	ret

00001f9a <bmpe280_read_temp>:
    1f9a:	8f 92       	push	r8
    1f9c:	9f 92       	push	r9
    1f9e:	af 92       	push	r10
    1fa0:	bf 92       	push	r11
    1fa2:	cf 92       	push	r12
    1fa4:	df 92       	push	r13
    1fa6:	ef 92       	push	r14
    1fa8:	ff 92       	push	r15
    1faa:	0f 93       	push	r16
    1fac:	1f 93       	push	r17
    1fae:	cf 93       	push	r28
    1fb0:	df 93       	push	r29
    1fb2:	8c 01       	movw	r16, r24
    1fb4:	eb 01       	movw	r28, r22
    1fb6:	8a ef       	ldi	r24, 0xFA	; 250
    1fb8:	0e 94 a1 0e 	call	0x1d42	; 0x1d42 <bmpe280_read_3bytes>
    1fbc:	61 15       	cp	r22, r1
    1fbe:	71 05       	cpc	r23, r1
    1fc0:	20 e8       	ldi	r18, 0x80	; 128
    1fc2:	82 07       	cpc	r24, r18
    1fc4:	91 05       	cpc	r25, r1
    1fc6:	09 f4       	brne	.+2      	; 0x1fca <bmpe280_read_temp+0x30>
    1fc8:	84 c0       	rjmp	.+264    	; 0x20d2 <bmpe280_read_temp+0x138>
    1fca:	80 90 6e 03 	lds	r8, 0x036E	; 0x80036e <bmpe_calib>
    1fce:	90 90 6f 03 	lds	r9, 0x036F	; 0x80036f <bmpe_calib+0x1>
    1fd2:	a1 2c       	mov	r10, r1
    1fd4:	b1 2c       	mov	r11, r1
    1fd6:	c7 2e       	mov	r12, r23
    1fd8:	d8 2e       	mov	r13, r24
    1fda:	e9 2e       	mov	r14, r25
    1fdc:	ff 24       	eor	r15, r15
    1fde:	e7 fc       	sbrc	r14, 7
    1fe0:	fa 94       	dec	r15
    1fe2:	c8 18       	sub	r12, r8
    1fe4:	d9 08       	sbc	r13, r9
    1fe6:	ea 08       	sbc	r14, r10
    1fe8:	fb 08       	sbc	r15, r11
    1fea:	dc 01       	movw	r26, r24
    1fec:	cb 01       	movw	r24, r22
    1fee:	37 e0       	ldi	r19, 0x07	; 7
    1ff0:	b5 95       	asr	r27
    1ff2:	a7 95       	ror	r26
    1ff4:	97 95       	ror	r25
    1ff6:	87 95       	ror	r24
    1ff8:	3a 95       	dec	r19
    1ffa:	d1 f7       	brne	.-12     	; 0x1ff0 <bmpe280_read_temp+0x56>
    1ffc:	88 0c       	add	r8, r8
    1ffe:	99 1c       	adc	r9, r9
    2000:	aa 1c       	adc	r10, r10
    2002:	bb 1c       	adc	r11, r11
    2004:	9c 01       	movw	r18, r24
    2006:	ad 01       	movw	r20, r26
    2008:	28 19       	sub	r18, r8
    200a:	39 09       	sbc	r19, r9
    200c:	4a 09       	sbc	r20, r10
    200e:	5b 09       	sbc	r21, r11
    2010:	a0 91 70 03 	lds	r26, 0x0370	; 0x800370 <bmpe_calib+0x2>
    2014:	b0 91 71 03 	lds	r27, 0x0371	; 0x800371 <bmpe_calib+0x3>
    2018:	0e 94 63 18 	call	0x30c6	; 0x30c6 <__mulshisi3>
    201c:	4b 01       	movw	r8, r22
    201e:	5c 01       	movw	r10, r24
    2020:	5b e0       	ldi	r21, 0x0B	; 11
    2022:	b5 94       	asr	r11
    2024:	a7 94       	ror	r10
    2026:	97 94       	ror	r9
    2028:	87 94       	ror	r8
    202a:	5a 95       	dec	r21
    202c:	d1 f7       	brne	.-12     	; 0x2022 <bmpe280_read_temp+0x88>
    202e:	a7 01       	movw	r20, r14
    2030:	96 01       	movw	r18, r12
    2032:	c7 01       	movw	r24, r14
    2034:	b6 01       	movw	r22, r12
    2036:	0e 94 01 18 	call	0x3002	; 0x3002 <__mulsi3>
    203a:	9b 01       	movw	r18, r22
    203c:	ac 01       	movw	r20, r24
    203e:	6c e0       	ldi	r22, 0x0C	; 12
    2040:	55 95       	asr	r21
    2042:	47 95       	ror	r20
    2044:	37 95       	ror	r19
    2046:	27 95       	ror	r18
    2048:	6a 95       	dec	r22
    204a:	d1 f7       	brne	.-12     	; 0x2040 <bmpe280_read_temp+0xa6>
    204c:	a0 91 72 03 	lds	r26, 0x0372	; 0x800372 <bmpe_calib+0x4>
    2050:	b0 91 73 03 	lds	r27, 0x0373	; 0x800373 <bmpe_calib+0x5>
    2054:	0e 94 63 18 	call	0x30c6	; 0x30c6 <__mulshisi3>
    2058:	dc 01       	movw	r26, r24
    205a:	cb 01       	movw	r24, r22
    205c:	7e e0       	ldi	r23, 0x0E	; 14
    205e:	b5 95       	asr	r27
    2060:	a7 95       	ror	r26
    2062:	97 95       	ror	r25
    2064:	87 95       	ror	r24
    2066:	7a 95       	dec	r23
    2068:	d1 f7       	brne	.-12     	; 0x205e <bmpe280_read_temp+0xc4>
    206a:	a5 01       	movw	r20, r10
    206c:	94 01       	movw	r18, r8
    206e:	28 0f       	add	r18, r24
    2070:	39 1f       	adc	r19, r25
    2072:	4a 1f       	adc	r20, r26
    2074:	5b 1f       	adc	r21, r27
    2076:	20 93 8f 03 	sts	0x038F, r18	; 0x80038f <tmp_temperature>
    207a:	30 93 90 03 	sts	0x0390, r19	; 0x800390 <tmp_temperature+0x1>
    207e:	40 93 91 03 	sts	0x0391, r20	; 0x800391 <tmp_temperature+0x2>
    2082:	50 93 92 03 	sts	0x0392, r21	; 0x800392 <tmp_temperature+0x3>
    2086:	a5 e0       	ldi	r26, 0x05	; 5
    2088:	b0 e0       	ldi	r27, 0x00	; 0
    208a:	0e 94 58 18 	call	0x30b0	; 0x30b0 <__muluhisi3>
    208e:	6b 01       	movw	r12, r22
    2090:	7c 01       	movw	r14, r24
    2092:	e0 e8       	ldi	r30, 0x80	; 128
    2094:	ce 0e       	add	r12, r30
    2096:	d1 1c       	adc	r13, r1
    2098:	e1 1c       	adc	r14, r1
    209a:	f1 1c       	adc	r15, r1
    209c:	cd 2c       	mov	r12, r13
    209e:	de 2c       	mov	r13, r14
    20a0:	ef 2c       	mov	r14, r15
    20a2:	ff 24       	eor	r15, r15
    20a4:	e7 fc       	sbrc	r14, 7
    20a6:	fa 94       	dec	r15
    20a8:	01 15       	cp	r16, r1
    20aa:	11 05       	cpc	r17, r1
    20ac:	a1 f0       	breq	.+40     	; 0x20d6 <bmpe280_read_temp+0x13c>
    20ae:	20 97       	sbiw	r28, 0x00	; 0
    20b0:	91 f0       	breq	.+36     	; 0x20d6 <bmpe280_read_temp+0x13c>
    20b2:	c7 01       	movw	r24, r14
    20b4:	b6 01       	movw	r22, r12
    20b6:	24 e6       	ldi	r18, 0x64	; 100
    20b8:	30 e0       	ldi	r19, 0x00	; 0
    20ba:	40 e0       	ldi	r20, 0x00	; 0
    20bc:	50 e0       	ldi	r21, 0x00	; 0
    20be:	0e 94 33 18 	call	0x3066	; 0x3066 <__divmodsi4>
    20c2:	f8 01       	movw	r30, r16
    20c4:	20 83       	st	Z, r18
    20c6:	f4 e6       	ldi	r31, 0x64	; 100
    20c8:	2f 9f       	mul	r18, r31
    20ca:	c0 18       	sub	r12, r0
    20cc:	11 24       	eor	r1, r1
    20ce:	c8 82       	st	Y, r12
    20d0:	02 c0       	rjmp	.+4      	; 0x20d6 <bmpe280_read_temp+0x13c>
    20d2:	8f ef       	ldi	r24, 0xFF	; 255
    20d4:	01 c0       	rjmp	.+2      	; 0x20d8 <bmpe280_read_temp+0x13e>
    20d6:	80 e0       	ldi	r24, 0x00	; 0
    20d8:	df 91       	pop	r29
    20da:	cf 91       	pop	r28
    20dc:	1f 91       	pop	r17
    20de:	0f 91       	pop	r16
    20e0:	ff 90       	pop	r15
    20e2:	ef 90       	pop	r14
    20e4:	df 90       	pop	r13
    20e6:	cf 90       	pop	r12
    20e8:	bf 90       	pop	r11
    20ea:	af 90       	pop	r10
    20ec:	9f 90       	pop	r9
    20ee:	8f 90       	pop	r8
    20f0:	08 95       	ret

000020f2 <bmpe280_read_pressure>:
    20f2:	2f 92       	push	r2
    20f4:	3f 92       	push	r3
    20f6:	4f 92       	push	r4
    20f8:	5f 92       	push	r5
    20fa:	6f 92       	push	r6
    20fc:	7f 92       	push	r7
    20fe:	8f 92       	push	r8
    2100:	9f 92       	push	r9
    2102:	af 92       	push	r10
    2104:	bf 92       	push	r11
    2106:	cf 92       	push	r12
    2108:	df 92       	push	r13
    210a:	ef 92       	push	r14
    210c:	ff 92       	push	r15
    210e:	0f 93       	push	r16
    2110:	1f 93       	push	r17
    2112:	cf 93       	push	r28
    2114:	df 93       	push	r29
    2116:	cd b7       	in	r28, 0x3d	; 61
    2118:	de b7       	in	r29, 0x3e	; 62
    211a:	a6 97       	sbiw	r28, 0x26	; 38
    211c:	0f b6       	in	r0, 0x3f	; 63
    211e:	f8 94       	cli
    2120:	de bf       	out	0x3e, r29	; 62
    2122:	0f be       	out	0x3f, r0	; 63
    2124:	cd bf       	out	0x3d, r28	; 61
    2126:	9b 8f       	std	Y+27, r25	; 0x1b
    2128:	8a 8f       	std	Y+26, r24	; 0x1a
    212a:	7d 8f       	std	Y+29, r23	; 0x1d
    212c:	6c 8f       	std	Y+28, r22	; 0x1c
    212e:	60 e0       	ldi	r22, 0x00	; 0
    2130:	70 e0       	ldi	r23, 0x00	; 0
    2132:	80 e0       	ldi	r24, 0x00	; 0
    2134:	90 e0       	ldi	r25, 0x00	; 0
    2136:	0e 94 cd 0f 	call	0x1f9a	; 0x1f9a <bmpe280_read_temp>
    213a:	87 ef       	ldi	r24, 0xF7	; 247
    213c:	0e 94 a1 0e 	call	0x1d42	; 0x1d42 <bmpe280_read_3bytes>
    2140:	6b 83       	std	Y+3, r22	; 0x03
    2142:	7c 83       	std	Y+4, r23	; 0x04
    2144:	8d 83       	std	Y+5, r24	; 0x05
    2146:	9e 83       	std	Y+6, r25	; 0x06
    2148:	61 15       	cp	r22, r1
    214a:	71 05       	cpc	r23, r1
    214c:	80 48       	sbci	r24, 0x80	; 128
    214e:	91 05       	cpc	r25, r1
    2150:	09 f4       	brne	.+2      	; 0x2154 <bmpe280_read_pressure+0x62>
    2152:	10 c2       	rjmp	.+1056   	; 0x2574 <bmpe280_read_pressure+0x482>
    2154:	80 91 8f 03 	lds	r24, 0x038F	; 0x80038f <tmp_temperature>
    2158:	90 91 90 03 	lds	r25, 0x0390	; 0x800390 <tmp_temperature+0x1>
    215c:	a0 91 91 03 	lds	r26, 0x0391	; 0x800391 <tmp_temperature+0x2>
    2160:	b0 91 92 03 	lds	r27, 0x0392	; 0x800392 <tmp_temperature+0x3>
    2164:	6c 01       	movw	r12, r24
    2166:	7d 01       	movw	r14, r26
    2168:	ff 0c       	add	r15, r15
    216a:	cc 08       	sbc	r12, r12
    216c:	dc 2c       	mov	r13, r12
    216e:	76 01       	movw	r14, r12
    2170:	9c 01       	movw	r18, r24
    2172:	ad 01       	movw	r20, r26
    2174:	6c 2d       	mov	r22, r12
    2176:	7c 2d       	mov	r23, r12
    2178:	8c 2d       	mov	r24, r12
    217a:	9c 2d       	mov	r25, r12
    217c:	34 5f       	subi	r19, 0xF4	; 244
    217e:	41 40       	sbci	r20, 0x01	; 1
    2180:	51 09       	sbc	r21, r1
    2182:	61 09       	sbc	r22, r1
    2184:	71 09       	sbc	r23, r1
    2186:	81 09       	sbc	r24, r1
    2188:	91 09       	sbc	r25, r1
    218a:	2e 8f       	std	Y+30, r18	; 0x1e
    218c:	39 83       	std	Y+1, r19	; 0x01
    218e:	4a 83       	std	Y+2, r20	; 0x02
    2190:	65 2e       	mov	r6, r21
    2192:	76 2e       	mov	r7, r22
    2194:	87 2e       	mov	r8, r23
    2196:	98 2e       	mov	r9, r24
    2198:	9e a3       	std	Y+38, r25	; 0x26
    219a:	59 01       	movw	r10, r18
    219c:	c4 2e       	mov	r12, r20
    219e:	d5 2e       	mov	r13, r21
    21a0:	e6 2e       	mov	r14, r22
    21a2:	f7 2e       	mov	r15, r23
    21a4:	08 2f       	mov	r16, r24
    21a6:	19 2f       	mov	r17, r25
    21a8:	0e 94 6b 18 	call	0x30d6	; 0x30d6 <__muldi3>
    21ac:	22 2e       	mov	r2, r18
    21ae:	3b 8b       	std	Y+19, r19	; 0x13
    21b0:	4c 8b       	std	Y+20, r20	; 0x14
    21b2:	5d 8b       	std	Y+21, r21	; 0x15
    21b4:	6e 8b       	std	Y+22, r22	; 0x16
    21b6:	7f 8b       	std	Y+23, r23	; 0x17
    21b8:	88 8f       	std	Y+24, r24	; 0x18
    21ba:	99 8f       	std	Y+25, r25	; 0x19
    21bc:	30 91 77 03 	lds	r19, 0x0377	; 0x800377 <bmpe_calib+0x9>
    21c0:	20 91 76 03 	lds	r18, 0x0376	; 0x800376 <bmpe_calib+0x8>
    21c4:	93 2f       	mov	r25, r19
    21c6:	99 0f       	add	r25, r25
    21c8:	99 0b       	sbc	r25, r25
    21ca:	49 2f       	mov	r20, r25
    21cc:	59 2f       	mov	r21, r25
    21ce:	69 2f       	mov	r22, r25
    21d0:	79 2f       	mov	r23, r25
    21d2:	89 2f       	mov	r24, r25
    21d4:	0e 94 6b 18 	call	0x30d6	; 0x30d6 <__muldi3>
    21d8:	0c e0       	ldi	r16, 0x0C	; 12
    21da:	0e 94 9b 19 	call	0x3336	; 0x3336 <__ashldi3>
    21de:	32 2e       	mov	r3, r18
    21e0:	43 2e       	mov	r4, r19
    21e2:	54 2e       	mov	r5, r20
    21e4:	5f 83       	std	Y+7, r21	; 0x07
    21e6:	6f 87       	std	Y+15, r22	; 0x0f
    21e8:	78 8b       	std	Y+16, r23	; 0x10
    21ea:	89 8b       	std	Y+17, r24	; 0x11
    21ec:	9a 8b       	std	Y+18, r25	; 0x12
    21ee:	30 91 79 03 	lds	r19, 0x0379	; 0x800379 <bmpe_calib+0xb>
    21f2:	20 91 78 03 	lds	r18, 0x0378	; 0x800378 <bmpe_calib+0xa>
    21f6:	93 2f       	mov	r25, r19
    21f8:	99 0f       	add	r25, r25
    21fa:	99 0b       	sbc	r25, r25
    21fc:	a2 2c       	mov	r10, r2
    21fe:	bb 88       	ldd	r11, Y+19	; 0x13
    2200:	cc 88       	ldd	r12, Y+20	; 0x14
    2202:	dd 88       	ldd	r13, Y+21	; 0x15
    2204:	ee 88       	ldd	r14, Y+22	; 0x16
    2206:	ff 88       	ldd	r15, Y+23	; 0x17
    2208:	08 8d       	ldd	r16, Y+24	; 0x18
    220a:	19 8d       	ldd	r17, Y+25	; 0x19
    220c:	49 2f       	mov	r20, r25
    220e:	59 2f       	mov	r21, r25
    2210:	69 2f       	mov	r22, r25
    2212:	79 2f       	mov	r23, r25
    2214:	89 2f       	mov	r24, r25
    2216:	0e 94 6b 18 	call	0x30d6	; 0x30d6 <__muldi3>
    221a:	08 e0       	ldi	r16, 0x08	; 8
    221c:	0e 94 b4 19 	call	0x3368	; 0x3368 <__ashrdi3>
    2220:	a3 2c       	mov	r10, r3
    2222:	b4 2c       	mov	r11, r4
    2224:	c5 2c       	mov	r12, r5
    2226:	df 80       	ldd	r13, Y+7	; 0x07
    2228:	ef 84       	ldd	r14, Y+15	; 0x0f
    222a:	f8 88       	ldd	r15, Y+16	; 0x10
    222c:	09 89       	ldd	r16, Y+17	; 0x11
    222e:	1a 89       	ldd	r17, Y+18	; 0x12
    2230:	0e 94 d2 19 	call	0x33a4	; 0x33a4 <__adddi3>
    2234:	70 58       	subi	r23, 0x80	; 128
    2236:	8f 4f       	sbci	r24, 0xFF	; 255
    2238:	9f 4f       	sbci	r25, 0xFF	; 255
    223a:	e0 91 74 03 	lds	r30, 0x0374	; 0x800374 <bmpe_calib+0x6>
    223e:	f0 91 75 03 	lds	r31, 0x0375	; 0x800375 <bmpe_calib+0x7>
    2242:	5f 01       	movw	r10, r30
    2244:	c1 2c       	mov	r12, r1
    2246:	d1 2c       	mov	r13, r1
    2248:	e1 2c       	mov	r14, r1
    224a:	f1 2c       	mov	r15, r1
    224c:	87 01       	movw	r16, r14
    224e:	ef 83       	std	Y+7, r30	; 0x07
    2250:	b8 86       	std	Y+8, r11	; 0x08
    2252:	c9 86       	std	Y+9, r12	; 0x09
    2254:	da 86       	std	Y+10, r13	; 0x0a
    2256:	eb 86       	std	Y+11, r14	; 0x0b
    2258:	fc 86       	std	Y+12, r15	; 0x0c
    225a:	0d 87       	std	Y+13, r16	; 0x0d
    225c:	1e 87       	std	Y+14, r17	; 0x0e
    225e:	c1 2c       	mov	r12, r1
    2260:	d1 2c       	mov	r13, r1
    2262:	e1 2c       	mov	r14, r1
    2264:	f1 2c       	mov	r15, r1
    2266:	00 e0       	ldi	r16, 0x00	; 0
    2268:	10 e0       	ldi	r17, 0x00	; 0
    226a:	0e 94 6b 18 	call	0x30d6	; 0x30d6 <__muldi3>
    226e:	01 e2       	ldi	r16, 0x21	; 33
    2270:	0e 94 b4 19 	call	0x3368	; 0x3368 <__ashrdi3>
    2274:	2f 83       	std	Y+7, r18	; 0x07
    2276:	3f 87       	std	Y+15, r19	; 0x0f
    2278:	48 8b       	std	Y+16, r20	; 0x10
    227a:	59 8b       	std	Y+17, r21	; 0x11
    227c:	36 2e       	mov	r3, r22
    227e:	7a 8b       	std	Y+18, r23	; 0x12
    2280:	2c 01       	movw	r4, r24
    2282:	a0 e0       	ldi	r26, 0x00	; 0
    2284:	0e 94 e4 19 	call	0x33c8	; 0x33c8 <__cmpdi2_s8>
    2288:	09 f4       	brne	.+2      	; 0x228c <bmpe280_read_pressure+0x19a>
    228a:	74 c1       	rjmp	.+744    	; 0x2574 <bmpe280_read_pressure+0x482>
    228c:	30 91 7f 03 	lds	r19, 0x037F	; 0x80037f <bmpe_calib+0x11>
    2290:	20 91 7e 03 	lds	r18, 0x037E	; 0x80037e <bmpe_calib+0x10>
    2294:	93 2f       	mov	r25, r19
    2296:	99 0f       	add	r25, r25
    2298:	99 0b       	sbc	r25, r25
    229a:	a2 2c       	mov	r10, r2
    229c:	bb 88       	ldd	r11, Y+19	; 0x13
    229e:	cc 88       	ldd	r12, Y+20	; 0x14
    22a0:	dd 88       	ldd	r13, Y+21	; 0x15
    22a2:	ee 88       	ldd	r14, Y+22	; 0x16
    22a4:	ff 88       	ldd	r15, Y+23	; 0x17
    22a6:	08 8d       	ldd	r16, Y+24	; 0x18
    22a8:	19 8d       	ldd	r17, Y+25	; 0x19
    22aa:	49 2f       	mov	r20, r25
    22ac:	59 2f       	mov	r21, r25
    22ae:	69 2f       	mov	r22, r25
    22b0:	79 2f       	mov	r23, r25
    22b2:	89 2f       	mov	r24, r25
    22b4:	0e 94 6b 18 	call	0x30d6	; 0x30d6 <__muldi3>
    22b8:	22 2e       	mov	r2, r18
    22ba:	3b 8b       	std	Y+19, r19	; 0x13
    22bc:	4c 8b       	std	Y+20, r20	; 0x14
    22be:	5d 8b       	std	Y+21, r21	; 0x15
    22c0:	6e 8b       	std	Y+22, r22	; 0x16
    22c2:	7f 8b       	std	Y+23, r23	; 0x17
    22c4:	88 8f       	std	Y+24, r24	; 0x18
    22c6:	99 8f       	std	Y+25, r25	; 0x19
    22c8:	30 91 7d 03 	lds	r19, 0x037D	; 0x80037d <bmpe_calib+0xf>
    22cc:	20 91 7c 03 	lds	r18, 0x037C	; 0x80037c <bmpe_calib+0xe>
    22d0:	93 2f       	mov	r25, r19
    22d2:	99 0f       	add	r25, r25
    22d4:	99 0b       	sbc	r25, r25
    22d6:	ae 8c       	ldd	r10, Y+30	; 0x1e
    22d8:	b9 80       	ldd	r11, Y+1	; 0x01
    22da:	ca 80       	ldd	r12, Y+2	; 0x02
    22dc:	d6 2c       	mov	r13, r6
    22de:	e7 2c       	mov	r14, r7
    22e0:	f8 2c       	mov	r15, r8
    22e2:	09 2d       	mov	r16, r9
    22e4:	1e a1       	ldd	r17, Y+38	; 0x26
    22e6:	49 2f       	mov	r20, r25
    22e8:	59 2f       	mov	r21, r25
    22ea:	69 2f       	mov	r22, r25
    22ec:	79 2f       	mov	r23, r25
    22ee:	89 2f       	mov	r24, r25
    22f0:	0e 94 6b 18 	call	0x30d6	; 0x30d6 <__muldi3>
    22f4:	01 e1       	ldi	r16, 0x11	; 17
    22f6:	0e 94 9b 19 	call	0x3336	; 0x3336 <__ashldi3>
    22fa:	a2 2c       	mov	r10, r2
    22fc:	bb 88       	ldd	r11, Y+19	; 0x13
    22fe:	cc 88       	ldd	r12, Y+20	; 0x14
    2300:	dd 88       	ldd	r13, Y+21	; 0x15
    2302:	ee 88       	ldd	r14, Y+22	; 0x16
    2304:	ff 88       	ldd	r15, Y+23	; 0x17
    2306:	08 8d       	ldd	r16, Y+24	; 0x18
    2308:	19 8d       	ldd	r17, Y+25	; 0x19
    230a:	0e 94 d2 19 	call	0x33a4	; 0x33a4 <__adddi3>
    230e:	59 01       	movw	r10, r18
    2310:	6a 01       	movw	r12, r20
    2312:	7b 01       	movw	r14, r22
    2314:	68 2e       	mov	r6, r24
    2316:	29 2e       	mov	r2, r25
    2318:	4b 81       	ldd	r20, Y+3	; 0x03
    231a:	5c 81       	ldd	r21, Y+4	; 0x04
    231c:	6d 81       	ldd	r22, Y+5	; 0x05
    231e:	7e 81       	ldd	r23, Y+6	; 0x06
    2320:	24 e0       	ldi	r18, 0x04	; 4
    2322:	75 95       	asr	r23
    2324:	67 95       	ror	r22
    2326:	57 95       	ror	r21
    2328:	47 95       	ror	r20
    232a:	2a 95       	dec	r18
    232c:	d1 f7       	brne	.-12     	; 0x2322 <bmpe280_read_pressure+0x230>
    232e:	80 e0       	ldi	r24, 0x00	; 0
    2330:	90 e0       	ldi	r25, 0x00	; 0
    2332:	a0 e1       	ldi	r26, 0x10	; 16
    2334:	b0 e0       	ldi	r27, 0x00	; 0
    2336:	84 1b       	sub	r24, r20
    2338:	95 0b       	sbc	r25, r21
    233a:	a6 0b       	sbc	r26, r22
    233c:	b7 0b       	sbc	r27, r23
    233e:	8c 01       	movw	r16, r24
    2340:	9d 01       	movw	r18, r26
    2342:	40 e0       	ldi	r20, 0x00	; 0
    2344:	50 e0       	ldi	r21, 0x00	; 0
    2346:	ba 01       	movw	r22, r20
    2348:	8e 8f       	std	Y+30, r24	; 0x1e
    234a:	1f 8f       	std	Y+31, r17	; 0x1f
    234c:	28 a3       	std	Y+32, r18	; 0x20
    234e:	39 a3       	std	Y+33, r19	; 0x21
    2350:	4a a3       	std	Y+34, r20	; 0x22
    2352:	5b a3       	std	Y+35, r21	; 0x23
    2354:	6c a3       	std	Y+36, r22	; 0x24
    2356:	7d a3       	std	Y+37, r23	; 0x25
    2358:	9c 01       	movw	r18, r24
    235a:	48 a1       	ldd	r20, Y+32	; 0x20
    235c:	59 a1       	ldd	r21, Y+33	; 0x21
    235e:	60 e0       	ldi	r22, 0x00	; 0
    2360:	70 e0       	ldi	r23, 0x00	; 0
    2362:	80 e0       	ldi	r24, 0x00	; 0
    2364:	90 e0       	ldi	r25, 0x00	; 0
    2366:	0f e1       	ldi	r16, 0x1F	; 31
    2368:	0e 94 9b 19 	call	0x3336	; 0x3336 <__ashldi3>
    236c:	72 2e       	mov	r7, r18
    236e:	83 2e       	mov	r8, r19
    2370:	94 2e       	mov	r9, r20
    2372:	59 83       	std	Y+1, r21	; 0x01
    2374:	b6 2f       	mov	r27, r22
    2376:	a7 2f       	mov	r26, r23
    2378:	f8 2f       	mov	r31, r24
    237a:	e9 2f       	mov	r30, r25
    237c:	30 91 7b 03 	lds	r19, 0x037B	; 0x80037b <bmpe_calib+0xd>
    2380:	20 91 7a 03 	lds	r18, 0x037A	; 0x80037a <bmpe_calib+0xc>
    2384:	93 2f       	mov	r25, r19
    2386:	99 0f       	add	r25, r25
    2388:	99 0b       	sbc	r25, r25
    238a:	49 2f       	mov	r20, r25
    238c:	59 2f       	mov	r21, r25
    238e:	69 2f       	mov	r22, r25
    2390:	79 2f       	mov	r23, r25
    2392:	89 2f       	mov	r24, r25
    2394:	03 e2       	ldi	r16, 0x23	; 35
    2396:	0e 94 9b 19 	call	0x3336	; 0x3336 <__ashldi3>
    239a:	06 2d       	mov	r16, r6
    239c:	12 2d       	mov	r17, r2
    239e:	0e 94 d2 19 	call	0x33a4	; 0x33a4 <__adddi3>
    23a2:	59 01       	movw	r10, r18
    23a4:	6a 01       	movw	r12, r20
    23a6:	7b 01       	movw	r14, r22
    23a8:	8c 01       	movw	r16, r24
    23aa:	27 2d       	mov	r18, r7
    23ac:	38 2d       	mov	r19, r8
    23ae:	49 2d       	mov	r20, r9
    23b0:	59 81       	ldd	r21, Y+1	; 0x01
    23b2:	6b 2f       	mov	r22, r27
    23b4:	7a 2f       	mov	r23, r26
    23b6:	8f 2f       	mov	r24, r31
    23b8:	9e 2f       	mov	r25, r30
    23ba:	0e 94 db 19 	call	0x33b6	; 0x33b6 <__subdi3>
    23be:	e5 e3       	ldi	r30, 0x35	; 53
    23c0:	ae 2e       	mov	r10, r30
    23c2:	fc e0       	ldi	r31, 0x0C	; 12
    23c4:	bf 2e       	mov	r11, r31
    23c6:	c1 2c       	mov	r12, r1
    23c8:	d1 2c       	mov	r13, r1
    23ca:	e1 2c       	mov	r14, r1
    23cc:	f1 2c       	mov	r15, r1
    23ce:	00 e0       	ldi	r16, 0x00	; 0
    23d0:	10 e0       	ldi	r17, 0x00	; 0
    23d2:	0e 94 6b 18 	call	0x30d6	; 0x30d6 <__muldi3>
    23d6:	af 80       	ldd	r10, Y+7	; 0x07
    23d8:	bf 84       	ldd	r11, Y+15	; 0x0f
    23da:	c8 88       	ldd	r12, Y+16	; 0x10
    23dc:	d9 88       	ldd	r13, Y+17	; 0x11
    23de:	e3 2c       	mov	r14, r3
    23e0:	fa 88       	ldd	r15, Y+18	; 0x12
    23e2:	82 01       	movw	r16, r4
    23e4:	0e 94 c6 18 	call	0x318c	; 0x318c <__divdi3>
    23e8:	2a 8b       	std	Y+18, r18	; 0x12
    23ea:	39 8b       	std	Y+17, r19	; 0x11
    23ec:	49 83       	std	Y+1, r20	; 0x01
    23ee:	5a 83       	std	Y+2, r21	; 0x02
    23f0:	6b 83       	std	Y+3, r22	; 0x03
    23f2:	7f 83       	std	Y+7, r23	; 0x07
    23f4:	8f 87       	std	Y+15, r24	; 0x0f
    23f6:	98 8b       	std	Y+16, r25	; 0x10
    23f8:	0d e0       	ldi	r16, 0x0D	; 13
    23fa:	0e 94 b4 19 	call	0x3368	; 0x3368 <__ashrdi3>
    23fe:	92 2e       	mov	r9, r18
    2400:	83 2e       	mov	r8, r19
    2402:	74 2e       	mov	r7, r20
    2404:	65 2e       	mov	r6, r21
    2406:	56 2e       	mov	r5, r22
    2408:	47 2e       	mov	r4, r23
    240a:	38 2e       	mov	r3, r24
    240c:	29 2e       	mov	r2, r25
    240e:	30 91 85 03 	lds	r19, 0x0385	; 0x800385 <bmpe_calib+0x17>
    2412:	20 91 84 03 	lds	r18, 0x0384	; 0x800384 <bmpe_calib+0x16>
    2416:	93 2f       	mov	r25, r19
    2418:	99 0f       	add	r25, r25
    241a:	99 0b       	sbc	r25, r25
    241c:	a9 2c       	mov	r10, r9
    241e:	b8 2c       	mov	r11, r8
    2420:	c7 2c       	mov	r12, r7
    2422:	d6 2c       	mov	r13, r6
    2424:	e5 2c       	mov	r14, r5
    2426:	f4 2c       	mov	r15, r4
    2428:	03 2d       	mov	r16, r3
    242a:	12 2d       	mov	r17, r2
    242c:	49 2f       	mov	r20, r25
    242e:	59 2f       	mov	r21, r25
    2430:	69 2f       	mov	r22, r25
    2432:	79 2f       	mov	r23, r25
    2434:	89 2f       	mov	r24, r25
    2436:	0e 94 6b 18 	call	0x30d6	; 0x30d6 <__muldi3>
    243a:	0e 94 6b 18 	call	0x30d6	; 0x30d6 <__muldi3>
    243e:	09 e1       	ldi	r16, 0x19	; 25
    2440:	0e 94 b4 19 	call	0x3368	; 0x3368 <__ashrdi3>
    2444:	aa 88       	ldd	r10, Y+18	; 0x12
    2446:	b9 88       	ldd	r11, Y+17	; 0x11
    2448:	c9 80       	ldd	r12, Y+1	; 0x01
    244a:	da 80       	ldd	r13, Y+2	; 0x02
    244c:	eb 80       	ldd	r14, Y+3	; 0x03
    244e:	ff 80       	ldd	r15, Y+7	; 0x07
    2450:	0f 85       	ldd	r16, Y+15	; 0x0f
    2452:	18 89       	ldd	r17, Y+16	; 0x10
    2454:	0e 94 d2 19 	call	0x33a4	; 0x33a4 <__adddi3>
    2458:	19 01       	movw	r2, r18
    245a:	2a 01       	movw	r4, r20
    245c:	3b 01       	movw	r6, r22
    245e:	4c 01       	movw	r8, r24
    2460:	30 91 83 03 	lds	r19, 0x0383	; 0x800383 <bmpe_calib+0x15>
    2464:	20 91 82 03 	lds	r18, 0x0382	; 0x800382 <bmpe_calib+0x14>
    2468:	93 2f       	mov	r25, r19
    246a:	99 0f       	add	r25, r25
    246c:	99 0b       	sbc	r25, r25
    246e:	49 2f       	mov	r20, r25
    2470:	59 2f       	mov	r21, r25
    2472:	69 2f       	mov	r22, r25
    2474:	79 2f       	mov	r23, r25
    2476:	89 2f       	mov	r24, r25
    2478:	0e 94 6b 18 	call	0x30d6	; 0x30d6 <__muldi3>
    247c:	03 e1       	ldi	r16, 0x13	; 19
    247e:	0e 94 b4 19 	call	0x3368	; 0x3368 <__ashrdi3>
    2482:	59 01       	movw	r10, r18
    2484:	6a 01       	movw	r12, r20
    2486:	7b 01       	movw	r14, r22
    2488:	8c 01       	movw	r16, r24
    248a:	91 01       	movw	r18, r2
    248c:	a2 01       	movw	r20, r4
    248e:	b3 01       	movw	r22, r6
    2490:	c4 01       	movw	r24, r8
    2492:	0e 94 d2 19 	call	0x33a4	; 0x33a4 <__adddi3>
    2496:	08 e0       	ldi	r16, 0x08	; 8
    2498:	0e 94 b4 19 	call	0x3368	; 0x3368 <__ashrdi3>
    249c:	59 01       	movw	r10, r18
    249e:	6a 01       	movw	r12, r20
    24a0:	7b 01       	movw	r14, r22
    24a2:	e8 2f       	mov	r30, r24
    24a4:	19 2f       	mov	r17, r25
    24a6:	30 91 81 03 	lds	r19, 0x0381	; 0x800381 <bmpe_calib+0x13>
    24aa:	20 91 80 03 	lds	r18, 0x0380	; 0x800380 <bmpe_calib+0x12>
    24ae:	93 2f       	mov	r25, r19
    24b0:	99 0f       	add	r25, r25
    24b2:	99 0b       	sbc	r25, r25
    24b4:	49 2f       	mov	r20, r25
    24b6:	59 2f       	mov	r21, r25
    24b8:	69 2f       	mov	r22, r25
    24ba:	79 2f       	mov	r23, r25
    24bc:	89 2f       	mov	r24, r25
    24be:	04 e0       	ldi	r16, 0x04	; 4
    24c0:	0e 94 9b 19 	call	0x3336	; 0x3336 <__ashldi3>
    24c4:	0e 2f       	mov	r16, r30
    24c6:	0e 94 d2 19 	call	0x33a4	; 0x33a4 <__adddi3>
    24ca:	2f 87       	std	Y+15, r18	; 0x0f
    24cc:	3f 83       	std	Y+7, r19	; 0x07
    24ce:	b4 2f       	mov	r27, r20
    24d0:	f5 2f       	mov	r31, r21
    24d2:	e6 2f       	mov	r30, r22
    24d4:	79 83       	std	Y+1, r23	; 0x01
    24d6:	8a 83       	std	Y+2, r24	; 0x02
    24d8:	9b 83       	std	Y+3, r25	; 0x03
    24da:	69 01       	movw	r12, r18
    24dc:	e4 2e       	mov	r14, r20
    24de:	f5 2e       	mov	r15, r21
    24e0:	06 2f       	mov	r16, r22
    24e2:	17 2f       	mov	r17, r23
    24e4:	5c 01       	movw	r10, r24
    24e6:	a0 e0       	ldi	r26, 0x00	; 0
    24e8:	0e 94 e4 19 	call	0x33c8	; 0x33c8 <__cmpdi2_s8>
    24ec:	64 f4       	brge	.+24     	; 0x2506 <bmpe280_read_pressure+0x414>
    24ee:	21 50       	subi	r18, 0x01	; 1
    24f0:	3f 4f       	sbci	r19, 0xFF	; 255
    24f2:	4f 4f       	sbci	r20, 0xFF	; 255
    24f4:	5f 4f       	sbci	r21, 0xFF	; 255
    24f6:	6f 4f       	sbci	r22, 0xFF	; 255
    24f8:	7f 4f       	sbci	r23, 0xFF	; 255
    24fa:	8f 4f       	sbci	r24, 0xFF	; 255
    24fc:	9f 4f       	sbci	r25, 0xFF	; 255
    24fe:	69 01       	movw	r12, r18
    2500:	7a 01       	movw	r14, r20
    2502:	8b 01       	movw	r16, r22
    2504:	5c 01       	movw	r10, r24
    2506:	96 01       	movw	r18, r12
    2508:	a7 01       	movw	r20, r14
    250a:	b8 01       	movw	r22, r16
    250c:	c5 01       	movw	r24, r10
    250e:	08 e0       	ldi	r16, 0x08	; 8
    2510:	0e 94 b4 19 	call	0x3368	; 0x3368 <__ashrdi3>
    2514:	19 01       	movw	r2, r18
    2516:	2a 01       	movw	r4, r20
    2518:	2a 8d       	ldd	r18, Y+26	; 0x1a
    251a:	3b 8d       	ldd	r19, Y+27	; 0x1b
    251c:	23 2b       	or	r18, r19
    251e:	29 f1       	breq	.+74     	; 0x256a <bmpe280_read_pressure+0x478>
    2520:	4c 8d       	ldd	r20, Y+28	; 0x1c
    2522:	5d 8d       	ldd	r21, Y+29	; 0x1d
    2524:	45 2b       	or	r20, r21
    2526:	09 f1       	breq	.+66     	; 0x256a <bmpe280_read_pressure+0x478>
    2528:	a1 2c       	mov	r10, r1
    252a:	94 e6       	ldi	r25, 0x64	; 100
    252c:	b9 2e       	mov	r11, r25
    252e:	c1 2c       	mov	r12, r1
    2530:	d1 2c       	mov	r13, r1
    2532:	e1 2c       	mov	r14, r1
    2534:	f1 2c       	mov	r15, r1
    2536:	00 e0       	ldi	r16, 0x00	; 0
    2538:	10 e0       	ldi	r17, 0x00	; 0
    253a:	2f 85       	ldd	r18, Y+15	; 0x0f
    253c:	3f 81       	ldd	r19, Y+7	; 0x07
    253e:	4b 2f       	mov	r20, r27
    2540:	5f 2f       	mov	r21, r31
    2542:	6e 2f       	mov	r22, r30
    2544:	79 81       	ldd	r23, Y+1	; 0x01
    2546:	8a 81       	ldd	r24, Y+2	; 0x02
    2548:	9b 81       	ldd	r25, Y+3	; 0x03
    254a:	0e 94 c6 18 	call	0x318c	; 0x318c <__divdi3>
    254e:	c9 01       	movw	r24, r18
    2550:	aa 8d       	ldd	r26, Y+26	; 0x1a
    2552:	bb 8d       	ldd	r27, Y+27	; 0x1b
    2554:	2c 93       	st	X, r18
    2556:	11 96       	adiw	r26, 0x01	; 1
    2558:	9c 93       	st	X, r25
    255a:	e2 2d       	mov	r30, r2
    255c:	b4 e6       	ldi	r27, 0x64	; 100
    255e:	2b 9f       	mul	r18, r27
    2560:	e0 19       	sub	r30, r0
    2562:	11 24       	eor	r1, r1
    2564:	ac 8d       	ldd	r26, Y+28	; 0x1c
    2566:	bd 8d       	ldd	r27, Y+29	; 0x1d
    2568:	ec 93       	st	X, r30
    256a:	94 2d       	mov	r25, r4
    256c:	83 2d       	mov	r24, r3
    256e:	72 2d       	mov	r23, r2
    2570:	66 27       	eor	r22, r22
    2572:	04 c0       	rjmp	.+8      	; 0x257c <bmpe280_read_pressure+0x48a>
    2574:	6f ef       	ldi	r22, 0xFF	; 255
    2576:	70 e0       	ldi	r23, 0x00	; 0
    2578:	80 e0       	ldi	r24, 0x00	; 0
    257a:	90 e0       	ldi	r25, 0x00	; 0
    257c:	a6 96       	adiw	r28, 0x26	; 38
    257e:	0f b6       	in	r0, 0x3f	; 63
    2580:	f8 94       	cli
    2582:	de bf       	out	0x3e, r29	; 62
    2584:	0f be       	out	0x3f, r0	; 63
    2586:	cd bf       	out	0x3d, r28	; 61
    2588:	df 91       	pop	r29
    258a:	cf 91       	pop	r28
    258c:	1f 91       	pop	r17
    258e:	0f 91       	pop	r16
    2590:	ff 90       	pop	r15
    2592:	ef 90       	pop	r14
    2594:	df 90       	pop	r13
    2596:	cf 90       	pop	r12
    2598:	bf 90       	pop	r11
    259a:	af 90       	pop	r10
    259c:	9f 90       	pop	r9
    259e:	8f 90       	pop	r8
    25a0:	7f 90       	pop	r7
    25a2:	6f 90       	pop	r6
    25a4:	5f 90       	pop	r5
    25a6:	4f 90       	pop	r4
    25a8:	3f 90       	pop	r3
    25aa:	2f 90       	pop	r2
    25ac:	08 95       	ret

000025ae <bmpe280_read_humidity>:
    25ae:	4f 92       	push	r4
    25b0:	5f 92       	push	r5
    25b2:	6f 92       	push	r6
    25b4:	7f 92       	push	r7
    25b6:	8f 92       	push	r8
    25b8:	9f 92       	push	r9
    25ba:	af 92       	push	r10
    25bc:	bf 92       	push	r11
    25be:	cf 92       	push	r12
    25c0:	df 92       	push	r13
    25c2:	ef 92       	push	r14
    25c4:	ff 92       	push	r15
    25c6:	0f 93       	push	r16
    25c8:	1f 93       	push	r17
    25ca:	cf 93       	push	r28
    25cc:	df 93       	push	r29
    25ce:	8c 01       	movw	r16, r24
    25d0:	eb 01       	movw	r28, r22
    25d2:	80 ed       	ldi	r24, 0xD0	; 208
    25d4:	0e 94 62 0e 	call	0x1cc4	; 0x1cc4 <bmpe280_read_byte>
    25d8:	80 36       	cpi	r24, 0x60	; 96
    25da:	11 f0       	breq	.+4      	; 0x25e0 <bmpe280_read_humidity+0x32>
    25dc:	8f ef       	ldi	r24, 0xFF	; 255
    25de:	02 c1       	rjmp	.+516    	; 0x27e4 <bmpe280_read_humidity+0x236>
    25e0:	60 e0       	ldi	r22, 0x00	; 0
    25e2:	70 e0       	ldi	r23, 0x00	; 0
    25e4:	80 e0       	ldi	r24, 0x00	; 0
    25e6:	90 e0       	ldi	r25, 0x00	; 0
    25e8:	0e 94 cd 0f 	call	0x1f9a	; 0x1f9a <bmpe280_read_temp>
    25ec:	8d ef       	ldi	r24, 0xFD	; 253
    25ee:	0e 94 7a 0e 	call	0x1cf4	; 0x1cf4 <bmpe280_read_word>
    25f2:	a0 e0       	ldi	r26, 0x00	; 0
    25f4:	b0 e0       	ldi	r27, 0x00	; 0
    25f6:	81 15       	cp	r24, r1
    25f8:	20 e8       	ldi	r18, 0x80	; 128
    25fa:	92 07       	cpc	r25, r18
    25fc:	a1 05       	cpc	r26, r1
    25fe:	b1 05       	cpc	r27, r1
    2600:	69 f3       	breq	.-38     	; 0x25dc <bmpe280_read_humidity+0x2e>
    2602:	80 90 8f 03 	lds	r8, 0x038F	; 0x80038f <tmp_temperature>
    2606:	90 90 90 03 	lds	r9, 0x0390	; 0x800390 <tmp_temperature+0x1>
    260a:	a0 90 91 03 	lds	r10, 0x0391	; 0x800391 <tmp_temperature+0x2>
    260e:	b0 90 92 03 	lds	r11, 0x0392	; 0x800392 <tmp_temperature+0x3>
    2612:	3c e2       	ldi	r19, 0x2C	; 44
    2614:	93 1a       	sub	r9, r19
    2616:	31 e0       	ldi	r19, 0x01	; 1
    2618:	a3 0a       	sbc	r10, r19
    261a:	b1 08       	sbc	r11, r1
    261c:	3e e0       	ldi	r19, 0x0E	; 14
    261e:	88 0f       	add	r24, r24
    2620:	99 1f       	adc	r25, r25
    2622:	aa 1f       	adc	r26, r26
    2624:	bb 1f       	adc	r27, r27
    2626:	3a 95       	dec	r19
    2628:	d1 f7       	brne	.-12     	; 0x261e <bmpe280_read_humidity+0x70>
    262a:	40 91 8a 03 	lds	r20, 0x038A	; 0x80038a <bmpe_calib+0x1c>
    262e:	50 91 8b 03 	lds	r21, 0x038B	; 0x80038b <bmpe_calib+0x1d>
    2632:	05 2e       	mov	r0, r21
    2634:	00 0c       	add	r0, r0
    2636:	66 0b       	sbc	r22, r22
    2638:	77 0b       	sbc	r23, r23
    263a:	e4 e1       	ldi	r30, 0x14	; 20
    263c:	44 0f       	add	r20, r20
    263e:	55 1f       	adc	r21, r21
    2640:	66 1f       	adc	r22, r22
    2642:	77 1f       	adc	r23, r23
    2644:	ea 95       	dec	r30
    2646:	d1 f7       	brne	.-12     	; 0x263c <bmpe280_read_humidity+0x8e>
    2648:	6c 01       	movw	r12, r24
    264a:	7d 01       	movw	r14, r26
    264c:	c4 1a       	sub	r12, r20
    264e:	d5 0a       	sbc	r13, r21
    2650:	e6 0a       	sbc	r14, r22
    2652:	f7 0a       	sbc	r15, r23
    2654:	a0 91 8c 03 	lds	r26, 0x038C	; 0x80038c <bmpe_calib+0x1e>
    2658:	b0 91 8d 03 	lds	r27, 0x038D	; 0x80038d <bmpe_calib+0x1f>
    265c:	a5 01       	movw	r20, r10
    265e:	94 01       	movw	r18, r8
    2660:	0e 94 63 18 	call	0x30c6	; 0x30c6 <__mulshisi3>
    2664:	c6 1a       	sub	r12, r22
    2666:	d7 0a       	sbc	r13, r23
    2668:	e8 0a       	sbc	r14, r24
    266a:	f9 0a       	sbc	r15, r25
    266c:	40 e4       	ldi	r20, 0x40	; 64
    266e:	d4 0e       	add	r13, r20
    2670:	e1 1c       	adc	r14, r1
    2672:	f1 1c       	adc	r15, r1
    2674:	ff e0       	ldi	r31, 0x0F	; 15
    2676:	f5 94       	asr	r15
    2678:	e7 94       	ror	r14
    267a:	d7 94       	ror	r13
    267c:	c7 94       	ror	r12
    267e:	fa 95       	dec	r31
    2680:	d1 f7       	brne	.-12     	; 0x2676 <bmpe280_read_humidity+0xc8>
    2682:	a0 91 89 03 	lds	r26, 0x0389	; 0x800389 <bmpe_calib+0x1b>
    2686:	b0 e0       	ldi	r27, 0x00	; 0
    2688:	a5 01       	movw	r20, r10
    268a:	94 01       	movw	r18, r8
    268c:	0e 94 58 18 	call	0x30b0	; 0x30b0 <__muluhisi3>
    2690:	2b 01       	movw	r4, r22
    2692:	3c 01       	movw	r6, r24
    2694:	ab e0       	ldi	r26, 0x0B	; 11
    2696:	75 94       	asr	r7
    2698:	67 94       	ror	r6
    269a:	57 94       	ror	r5
    269c:	47 94       	ror	r4
    269e:	aa 95       	dec	r26
    26a0:	d1 f7       	brne	.-12     	; 0x2696 <bmpe280_read_humidity+0xe8>
    26a2:	50 e8       	ldi	r21, 0x80	; 128
    26a4:	55 0e       	add	r5, r21
    26a6:	61 1c       	adc	r6, r1
    26a8:	71 1c       	adc	r7, r1
    26aa:	a0 91 8e 03 	lds	r26, 0x038E	; 0x80038e <bmpe_calib+0x20>
    26ae:	0a 2e       	mov	r0, r26
    26b0:	00 0c       	add	r0, r0
    26b2:	bb 0b       	sbc	r27, r27
    26b4:	a5 01       	movw	r20, r10
    26b6:	94 01       	movw	r18, r8
    26b8:	0e 94 63 18 	call	0x30c6	; 0x30c6 <__mulshisi3>
    26bc:	ba e0       	ldi	r27, 0x0A	; 10
    26be:	95 95       	asr	r25
    26c0:	87 95       	ror	r24
    26c2:	77 95       	ror	r23
    26c4:	67 95       	ror	r22
    26c6:	ba 95       	dec	r27
    26c8:	d1 f7       	brne	.-12     	; 0x26be <bmpe280_read_humidity+0x110>
    26ca:	a3 01       	movw	r20, r6
    26cc:	92 01       	movw	r18, r4
    26ce:	0e 94 01 18 	call	0x3002	; 0x3002 <__mulsi3>
    26d2:	dc 01       	movw	r26, r24
    26d4:	cb 01       	movw	r24, r22
    26d6:	2a e0       	ldi	r18, 0x0A	; 10
    26d8:	b5 95       	asr	r27
    26da:	a7 95       	ror	r26
    26dc:	97 95       	ror	r25
    26de:	87 95       	ror	r24
    26e0:	2a 95       	dec	r18
    26e2:	d1 f7       	brne	.-12     	; 0x26d8 <bmpe280_read_humidity+0x12a>
    26e4:	9c 01       	movw	r18, r24
    26e6:	ad 01       	movw	r20, r26
    26e8:	40 5e       	subi	r20, 0xE0	; 224
    26ea:	5f 4f       	sbci	r21, 0xFF	; 255
    26ec:	a0 91 87 03 	lds	r26, 0x0387	; 0x800387 <bmpe_calib+0x19>
    26f0:	b0 91 88 03 	lds	r27, 0x0388	; 0x800388 <bmpe_calib+0x1a>
    26f4:	0e 94 63 18 	call	0x30c6	; 0x30c6 <__mulshisi3>
    26f8:	dc 01       	movw	r26, r24
    26fa:	cb 01       	movw	r24, r22
    26fc:	90 5e       	subi	r25, 0xE0	; 224
    26fe:	af 4f       	sbci	r26, 0xFF	; 255
    2700:	bf 4f       	sbci	r27, 0xFF	; 255
    2702:	bc 01       	movw	r22, r24
    2704:	cd 01       	movw	r24, r26
    2706:	3e e0       	ldi	r19, 0x0E	; 14
    2708:	95 95       	asr	r25
    270a:	87 95       	ror	r24
    270c:	77 95       	ror	r23
    270e:	67 95       	ror	r22
    2710:	3a 95       	dec	r19
    2712:	d1 f7       	brne	.-12     	; 0x2708 <bmpe280_read_humidity+0x15a>
    2714:	a7 01       	movw	r20, r14
    2716:	96 01       	movw	r18, r12
    2718:	0e 94 01 18 	call	0x3002	; 0x3002 <__mulsi3>
    271c:	6b 01       	movw	r12, r22
    271e:	7c 01       	movw	r14, r24
    2720:	4f e0       	ldi	r20, 0x0F	; 15
    2722:	95 95       	asr	r25
    2724:	87 95       	ror	r24
    2726:	77 95       	ror	r23
    2728:	67 95       	ror	r22
    272a:	4a 95       	dec	r20
    272c:	d1 f7       	brne	.-12     	; 0x2722 <bmpe280_read_humidity+0x174>
    272e:	9b 01       	movw	r18, r22
    2730:	ac 01       	movw	r20, r24
    2732:	0e 94 01 18 	call	0x3002	; 0x3002 <__mulsi3>
    2736:	9b 01       	movw	r18, r22
    2738:	ac 01       	movw	r20, r24
    273a:	67 e0       	ldi	r22, 0x07	; 7
    273c:	55 95       	asr	r21
    273e:	47 95       	ror	r20
    2740:	37 95       	ror	r19
    2742:	27 95       	ror	r18
    2744:	6a 95       	dec	r22
    2746:	d1 f7       	brne	.-12     	; 0x273c <bmpe280_read_humidity+0x18e>
    2748:	a0 91 86 03 	lds	r26, 0x0386	; 0x800386 <bmpe_calib+0x18>
    274c:	b0 e0       	ldi	r27, 0x00	; 0
    274e:	0e 94 58 18 	call	0x30b0	; 0x30b0 <__muluhisi3>
    2752:	dc 01       	movw	r26, r24
    2754:	cb 01       	movw	r24, r22
    2756:	74 e0       	ldi	r23, 0x04	; 4
    2758:	b5 95       	asr	r27
    275a:	a7 95       	ror	r26
    275c:	97 95       	ror	r25
    275e:	87 95       	ror	r24
    2760:	7a 95       	dec	r23
    2762:	d1 f7       	brne	.-12     	; 0x2758 <bmpe280_read_humidity+0x1aa>
    2764:	a7 01       	movw	r20, r14
    2766:	96 01       	movw	r18, r12
    2768:	28 1b       	sub	r18, r24
    276a:	39 0b       	sbc	r19, r25
    276c:	4a 0b       	sbc	r20, r26
    276e:	5b 0b       	sbc	r21, r27
    2770:	da 01       	movw	r26, r20
    2772:	c9 01       	movw	r24, r18
    2774:	57 ff       	sbrs	r21, 7
    2776:	03 c0       	rjmp	.+6      	; 0x277e <bmpe280_read_humidity+0x1d0>
    2778:	80 e0       	ldi	r24, 0x00	; 0
    277a:	90 e0       	ldi	r25, 0x00	; 0
    277c:	dc 01       	movw	r26, r24
    277e:	81 30       	cpi	r24, 0x01	; 1
    2780:	91 05       	cpc	r25, r1
    2782:	a1 05       	cpc	r26, r1
    2784:	39 e1       	ldi	r19, 0x19	; 25
    2786:	b3 07       	cpc	r27, r19
    2788:	24 f0       	brlt	.+8      	; 0x2792 <bmpe280_read_humidity+0x1e4>
    278a:	80 e0       	ldi	r24, 0x00	; 0
    278c:	90 e0       	ldi	r25, 0x00	; 0
    278e:	a0 e0       	ldi	r26, 0x00	; 0
    2790:	b9 e1       	ldi	r27, 0x19	; 25
    2792:	9c 01       	movw	r18, r24
    2794:	ad 01       	movw	r20, r26
    2796:	8c e0       	ldi	r24, 0x0C	; 12
    2798:	55 95       	asr	r21
    279a:	47 95       	ror	r20
    279c:	37 95       	ror	r19
    279e:	27 95       	ror	r18
    27a0:	8a 95       	dec	r24
    27a2:	d1 f7       	brne	.-12     	; 0x2798 <bmpe280_read_humidity+0x1ea>
    27a4:	a4 e6       	ldi	r26, 0x64	; 100
    27a6:	b0 e0       	ldi	r27, 0x00	; 0
    27a8:	0e 94 58 18 	call	0x30b0	; 0x30b0 <__muluhisi3>
    27ac:	6b 01       	movw	r12, r22
    27ae:	7c 01       	movw	r14, r24
    27b0:	2a e0       	ldi	r18, 0x0A	; 10
    27b2:	f6 94       	lsr	r15
    27b4:	e7 94       	ror	r14
    27b6:	d7 94       	ror	r13
    27b8:	c7 94       	ror	r12
    27ba:	2a 95       	dec	r18
    27bc:	d1 f7       	brne	.-12     	; 0x27b2 <bmpe280_read_humidity+0x204>
    27be:	01 15       	cp	r16, r1
    27c0:	11 05       	cpc	r17, r1
    27c2:	79 f0       	breq	.+30     	; 0x27e2 <bmpe280_read_humidity+0x234>
    27c4:	20 97       	sbiw	r28, 0x00	; 0
    27c6:	69 f0       	breq	.+26     	; 0x27e2 <bmpe280_read_humidity+0x234>
    27c8:	20 e0       	ldi	r18, 0x00	; 0
    27ca:	30 e9       	ldi	r19, 0x90	; 144
    27cc:	41 e0       	ldi	r20, 0x01	; 1
    27ce:	50 e0       	ldi	r21, 0x00	; 0
    27d0:	0e 94 11 18 	call	0x3022	; 0x3022 <__udivmodsi4>
    27d4:	f8 01       	movw	r30, r16
    27d6:	20 83       	st	Z, r18
    27d8:	f4 e6       	ldi	r31, 0x64	; 100
    27da:	2f 9f       	mul	r18, r31
    27dc:	c0 18       	sub	r12, r0
    27de:	11 24       	eor	r1, r1
    27e0:	c8 82       	st	Y, r12
    27e2:	80 e0       	ldi	r24, 0x00	; 0
    27e4:	df 91       	pop	r29
    27e6:	cf 91       	pop	r28
    27e8:	1f 91       	pop	r17
    27ea:	0f 91       	pop	r16
    27ec:	ff 90       	pop	r15
    27ee:	ef 90       	pop	r14
    27f0:	df 90       	pop	r13
    27f2:	cf 90       	pop	r12
    27f4:	bf 90       	pop	r11
    27f6:	af 90       	pop	r10
    27f8:	9f 90       	pop	r9
    27fa:	8f 90       	pop	r8
    27fc:	7f 90       	pop	r7
    27fe:	6f 90       	pop	r6
    2800:	5f 90       	pop	r5
    2802:	4f 90       	pop	r4
    2804:	08 95       	ret

00002806 <i2c__start>:
    2806:	80 91 04 08 	lds	r24, 0x0804	; 0x800804 <i2c_error_flag>
    280a:	88 23       	and	r24, r24
    280c:	39 f0       	breq	.+14     	; 0x281c <i2c__start+0x16>
    280e:	e0 91 93 03 	lds	r30, 0x0393	; 0x800393 <i2c_damage_callback>
    2812:	f0 91 94 03 	lds	r31, 0x0394	; 0x800394 <i2c_damage_callback+0x1>
    2816:	30 97       	sbiw	r30, 0x00	; 0
    2818:	09 f0       	breq	.+2      	; 0x281c <i2c__start+0x16>
    281a:	09 95       	icall
    281c:	84 ea       	ldi	r24, 0xA4	; 164
    281e:	86 bf       	out	0x36, r24	; 54
    2820:	8f ef       	ldi	r24, 0xFF	; 255
    2822:	9f ef       	ldi	r25, 0xFF	; 255
    2824:	90 93 64 00 	sts	0x0064, r25	; 0x800064 <i2c_tmo+0x1>
    2828:	80 93 63 00 	sts	0x0063, r24	; 0x800063 <i2c_tmo>
    282c:	06 b6       	in	r0, 0x36	; 54
    282e:	07 fc       	sbrc	r0, 7
    2830:	0f c0       	rjmp	.+30     	; 0x2850 <i2c__start+0x4a>
    2832:	80 91 63 00 	lds	r24, 0x0063	; 0x800063 <i2c_tmo>
    2836:	90 91 64 00 	lds	r25, 0x0064	; 0x800064 <i2c_tmo+0x1>
    283a:	01 97       	sbiw	r24, 0x01	; 1
    283c:	90 93 64 00 	sts	0x0064, r25	; 0x800064 <i2c_tmo+0x1>
    2840:	80 93 63 00 	sts	0x0063, r24	; 0x800063 <i2c_tmo>
    2844:	89 2b       	or	r24, r25
    2846:	91 f7       	brne	.-28     	; 0x282c <i2c__start+0x26>
    2848:	81 e0       	ldi	r24, 0x01	; 1
    284a:	80 93 04 08 	sts	0x0804, r24	; 0x800804 <i2c_error_flag>
    284e:	08 95       	ret
    2850:	08 95       	ret

00002852 <i2c__stop>:
    2852:	80 91 04 08 	lds	r24, 0x0804	; 0x800804 <i2c_error_flag>
    2856:	88 23       	and	r24, r24
    2858:	39 f0       	breq	.+14     	; 0x2868 <i2c__stop+0x16>
    285a:	e0 91 93 03 	lds	r30, 0x0393	; 0x800393 <i2c_damage_callback>
    285e:	f0 91 94 03 	lds	r31, 0x0394	; 0x800394 <i2c_damage_callback+0x1>
    2862:	30 97       	sbiw	r30, 0x00	; 0
    2864:	09 f0       	breq	.+2      	; 0x2868 <i2c__stop+0x16>
    2866:	09 95       	icall
    2868:	84 e9       	ldi	r24, 0x94	; 148
    286a:	86 bf       	out	0x36, r24	; 54
    286c:	8f ef       	ldi	r24, 0xFF	; 255
    286e:	9f ef       	ldi	r25, 0xFF	; 255
    2870:	90 93 64 00 	sts	0x0064, r25	; 0x800064 <i2c_tmo+0x1>
    2874:	80 93 63 00 	sts	0x0063, r24	; 0x800063 <i2c_tmo>
    2878:	06 b6       	in	r0, 0x36	; 54
    287a:	04 fe       	sbrs	r0, 4
    287c:	0f c0       	rjmp	.+30     	; 0x289c <i2c__stop+0x4a>
    287e:	80 91 63 00 	lds	r24, 0x0063	; 0x800063 <i2c_tmo>
    2882:	90 91 64 00 	lds	r25, 0x0064	; 0x800064 <i2c_tmo+0x1>
    2886:	01 97       	sbiw	r24, 0x01	; 1
    2888:	90 93 64 00 	sts	0x0064, r25	; 0x800064 <i2c_tmo+0x1>
    288c:	80 93 63 00 	sts	0x0063, r24	; 0x800063 <i2c_tmo>
    2890:	89 2b       	or	r24, r25
    2892:	91 f7       	brne	.-28     	; 0x2878 <i2c__stop+0x26>
    2894:	81 e0       	ldi	r24, 0x01	; 1
    2896:	80 93 04 08 	sts	0x0804, r24	; 0x800804 <i2c_error_flag>
    289a:	08 95       	ret
    289c:	08 95       	ret

0000289e <i2c_write>:
    289e:	cf 93       	push	r28
    28a0:	c8 2f       	mov	r28, r24
    28a2:	80 91 04 08 	lds	r24, 0x0804	; 0x800804 <i2c_error_flag>
    28a6:	88 23       	and	r24, r24
    28a8:	39 f0       	breq	.+14     	; 0x28b8 <i2c_write+0x1a>
    28aa:	e0 91 93 03 	lds	r30, 0x0393	; 0x800393 <i2c_damage_callback>
    28ae:	f0 91 94 03 	lds	r31, 0x0394	; 0x800394 <i2c_damage_callback+0x1>
    28b2:	30 97       	sbiw	r30, 0x00	; 0
    28b4:	09 f0       	breq	.+2      	; 0x28b8 <i2c_write+0x1a>
    28b6:	09 95       	icall
    28b8:	c3 b9       	out	0x03, r28	; 3
    28ba:	84 e8       	ldi	r24, 0x84	; 132
    28bc:	86 bf       	out	0x36, r24	; 54
    28be:	8f ef       	ldi	r24, 0xFF	; 255
    28c0:	9f ef       	ldi	r25, 0xFF	; 255
    28c2:	90 93 64 00 	sts	0x0064, r25	; 0x800064 <i2c_tmo+0x1>
    28c6:	80 93 63 00 	sts	0x0063, r24	; 0x800063 <i2c_tmo>
    28ca:	06 b6       	in	r0, 0x36	; 54
    28cc:	07 fc       	sbrc	r0, 7
    28ce:	0e c0       	rjmp	.+28     	; 0x28ec <i2c_write+0x4e>
    28d0:	80 91 63 00 	lds	r24, 0x0063	; 0x800063 <i2c_tmo>
    28d4:	90 91 64 00 	lds	r25, 0x0064	; 0x800064 <i2c_tmo+0x1>
    28d8:	01 97       	sbiw	r24, 0x01	; 1
    28da:	90 93 64 00 	sts	0x0064, r25	; 0x800064 <i2c_tmo+0x1>
    28de:	80 93 63 00 	sts	0x0063, r24	; 0x800063 <i2c_tmo>
    28e2:	89 2b       	or	r24, r25
    28e4:	91 f7       	brne	.-28     	; 0x28ca <i2c_write+0x2c>
    28e6:	81 e0       	ldi	r24, 0x01	; 1
    28e8:	80 93 04 08 	sts	0x0804, r24	; 0x800804 <i2c_error_flag>
    28ec:	91 b1       	in	r25, 0x01	; 1
    28ee:	98 7f       	andi	r25, 0xF8	; 248
    28f0:	81 e0       	ldi	r24, 0x01	; 1
    28f2:	98 31       	cpi	r25, 0x18	; 24
    28f4:	09 f0       	breq	.+2      	; 0x28f8 <i2c_write+0x5a>
    28f6:	80 e0       	ldi	r24, 0x00	; 0
    28f8:	cf 91       	pop	r28
    28fa:	08 95       	ret

000028fc <i2c_read>:
    28fc:	cf 93       	push	r28
    28fe:	c8 2f       	mov	r28, r24
    2900:	80 91 04 08 	lds	r24, 0x0804	; 0x800804 <i2c_error_flag>
    2904:	88 23       	and	r24, r24
    2906:	39 f0       	breq	.+14     	; 0x2916 <i2c_read+0x1a>
    2908:	e0 91 93 03 	lds	r30, 0x0393	; 0x800393 <i2c_damage_callback>
    290c:	f0 91 94 03 	lds	r31, 0x0394	; 0x800394 <i2c_damage_callback+0x1>
    2910:	30 97       	sbiw	r30, 0x00	; 0
    2912:	09 f0       	breq	.+2      	; 0x2916 <i2c_read+0x1a>
    2914:	09 95       	icall
    2916:	20 e4       	ldi	r18, 0x40	; 64
    2918:	c2 9f       	mul	r28, r18
    291a:	c0 01       	movw	r24, r0
    291c:	11 24       	eor	r1, r1
    291e:	84 68       	ori	r24, 0x84	; 132
    2920:	86 bf       	out	0x36, r24	; 54
    2922:	8f ef       	ldi	r24, 0xFF	; 255
    2924:	9f ef       	ldi	r25, 0xFF	; 255
    2926:	90 93 64 00 	sts	0x0064, r25	; 0x800064 <i2c_tmo+0x1>
    292a:	80 93 63 00 	sts	0x0063, r24	; 0x800063 <i2c_tmo>
    292e:	06 b6       	in	r0, 0x36	; 54
    2930:	07 fc       	sbrc	r0, 7
    2932:	0e c0       	rjmp	.+28     	; 0x2950 <i2c_read+0x54>
    2934:	80 91 63 00 	lds	r24, 0x0063	; 0x800063 <i2c_tmo>
    2938:	90 91 64 00 	lds	r25, 0x0064	; 0x800064 <i2c_tmo+0x1>
    293c:	01 97       	sbiw	r24, 0x01	; 1
    293e:	90 93 64 00 	sts	0x0064, r25	; 0x800064 <i2c_tmo+0x1>
    2942:	80 93 63 00 	sts	0x0063, r24	; 0x800063 <i2c_tmo>
    2946:	89 2b       	or	r24, r25
    2948:	91 f7       	brne	.-28     	; 0x292e <i2c_read+0x32>
    294a:	81 e0       	ldi	r24, 0x01	; 1
    294c:	80 93 04 08 	sts	0x0804, r24	; 0x800804 <i2c_error_flag>
    2950:	83 b1       	in	r24, 0x03	; 3
    2952:	cf 91       	pop	r28
    2954:	08 95       	ret

00002956 <mk_press_hum_init>:
    2956:	0c 94 d3 0e 	jmp	0x1da6	; 0x1da6 <bmpe280_init>

0000295a <mkp_read_temp>:
    295a:	9b 01       	movw	r18, r22
    295c:	86 70       	andi	r24, 0x06	; 6
    295e:	21 f0       	breq	.+8      	; 0x2968 <mkp_read_temp+0xe>
    2960:	ba 01       	movw	r22, r20
    2962:	c9 01       	movw	r24, r18
    2964:	0c 94 cd 0f 	jmp	0x1f9a	; 0x1f9a <bmpe280_read_temp>
    2968:	8f ef       	ldi	r24, 0xFF	; 255
    296a:	08 95       	ret

0000296c <mkp_read_pressure>:
    296c:	9b 01       	movw	r18, r22
    296e:	86 70       	andi	r24, 0x06	; 6
    2970:	31 f0       	breq	.+12     	; 0x297e <mkp_read_pressure+0x12>
    2972:	ba 01       	movw	r22, r20
    2974:	c9 01       	movw	r24, r18
    2976:	0e 94 79 10 	call	0x20f2	; 0x20f2 <bmpe280_read_pressure>
    297a:	86 2f       	mov	r24, r22
    297c:	08 95       	ret
    297e:	8f ef       	ldi	r24, 0xFF	; 255
    2980:	08 95       	ret

00002982 <mkp_read_humidity>:
    2982:	9b 01       	movw	r18, r22
    2984:	82 ff       	sbrs	r24, 2
    2986:	04 c0       	rjmp	.+8      	; 0x2990 <mkp_read_humidity+0xe>
    2988:	ba 01       	movw	r22, r20
    298a:	c9 01       	movw	r24, r18
    298c:	0c 94 d7 12 	jmp	0x25ae	; 0x25ae <bmpe280_read_humidity>
    2990:	8f ef       	ldi	r24, 0xFF	; 255
    2992:	08 95       	ret

00002994 <i2c_init>:
    2994:	11 b8       	out	0x01, r1	; 1
    2996:	8f e2       	ldi	r24, 0x2F	; 47
    2998:	80 b9       	out	0x00, r24	; 0
    299a:	84 e0       	ldi	r24, 0x04	; 4
    299c:	86 bf       	out	0x36, r24	; 54
    299e:	08 95       	ret

000029a0 <i2c_start>:
    29a0:	94 ea       	ldi	r25, 0xA4	; 164
    29a2:	96 bf       	out	0x36, r25	; 54
    29a4:	2c ed       	ldi	r18, 0xDC	; 220
    29a6:	30 e0       	ldi	r19, 0x00	; 0
    29a8:	06 b6       	in	r0, 0x36	; 54
    29aa:	07 fc       	sbrc	r0, 7
    29ac:	07 c0       	rjmp	.+14     	; 0x29bc <i2c_start+0x1c>
    29ae:	21 50       	subi	r18, 0x01	; 1
    29b0:	31 09       	sbc	r19, r1
    29b2:	d1 f7       	brne	.-12     	; 0x29a8 <i2c_start+0x8>
    29b4:	80 91 05 08 	lds	r24, 0x0805	; 0x800805 <I2C_ErrorCode>
    29b8:	81 60       	ori	r24, 0x01	; 1
    29ba:	0d c0       	rjmp	.+26     	; 0x29d6 <i2c_start+0x36>
    29bc:	83 b9       	out	0x03, r24	; 3
    29be:	84 e8       	ldi	r24, 0x84	; 132
    29c0:	86 bf       	out	0x36, r24	; 54
    29c2:	8c ed       	ldi	r24, 0xDC	; 220
    29c4:	90 e0       	ldi	r25, 0x00	; 0
    29c6:	06 b6       	in	r0, 0x36	; 54
    29c8:	07 fc       	sbrc	r0, 7
    29ca:	08 c0       	rjmp	.+16     	; 0x29dc <i2c_start+0x3c>
    29cc:	01 97       	sbiw	r24, 0x01	; 1
    29ce:	d9 f7       	brne	.-10     	; 0x29c6 <i2c_start+0x26>
    29d0:	80 91 05 08 	lds	r24, 0x0805	; 0x800805 <I2C_ErrorCode>
    29d4:	82 60       	ori	r24, 0x02	; 2
    29d6:	80 93 05 08 	sts	0x0805, r24	; 0x800805 <I2C_ErrorCode>
    29da:	08 95       	ret
    29dc:	08 95       	ret

000029de <i2c_stop>:
    29de:	84 e9       	ldi	r24, 0x94	; 148
    29e0:	86 bf       	out	0x36, r24	; 54
    29e2:	08 95       	ret

000029e4 <i2c_byte>:
    29e4:	83 b9       	out	0x03, r24	; 3
    29e6:	84 e8       	ldi	r24, 0x84	; 132
    29e8:	86 bf       	out	0x36, r24	; 54
    29ea:	8c ed       	ldi	r24, 0xDC	; 220
    29ec:	90 e0       	ldi	r25, 0x00	; 0
    29ee:	06 b6       	in	r0, 0x36	; 54
    29f0:	07 fc       	sbrc	r0, 7
    29f2:	08 c0       	rjmp	.+16     	; 0x2a04 <i2c_byte+0x20>
    29f4:	01 97       	sbiw	r24, 0x01	; 1
    29f6:	d9 f7       	brne	.-10     	; 0x29ee <i2c_byte+0xa>
    29f8:	80 91 05 08 	lds	r24, 0x0805	; 0x800805 <I2C_ErrorCode>
    29fc:	84 60       	ori	r24, 0x04	; 4
    29fe:	80 93 05 08 	sts	0x0805, r24	; 0x800805 <I2C_ErrorCode>
    2a02:	08 95       	ret
    2a04:	08 95       	ret

00002a06 <lcd_command>:
    2a06:	ff 92       	push	r15
    2a08:	0f 93       	push	r16
    2a0a:	1f 93       	push	r17
    2a0c:	cf 93       	push	r28
    2a0e:	df 93       	push	r29
    2a10:	f8 2e       	mov	r15, r24
    2a12:	09 2f       	mov	r16, r25
    2a14:	16 2f       	mov	r17, r22
    2a16:	88 e7       	ldi	r24, 0x78	; 120
    2a18:	0e 94 d0 14 	call	0x29a0	; 0x29a0 <i2c_start>
    2a1c:	80 e0       	ldi	r24, 0x00	; 0
    2a1e:	0e 94 f2 14 	call	0x29e4	; 0x29e4 <i2c_byte>
    2a22:	cf 2d       	mov	r28, r15
    2a24:	d0 2f       	mov	r29, r16
    2a26:	ce 01       	movw	r24, r28
    2a28:	81 0f       	add	r24, r17
    2a2a:	91 1d       	adc	r25, r1
    2a2c:	8c 01       	movw	r16, r24
    2a2e:	c0 17       	cp	r28, r16
    2a30:	d1 07       	cpc	r29, r17
    2a32:	21 f0       	breq	.+8      	; 0x2a3c <lcd_command+0x36>
    2a34:	89 91       	ld	r24, Y+
    2a36:	0e 94 f2 14 	call	0x29e4	; 0x29e4 <i2c_byte>
    2a3a:	f9 cf       	rjmp	.-14     	; 0x2a2e <lcd_command+0x28>
    2a3c:	df 91       	pop	r29
    2a3e:	cf 91       	pop	r28
    2a40:	1f 91       	pop	r17
    2a42:	0f 91       	pop	r16
    2a44:	ff 90       	pop	r15
    2a46:	0c 94 ef 14 	jmp	0x29de	; 0x29de <i2c_stop>

00002a4a <lcd_goto_xpix_y.part.0>:
    2a4a:	cf 93       	push	r28
    2a4c:	df 93       	push	r29
    2a4e:	00 d0       	rcall	.+0      	; 0x2a50 <lcd_goto_xpix_y.part.0+0x6>
    2a50:	00 d0       	rcall	.+0      	; 0x2a52 <lcd_goto_xpix_y.part.0+0x8>
    2a52:	1f 92       	push	r1
    2a54:	cd b7       	in	r28, 0x3d	; 61
    2a56:	de b7       	in	r29, 0x3e	; 62
    2a58:	e5 e9       	ldi	r30, 0x95	; 149
    2a5a:	f7 e0       	ldi	r31, 0x07	; 7
    2a5c:	80 83       	st	Z, r24
    2a5e:	61 83       	std	Z+1, r22	; 0x01
    2a60:	60 55       	subi	r22, 0x50	; 80
    2a62:	69 83       	std	Y+1, r22	; 0x01
    2a64:	91 e2       	ldi	r25, 0x21	; 33
    2a66:	9a 83       	std	Y+2, r25	; 0x02
    2a68:	92 e0       	ldi	r25, 0x02	; 2
    2a6a:	98 0f       	add	r25, r24
    2a6c:	9f 70       	andi	r25, 0x0F	; 15
    2a6e:	9b 83       	std	Y+3, r25	; 0x03
    2a70:	90 e0       	ldi	r25, 0x00	; 0
    2a72:	02 96       	adiw	r24, 0x02	; 2
    2a74:	80 7f       	andi	r24, 0xF0	; 240
    2a76:	99 27       	eor	r25, r25
    2a78:	24 e0       	ldi	r18, 0x04	; 4
    2a7a:	95 95       	asr	r25
    2a7c:	87 95       	ror	r24
    2a7e:	2a 95       	dec	r18
    2a80:	e1 f7       	brne	.-8      	; 0x2a7a <lcd_goto_xpix_y.part.0+0x30>
    2a82:	80 5f       	subi	r24, 0xF0	; 240
    2a84:	8c 83       	std	Y+4, r24	; 0x04
    2a86:	8f e7       	ldi	r24, 0x7F	; 127
    2a88:	8d 83       	std	Y+5, r24	; 0x05
    2a8a:	65 e0       	ldi	r22, 0x05	; 5
    2a8c:	ce 01       	movw	r24, r28
    2a8e:	01 96       	adiw	r24, 0x01	; 1
    2a90:	0e 94 03 15 	call	0x2a06	; 0x2a06 <lcd_command>
    2a94:	0f 90       	pop	r0
    2a96:	0f 90       	pop	r0
    2a98:	0f 90       	pop	r0
    2a9a:	0f 90       	pop	r0
    2a9c:	0f 90       	pop	r0
    2a9e:	df 91       	pop	r29
    2aa0:	cf 91       	pop	r28
    2aa2:	08 95       	ret

00002aa4 <lcd_data>:
    2aa4:	ef 92       	push	r14
    2aa6:	ff 92       	push	r15
    2aa8:	0f 93       	push	r16
    2aaa:	1f 93       	push	r17
    2aac:	cf 93       	push	r28
    2aae:	df 93       	push	r29
    2ab0:	7c 01       	movw	r14, r24
    2ab2:	8b 01       	movw	r16, r22
    2ab4:	88 e7       	ldi	r24, 0x78	; 120
    2ab6:	0e 94 d0 14 	call	0x29a0	; 0x29a0 <i2c_start>
    2aba:	80 e4       	ldi	r24, 0x40	; 64
    2abc:	0e 94 f2 14 	call	0x29e4	; 0x29e4 <i2c_byte>
    2ac0:	e7 01       	movw	r28, r14
    2ac2:	0e 0d       	add	r16, r14
    2ac4:	1f 1d       	adc	r17, r15
    2ac6:	c0 17       	cp	r28, r16
    2ac8:	d1 07       	cpc	r29, r17
    2aca:	21 f0       	breq	.+8      	; 0x2ad4 <lcd_data+0x30>
    2acc:	89 91       	ld	r24, Y+
    2ace:	0e 94 f2 14 	call	0x29e4	; 0x29e4 <i2c_byte>
    2ad2:	f9 cf       	rjmp	.-14     	; 0x2ac6 <lcd_data+0x22>
    2ad4:	df 91       	pop	r29
    2ad6:	cf 91       	pop	r28
    2ad8:	1f 91       	pop	r17
    2ada:	0f 91       	pop	r16
    2adc:	ff 90       	pop	r15
    2ade:	ef 90       	pop	r14
    2ae0:	0c 94 ef 14 	jmp	0x29de	; 0x29de <i2c_stop>

00002ae4 <lcd_goto_xpix_y>:
    2ae4:	81 38       	cpi	r24, 0x81	; 129
    2ae6:	20 f4       	brcc	.+8      	; 0x2af0 <lcd_goto_xpix_y+0xc>
    2ae8:	68 30       	cpi	r22, 0x08	; 8
    2aea:	10 f4       	brcc	.+4      	; 0x2af0 <lcd_goto_xpix_y+0xc>
    2aec:	0c 94 25 15 	jmp	0x2a4a	; 0x2a4a <lcd_goto_xpix_y.part.0>
    2af0:	08 95       	ret

00002af2 <lcd_gotoxy>:
    2af2:	98 2f       	mov	r25, r24
    2af4:	99 0f       	add	r25, r25
    2af6:	89 0f       	add	r24, r25
    2af8:	88 0f       	add	r24, r24
    2afa:	0c 94 72 15 	jmp	0x2ae4	; 0x2ae4 <lcd_goto_xpix_y>

00002afe <lcd_home>:
    2afe:	60 e0       	ldi	r22, 0x00	; 0
    2b00:	80 e0       	ldi	r24, 0x00	; 0
    2b02:	0c 94 25 15 	jmp	0x2a4a	; 0x2a4a <lcd_goto_xpix_y.part.0>

00002b06 <lcd_clrscr>:
    2b06:	0f 93       	push	r16
    2b08:	1f 93       	push	r17
    2b0a:	cf 93       	push	r28
    2b0c:	df 93       	push	r29
    2b0e:	05 e9       	ldi	r16, 0x95	; 149
    2b10:	13 e0       	ldi	r17, 0x03	; 3
    2b12:	c0 e0       	ldi	r28, 0x00	; 0
    2b14:	d0 e8       	ldi	r29, 0x80	; 128
    2b16:	f8 01       	movw	r30, r16
    2b18:	8d 2f       	mov	r24, r29
    2b1a:	11 92       	st	Z+, r1
    2b1c:	8a 95       	dec	r24
    2b1e:	e9 f7       	brne	.-6      	; 0x2b1a <lcd_clrscr+0x14>
    2b20:	6c 2f       	mov	r22, r28
    2b22:	80 e0       	ldi	r24, 0x00	; 0
    2b24:	0e 94 72 15 	call	0x2ae4	; 0x2ae4 <lcd_goto_xpix_y>
    2b28:	60 e8       	ldi	r22, 0x80	; 128
    2b2a:	70 e0       	ldi	r23, 0x00	; 0
    2b2c:	c8 01       	movw	r24, r16
    2b2e:	0e 94 52 15 	call	0x2aa4	; 0x2aa4 <lcd_data>
    2b32:	cf 5f       	subi	r28, 0xFF	; 255
    2b34:	00 58       	subi	r16, 0x80	; 128
    2b36:	1f 4f       	sbci	r17, 0xFF	; 255
    2b38:	c8 30       	cpi	r28, 0x08	; 8
    2b3a:	69 f7       	brne	.-38     	; 0x2b16 <lcd_clrscr+0x10>
    2b3c:	df 91       	pop	r29
    2b3e:	cf 91       	pop	r28
    2b40:	1f 91       	pop	r17
    2b42:	0f 91       	pop	r16
    2b44:	0c 94 7f 15 	jmp	0x2afe	; 0x2afe <lcd_home>

00002b48 <lcd_oled_init>:
    2b48:	1f 93       	push	r17
    2b4a:	cf 93       	push	r28
    2b4c:	df 93       	push	r29
    2b4e:	cd b7       	in	r28, 0x3d	; 61
    2b50:	de b7       	in	r29, 0x3e	; 62
    2b52:	6c 97       	sbiw	r28, 0x1c	; 28
    2b54:	0f b6       	in	r0, 0x3f	; 63
    2b56:	f8 94       	cli
    2b58:	de bf       	out	0x3e, r29	; 62
    2b5a:	0f be       	out	0x3f, r0	; 63
    2b5c:	cd bf       	out	0x3d, r28	; 61
    2b5e:	18 2f       	mov	r17, r24
    2b60:	0e 94 ca 14 	call	0x2994	; 0x2994 <i2c_init>
    2b64:	ec eb       	ldi	r30, 0xBC	; 188
    2b66:	f4 e0       	ldi	r31, 0x04	; 4
    2b68:	de 01       	movw	r26, r28
    2b6a:	11 96       	adiw	r26, 0x01	; 1
    2b6c:	9e 01       	movw	r18, r28
    2b6e:	24 5e       	subi	r18, 0xE4	; 228
    2b70:	3f 4f       	sbci	r19, 0xFF	; 255
    2b72:	cd 01       	movw	r24, r26
    2b74:	44 91       	lpm	r20, Z
    2b76:	4d 93       	st	X+, r20
    2b78:	31 96       	adiw	r30, 0x01	; 1
    2b7a:	a2 17       	cp	r26, r18
    2b7c:	b3 07       	cpc	r27, r19
    2b7e:	d1 f7       	brne	.-12     	; 0x2b74 <lcd_oled_init+0x2c>
    2b80:	1c 8f       	std	Y+28, r17	; 0x1c
    2b82:	6c e1       	ldi	r22, 0x1C	; 28
    2b84:	0e 94 03 15 	call	0x2a06	; 0x2a06 <lcd_command>
    2b88:	0e 94 83 15 	call	0x2b06	; 0x2b06 <lcd_clrscr>
    2b8c:	6c 96       	adiw	r28, 0x1c	; 28
    2b8e:	0f b6       	in	r0, 0x3f	; 63
    2b90:	f8 94       	cli
    2b92:	de bf       	out	0x3e, r29	; 62
    2b94:	0f be       	out	0x3f, r0	; 63
    2b96:	cd bf       	out	0x3d, r28	; 61
    2b98:	df 91       	pop	r29
    2b9a:	cf 91       	pop	r28
    2b9c:	1f 91       	pop	r17
    2b9e:	08 95       	ret

00002ba0 <lcd_sleep>:
    2ba0:	cf 93       	push	r28
    2ba2:	df 93       	push	r29
    2ba4:	1f 92       	push	r1
    2ba6:	cd b7       	in	r28, 0x3d	; 61
    2ba8:	de b7       	in	r29, 0x3e	; 62
    2baa:	81 30       	cpi	r24, 0x01	; 1
    2bac:	11 f0       	breq	.+4      	; 0x2bb2 <lcd_sleep+0x12>
    2bae:	8f ea       	ldi	r24, 0xAF	; 175
    2bb0:	01 c0       	rjmp	.+2      	; 0x2bb4 <lcd_sleep+0x14>
    2bb2:	8e ea       	ldi	r24, 0xAE	; 174
    2bb4:	89 83       	std	Y+1, r24	; 0x01
    2bb6:	61 e0       	ldi	r22, 0x01	; 1
    2bb8:	ce 01       	movw	r24, r28
    2bba:	01 96       	adiw	r24, 0x01	; 1
    2bbc:	0e 94 03 15 	call	0x2a06	; 0x2a06 <lcd_command>
    2bc0:	0f 90       	pop	r0
    2bc2:	df 91       	pop	r29
    2bc4:	cf 91       	pop	r28
    2bc6:	08 95       	ret

00002bc8 <lcd_set_contrast>:
    2bc8:	cf 93       	push	r28
    2bca:	df 93       	push	r29
    2bcc:	00 d0       	rcall	.+0      	; 0x2bce <lcd_set_contrast+0x6>
    2bce:	cd b7       	in	r28, 0x3d	; 61
    2bd0:	de b7       	in	r29, 0x3e	; 62
    2bd2:	91 e8       	ldi	r25, 0x81	; 129
    2bd4:	99 83       	std	Y+1, r25	; 0x01
    2bd6:	8a 83       	std	Y+2, r24	; 0x02
    2bd8:	62 e0       	ldi	r22, 0x02	; 2
    2bda:	ce 01       	movw	r24, r28
    2bdc:	01 96       	adiw	r24, 0x01	; 1
    2bde:	0e 94 03 15 	call	0x2a06	; 0x2a06 <lcd_command>
    2be2:	0f 90       	pop	r0
    2be4:	0f 90       	pop	r0
    2be6:	df 91       	pop	r29
    2be8:	cf 91       	pop	r28
    2bea:	08 95       	ret

00002bec <lcd_putc>:
    2bec:	4f 92       	push	r4
    2bee:	5f 92       	push	r5
    2bf0:	6f 92       	push	r6
    2bf2:	7f 92       	push	r7
    2bf4:	8f 92       	push	r8
    2bf6:	9f 92       	push	r9
    2bf8:	af 92       	push	r10
    2bfa:	bf 92       	push	r11
    2bfc:	cf 92       	push	r12
    2bfe:	df 92       	push	r13
    2c00:	ef 92       	push	r14
    2c02:	ff 92       	push	r15
    2c04:	0f 93       	push	r16
    2c06:	1f 93       	push	r17
    2c08:	cf 93       	push	r28
    2c0a:	df 93       	push	r29
    2c0c:	cd b7       	in	r28, 0x3d	; 61
    2c0e:	de b7       	in	r29, 0x3e	; 62
    2c10:	2c 97       	sbiw	r28, 0x0c	; 12
    2c12:	0f b6       	in	r0, 0x3f	; 63
    2c14:	f8 94       	cli
    2c16:	de bf       	out	0x3e, r29	; 62
    2c18:	0f be       	out	0x3f, r0	; 63
    2c1a:	cd bf       	out	0x3d, r28	; 61
    2c1c:	89 30       	cpi	r24, 0x09	; 9
    2c1e:	09 f1       	breq	.+66     	; 0x2c62 <lcd_putc+0x76>
    2c20:	b8 f4       	brcc	.+46     	; 0x2c50 <lcd_putc+0x64>
    2c22:	88 30       	cpi	r24, 0x08	; 8
    2c24:	09 f0       	breq	.+2      	; 0x2c28 <lcd_putc+0x3c>
    2c26:	73 c0       	rjmp	.+230    	; 0x2d0e <lcd_putc+0x122>
    2c28:	80 91 95 07 	lds	r24, 0x0795	; 0x800795 <cursorPosition>
    2c2c:	90 91 65 00 	lds	r25, 0x0065	; 0x800065 <charMode>
    2c30:	60 91 96 07 	lds	r22, 0x0796	; 0x800796 <cursorPosition+0x1>
    2c34:	89 1b       	sub	r24, r25
    2c36:	0e 94 79 15 	call	0x2af2	; 0x2af2 <lcd_gotoxy>
    2c3a:	80 e2       	ldi	r24, 0x20	; 32
    2c3c:	0e 94 f6 15 	call	0x2bec	; 0x2bec <lcd_putc>
    2c40:	80 91 95 07 	lds	r24, 0x0795	; 0x800795 <cursorPosition>
    2c44:	90 91 65 00 	lds	r25, 0x0065	; 0x800065 <charMode>
    2c48:	60 91 96 07 	lds	r22, 0x0796	; 0x800796 <cursorPosition+0x1>
    2c4c:	89 1b       	sub	r24, r25
    2c4e:	20 c0       	rjmp	.+64     	; 0x2c90 <lcd_putc+0xa4>
    2c50:	8a 30       	cpi	r24, 0x0A	; 10
    2c52:	d1 f1       	breq	.+116    	; 0x2cc8 <lcd_putc+0xdc>
    2c54:	8d 30       	cpi	r24, 0x0D	; 13
    2c56:	09 f0       	breq	.+2      	; 0x2c5a <lcd_putc+0x6e>
    2c58:	5a c0       	rjmp	.+180    	; 0x2d0e <lcd_putc+0x122>
    2c5a:	60 91 96 07 	lds	r22, 0x0796	; 0x800796 <cursorPosition+0x1>
    2c5e:	80 e0       	ldi	r24, 0x00	; 0
    2c60:	3e c0       	rjmp	.+124    	; 0x2cde <lcd_putc+0xf2>
    2c62:	80 91 95 07 	lds	r24, 0x0795	; 0x800795 <cursorPosition>
    2c66:	90 91 65 00 	lds	r25, 0x0065	; 0x800065 <charMode>
    2c6a:	24 e0       	ldi	r18, 0x04	; 4
    2c6c:	92 9f       	mul	r25, r18
    2c6e:	a0 01       	movw	r20, r0
    2c70:	11 24       	eor	r1, r1
    2c72:	ba 01       	movw	r22, r20
    2c74:	68 0f       	add	r22, r24
    2c76:	71 1d       	adc	r23, r1
    2c78:	25 e1       	ldi	r18, 0x15	; 21
    2c7a:	30 e0       	ldi	r19, 0x00	; 0
    2c7c:	24 1b       	sub	r18, r20
    2c7e:	35 0b       	sbc	r19, r21
    2c80:	62 17       	cp	r22, r18
    2c82:	73 07       	cpc	r23, r19
    2c84:	e8 f4       	brcc	.+58     	; 0x2cc0 <lcd_putc+0xd4>
    2c86:	99 0f       	add	r25, r25
    2c88:	99 0f       	add	r25, r25
    2c8a:	60 91 96 07 	lds	r22, 0x0796	; 0x800796 <cursorPosition+0x1>
    2c8e:	89 0f       	add	r24, r25
    2c90:	2c 96       	adiw	r28, 0x0c	; 12
    2c92:	0f b6       	in	r0, 0x3f	; 63
    2c94:	f8 94       	cli
    2c96:	de bf       	out	0x3e, r29	; 62
    2c98:	0f be       	out	0x3f, r0	; 63
    2c9a:	cd bf       	out	0x3d, r28	; 61
    2c9c:	df 91       	pop	r29
    2c9e:	cf 91       	pop	r28
    2ca0:	1f 91       	pop	r17
    2ca2:	0f 91       	pop	r16
    2ca4:	ff 90       	pop	r15
    2ca6:	ef 90       	pop	r14
    2ca8:	df 90       	pop	r13
    2caa:	cf 90       	pop	r12
    2cac:	bf 90       	pop	r11
    2cae:	af 90       	pop	r10
    2cb0:	9f 90       	pop	r9
    2cb2:	8f 90       	pop	r8
    2cb4:	7f 90       	pop	r7
    2cb6:	6f 90       	pop	r6
    2cb8:	5f 90       	pop	r5
    2cba:	4f 90       	pop	r4
    2cbc:	0c 94 79 15 	jmp	0x2af2	; 0x2af2 <lcd_gotoxy>
    2cc0:	60 91 96 07 	lds	r22, 0x0796	; 0x800796 <cursorPosition+0x1>
    2cc4:	8e e7       	ldi	r24, 0x7E	; 126
    2cc6:	0b c0       	rjmp	.+22     	; 0x2cde <lcd_putc+0xf2>
    2cc8:	60 91 96 07 	lds	r22, 0x0796	; 0x800796 <cursorPosition+0x1>
    2ccc:	67 30       	cpi	r22, 0x07	; 7
    2cce:	08 f0       	brcs	.+2      	; 0x2cd2 <lcd_putc+0xe6>
    2cd0:	f3 c0       	rjmp	.+486    	; 0x2eb8 <lcd_putc+0x2cc>
    2cd2:	80 91 65 00 	lds	r24, 0x0065	; 0x800065 <charMode>
    2cd6:	68 0f       	add	r22, r24
    2cd8:	80 91 95 07 	lds	r24, 0x0795	; 0x800795 <cursorPosition>
    2cdc:	d9 cf       	rjmp	.-78     	; 0x2c90 <lcd_putc+0xa4>
    2cde:	2c 96       	adiw	r28, 0x0c	; 12
    2ce0:	0f b6       	in	r0, 0x3f	; 63
    2ce2:	f8 94       	cli
    2ce4:	de bf       	out	0x3e, r29	; 62
    2ce6:	0f be       	out	0x3f, r0	; 63
    2ce8:	cd bf       	out	0x3d, r28	; 61
    2cea:	df 91       	pop	r29
    2cec:	cf 91       	pop	r28
    2cee:	1f 91       	pop	r17
    2cf0:	0f 91       	pop	r16
    2cf2:	ff 90       	pop	r15
    2cf4:	ef 90       	pop	r14
    2cf6:	df 90       	pop	r13
    2cf8:	cf 90       	pop	r12
    2cfa:	bf 90       	pop	r11
    2cfc:	af 90       	pop	r10
    2cfe:	9f 90       	pop	r9
    2d00:	8f 90       	pop	r8
    2d02:	7f 90       	pop	r7
    2d04:	6f 90       	pop	r6
    2d06:	5f 90       	pop	r5
    2d08:	4f 90       	pop	r4
    2d0a:	0c 94 72 15 	jmp	0x2ae4	; 0x2ae4 <lcd_goto_xpix_y>
    2d0e:	90 91 95 07 	lds	r25, 0x0795	; 0x800795 <cursorPosition>
    2d12:	9a 37       	cpi	r25, 0x7A	; 122
    2d14:	08 f0       	brcs	.+2      	; 0x2d18 <lcd_putc+0x12c>
    2d16:	d0 c0       	rjmp	.+416    	; 0x2eb8 <lcd_putc+0x2cc>
    2d18:	80 32       	cpi	r24, 0x20	; 32
    2d1a:	08 f4       	brcc	.+2      	; 0x2d1e <lcd_putc+0x132>
    2d1c:	cd c0       	rjmp	.+410    	; 0x2eb8 <lcd_putc+0x2cc>
    2d1e:	80 52       	subi	r24, 0x20	; 32
    2d20:	e9 e2       	ldi	r30, 0x29	; 41
    2d22:	f2 e0       	ldi	r31, 0x02	; 2
    2d24:	e4 91       	lpm	r30, Z
    2d26:	8e 17       	cp	r24, r30
    2d28:	f8 f0       	brcs	.+62     	; 0x2d68 <lcd_putc+0x17c>
    2d2a:	60 e0       	ldi	r22, 0x00	; 0
    2d2c:	68 2e       	mov	r6, r24
    2d2e:	71 2c       	mov	r7, r1
    2d30:	46 2f       	mov	r20, r22
    2d32:	50 e0       	ldi	r21, 0x00	; 0
    2d34:	44 0f       	add	r20, r20
    2d36:	55 1f       	adc	r21, r21
    2d38:	9a 01       	movw	r18, r20
    2d3a:	27 5d       	subi	r18, 0xD7	; 215
    2d3c:	3d 4f       	sbci	r19, 0xFD	; 253
    2d3e:	f9 01       	movw	r30, r18
    2d40:	84 91       	lpm	r24, Z
    2d42:	8f 3f       	cpi	r24, 0xFF	; 255
    2d44:	09 f4       	brne	.+2      	; 0x2d48 <lcd_putc+0x15c>
    2d46:	b8 c0       	rjmp	.+368    	; 0x2eb8 <lcd_putc+0x2cc>
    2d48:	fa 01       	movw	r30, r20
    2d4a:	e8 5d       	subi	r30, 0xD8	; 216
    2d4c:	fd 4f       	sbci	r31, 0xFD	; 253
    2d4e:	e4 91       	lpm	r30, Z
    2d50:	f0 e0       	ldi	r31, 0x00	; 0
    2d52:	b0 97       	sbiw	r30, 0x20	; 32
    2d54:	e6 15       	cp	r30, r6
    2d56:	f7 05       	cpc	r31, r7
    2d58:	29 f4       	brne	.+10     	; 0x2d64 <lcd_putc+0x178>
    2d5a:	f9 01       	movw	r30, r18
    2d5c:	84 91       	lpm	r24, Z
    2d5e:	8f 3f       	cpi	r24, 0xFF	; 255
    2d60:	19 f4       	brne	.+6      	; 0x2d68 <lcd_putc+0x17c>
    2d62:	aa c0       	rjmp	.+340    	; 0x2eb8 <lcd_putc+0x2cc>
    2d64:	6f 5f       	subi	r22, 0xFF	; 255
    2d66:	e4 cf       	rjmp	.-56     	; 0x2d30 <lcd_putc+0x144>
    2d68:	40 91 65 00 	lds	r20, 0x0065	; 0x800065 <charMode>
    2d6c:	29 2f       	mov	r18, r25
    2d6e:	30 e0       	ldi	r19, 0x00	; 0
    2d70:	42 30       	cpi	r20, 0x02	; 2
    2d72:	09 f0       	breq	.+2      	; 0x2d76 <lcd_putc+0x18a>
    2d74:	80 c0       	rjmp	.+256    	; 0x2e76 <lcd_putc+0x28a>
    2d76:	a9 01       	movw	r20, r18
    2d78:	44 5f       	subi	r20, 0xF4	; 244
    2d7a:	5f 4f       	sbci	r21, 0xFF	; 255
    2d7c:	41 38       	cpi	r20, 0x81	; 129
    2d7e:	51 05       	cpc	r21, r1
    2d80:	08 f0       	brcs	.+2      	; 0x2d84 <lcd_putc+0x198>
    2d82:	9a c0       	rjmp	.+308    	; 0x2eb8 <lcd_putc+0x2cc>
    2d84:	de 01       	movw	r26, r28
    2d86:	11 96       	adiw	r26, 0x01	; 1
    2d88:	f6 e0       	ldi	r31, 0x06	; 6
    2d8a:	8f 9f       	mul	r24, r31
    2d8c:	30 01       	movw	r6, r0
    2d8e:	11 24       	eor	r1, r1
    2d90:	ad 01       	movw	r20, r26
    2d92:	00 e0       	ldi	r16, 0x00	; 0
    2d94:	10 e0       	ldi	r17, 0x00	; 0
    2d96:	cc 24       	eor	r12, r12
    2d98:	c3 94       	inc	r12
    2d9a:	d1 2c       	mov	r13, r1
    2d9c:	fa 01       	movw	r30, r20
    2d9e:	11 82       	std	Z+1, r1	; 0x01
    2da0:	10 82       	st	Z, r1
    2da2:	f8 01       	movw	r30, r16
    2da4:	e6 0d       	add	r30, r6
    2da6:	f7 1d       	adc	r31, r7
    2da8:	e0 5c       	subi	r30, 0xC0	; 192
    2daa:	fd 4f       	sbci	r31, 0xFD	; 253
    2dac:	84 90       	lpm	r8, Z
    2dae:	44 24       	eor	r4, r4
    2db0:	43 94       	inc	r4
    2db2:	51 2c       	mov	r5, r1
    2db4:	60 e0       	ldi	r22, 0x00	; 0
    2db6:	70 e0       	ldi	r23, 0x00	; 0
    2db8:	91 2c       	mov	r9, r1
    2dba:	74 01       	movw	r14, r8
    2dbc:	06 2e       	mov	r0, r22
    2dbe:	02 c0       	rjmp	.+4      	; 0x2dc4 <lcd_putc+0x1d8>
    2dc0:	f5 94       	asr	r15
    2dc2:	e7 94       	ror	r14
    2dc4:	0a 94       	dec	r0
    2dc6:	e2 f7       	brpl	.-8      	; 0x2dc0 <lcd_putc+0x1d4>
    2dc8:	e0 fe       	sbrs	r14, 0
    2dca:	1b c0       	rjmp	.+54     	; 0x2e02 <lcd_putc+0x216>
    2dcc:	fa 01       	movw	r30, r20
    2dce:	a0 80       	ld	r10, Z
    2dd0:	b1 80       	ldd	r11, Z+1	; 0x01
    2dd2:	76 01       	movw	r14, r12
    2dd4:	04 2c       	mov	r0, r4
    2dd6:	02 c0       	rjmp	.+4      	; 0x2ddc <lcd_putc+0x1f0>
    2dd8:	ee 0c       	add	r14, r14
    2dda:	ff 1c       	adc	r15, r15
    2ddc:	0a 94       	dec	r0
    2dde:	e2 f7       	brpl	.-8      	; 0x2dd8 <lcd_putc+0x1ec>
    2de0:	ae 28       	or	r10, r14
    2de2:	bf 28       	or	r11, r15
    2de4:	7b 01       	movw	r14, r22
    2de6:	ee 0c       	add	r14, r14
    2de8:	ff 1c       	adc	r15, r15
    2dea:	f6 01       	movw	r30, r12
    2dec:	02 c0       	rjmp	.+4      	; 0x2df2 <lcd_putc+0x206>
    2dee:	ee 0f       	add	r30, r30
    2df0:	ff 1f       	adc	r31, r31
    2df2:	ea 94       	dec	r14
    2df4:	e2 f7       	brpl	.-8      	; 0x2dee <lcd_putc+0x202>
    2df6:	7f 01       	movw	r14, r30
    2df8:	ea 28       	or	r14, r10
    2dfa:	fb 28       	or	r15, r11
    2dfc:	fa 01       	movw	r30, r20
    2dfe:	f1 82       	std	Z+1, r15	; 0x01
    2e00:	e0 82       	st	Z, r14
    2e02:	6f 5f       	subi	r22, 0xFF	; 255
    2e04:	7f 4f       	sbci	r23, 0xFF	; 255
    2e06:	f2 e0       	ldi	r31, 0x02	; 2
    2e08:	4f 0e       	add	r4, r31
    2e0a:	51 1c       	adc	r5, r1
    2e0c:	68 30       	cpi	r22, 0x08	; 8
    2e0e:	71 05       	cpc	r23, r1
    2e10:	a1 f6       	brne	.-88     	; 0x2dba <lcd_putc+0x1ce>
    2e12:	0f 5f       	subi	r16, 0xFF	; 255
    2e14:	1f 4f       	sbci	r17, 0xFF	; 255
    2e16:	4e 5f       	subi	r20, 0xFE	; 254
    2e18:	5f 4f       	sbci	r21, 0xFF	; 255
    2e1a:	06 30       	cpi	r16, 0x06	; 6
    2e1c:	11 05       	cpc	r17, r1
    2e1e:	09 f0       	breq	.+2      	; 0x2e22 <lcd_putc+0x236>
    2e20:	bd cf       	rjmp	.-134    	; 0x2d9c <lcd_putc+0x1b0>
    2e22:	e0 91 96 07 	lds	r30, 0x0796	; 0x800796 <cursorPosition+0x1>
    2e26:	f0 e0       	ldi	r31, 0x00	; 0
    2e28:	31 96       	adiw	r30, 0x01	; 1
    2e2a:	f6 95       	lsr	r31
    2e2c:	fe 2f       	mov	r31, r30
    2e2e:	ee 27       	eor	r30, r30
    2e30:	f7 95       	ror	r31
    2e32:	e7 95       	ror	r30
    2e34:	af 01       	movw	r20, r30
    2e36:	42 0f       	add	r20, r18
    2e38:	53 1f       	adc	r21, r19
    2e3a:	4b 56       	subi	r20, 0x6B	; 107
    2e3c:	5c 4f       	sbci	r21, 0xFC	; 252
    2e3e:	e2 0f       	add	r30, r18
    2e40:	f3 1f       	adc	r31, r19
    2e42:	8f 01       	movw	r16, r30
    2e44:	0b 5e       	subi	r16, 0xEB	; 235
    2e46:	1c 4f       	sbci	r17, 0xFC	; 252
    2e48:	be 01       	movw	r22, r28
    2e4a:	63 5f       	subi	r22, 0xF3	; 243
    2e4c:	7f 4f       	sbci	r23, 0xFF	; 255
    2e4e:	8c 91       	ld	r24, X
    2e50:	11 96       	adiw	r26, 0x01	; 1
    2e52:	2c 91       	ld	r18, X
    2e54:	11 97       	sbiw	r26, 0x01	; 1
    2e56:	12 96       	adiw	r26, 0x02	; 2
    2e58:	fa 01       	movw	r30, r20
    2e5a:	20 83       	st	Z, r18
    2e5c:	21 83       	std	Z+1, r18	; 0x01
    2e5e:	f8 01       	movw	r30, r16
    2e60:	80 83       	st	Z, r24
    2e62:	81 83       	std	Z+1, r24	; 0x01
    2e64:	4e 5f       	subi	r20, 0xFE	; 254
    2e66:	5f 4f       	sbci	r21, 0xFF	; 255
    2e68:	0e 5f       	subi	r16, 0xFE	; 254
    2e6a:	1f 4f       	sbci	r17, 0xFF	; 255
    2e6c:	a6 17       	cp	r26, r22
    2e6e:	b7 07       	cpc	r27, r23
    2e70:	71 f7       	brne	.-36     	; 0x2e4e <lcd_putc+0x262>
    2e72:	94 5f       	subi	r25, 0xF4	; 244
    2e74:	1f c0       	rjmp	.+62     	; 0x2eb4 <lcd_putc+0x2c8>
    2e76:	40 91 96 07 	lds	r20, 0x0796	; 0x800796 <cursorPosition+0x1>
    2e7a:	f6 e0       	ldi	r31, 0x06	; 6
    2e7c:	8f 9f       	mul	r24, r31
    2e7e:	30 01       	movw	r6, r0
    2e80:	11 24       	eor	r1, r1
    2e82:	50 e8       	ldi	r21, 0x80	; 128
    2e84:	45 9f       	mul	r20, r21
    2e86:	20 0d       	add	r18, r0
    2e88:	31 1d       	adc	r19, r1
    2e8a:	11 24       	eor	r1, r1
    2e8c:	40 e0       	ldi	r20, 0x00	; 0
    2e8e:	50 e0       	ldi	r21, 0x00	; 0
    2e90:	fa 01       	movw	r30, r20
    2e92:	e6 0d       	add	r30, r6
    2e94:	f7 1d       	adc	r31, r7
    2e96:	e0 5c       	subi	r30, 0xC0	; 192
    2e98:	fd 4f       	sbci	r31, 0xFD	; 253
    2e9a:	e4 91       	lpm	r30, Z
    2e9c:	da 01       	movw	r26, r20
    2e9e:	a2 0f       	add	r26, r18
    2ea0:	b3 1f       	adc	r27, r19
    2ea2:	ab 56       	subi	r26, 0x6B	; 107
    2ea4:	bc 4f       	sbci	r27, 0xFC	; 252
    2ea6:	ec 93       	st	X, r30
    2ea8:	4f 5f       	subi	r20, 0xFF	; 255
    2eaa:	5f 4f       	sbci	r21, 0xFF	; 255
    2eac:	46 30       	cpi	r20, 0x06	; 6
    2eae:	51 05       	cpc	r21, r1
    2eb0:	79 f7       	brne	.-34     	; 0x2e90 <lcd_putc+0x2a4>
    2eb2:	9a 5f       	subi	r25, 0xFA	; 250
    2eb4:	90 93 95 07 	sts	0x0795, r25	; 0x800795 <cursorPosition>
    2eb8:	2c 96       	adiw	r28, 0x0c	; 12
    2eba:	0f b6       	in	r0, 0x3f	; 63
    2ebc:	f8 94       	cli
    2ebe:	de bf       	out	0x3e, r29	; 62
    2ec0:	0f be       	out	0x3f, r0	; 63
    2ec2:	cd bf       	out	0x3d, r28	; 61
    2ec4:	df 91       	pop	r29
    2ec6:	cf 91       	pop	r28
    2ec8:	1f 91       	pop	r17
    2eca:	0f 91       	pop	r16
    2ecc:	ff 90       	pop	r15
    2ece:	ef 90       	pop	r14
    2ed0:	df 90       	pop	r13
    2ed2:	cf 90       	pop	r12
    2ed4:	bf 90       	pop	r11
    2ed6:	af 90       	pop	r10
    2ed8:	9f 90       	pop	r9
    2eda:	8f 90       	pop	r8
    2edc:	7f 90       	pop	r7
    2ede:	6f 90       	pop	r6
    2ee0:	5f 90       	pop	r5
    2ee2:	4f 90       	pop	r4
    2ee4:	08 95       	ret

00002ee6 <lcd_charMode>:
    2ee6:	80 93 65 00 	sts	0x0065, r24	; 0x800065 <charMode>
    2eea:	08 95       	ret

00002eec <lcd_puts>:
    2eec:	cf 93       	push	r28
    2eee:	df 93       	push	r29
    2ef0:	ec 01       	movw	r28, r24
    2ef2:	89 91       	ld	r24, Y+
    2ef4:	88 23       	and	r24, r24
    2ef6:	19 f0       	breq	.+6      	; 0x2efe <lcd_puts+0x12>
    2ef8:	0e 94 f6 15 	call	0x2bec	; 0x2bec <lcd_putc>
    2efc:	fa cf       	rjmp	.-12     	; 0x2ef2 <lcd_puts+0x6>
    2efe:	df 91       	pop	r29
    2f00:	cf 91       	pop	r28
    2f02:	08 95       	ret

00002f04 <lcd_puts_p>:
    2f04:	cf 93       	push	r28
    2f06:	df 93       	push	r29
    2f08:	fc 01       	movw	r30, r24
    2f0a:	84 91       	lpm	r24, Z
    2f0c:	ef 01       	movw	r28, r30
    2f0e:	21 96       	adiw	r28, 0x01	; 1
    2f10:	88 23       	and	r24, r24
    2f12:	21 f0       	breq	.+8      	; 0x2f1c <lcd_puts_p+0x18>
    2f14:	0e 94 f6 15 	call	0x2bec	; 0x2bec <lcd_putc>
    2f18:	fe 01       	movw	r30, r28
    2f1a:	f7 cf       	rjmp	.-18     	; 0x2f0a <lcd_puts_p+0x6>
    2f1c:	df 91       	pop	r29
    2f1e:	cf 91       	pop	r28
    2f20:	08 95       	ret

00002f22 <oled_int>:
    2f22:	0f 93       	push	r16
    2f24:	1f 93       	push	r17
    2f26:	cf 93       	push	r28
    2f28:	df 93       	push	r29
    2f2a:	00 d0       	rcall	.+0      	; 0x2f2c <oled_int+0xa>
    2f2c:	00 d0       	rcall	.+0      	; 0x2f2e <oled_int+0xc>
    2f2e:	00 d0       	rcall	.+0      	; 0x2f30 <oled_int+0xe>
    2f30:	cd b7       	in	r28, 0x3d	; 61
    2f32:	de b7       	in	r29, 0x3e	; 62
    2f34:	9f 93       	push	r25
    2f36:	8f 93       	push	r24
    2f38:	80 e5       	ldi	r24, 0x50	; 80
    2f3a:	93 e0       	ldi	r25, 0x03	; 3
    2f3c:	9f 93       	push	r25
    2f3e:	8f 93       	push	r24
    2f40:	8e 01       	movw	r16, r28
    2f42:	0f 5f       	subi	r16, 0xFF	; 255
    2f44:	1f 4f       	sbci	r17, 0xFF	; 255
    2f46:	1f 93       	push	r17
    2f48:	0f 93       	push	r16
    2f4a:	0e 94 2f 1a 	call	0x345e	; 0x345e <sprintf>
    2f4e:	c8 01       	movw	r24, r16
    2f50:	0e 94 76 17 	call	0x2eec	; 0x2eec <lcd_puts>
    2f54:	0f 90       	pop	r0
    2f56:	0f 90       	pop	r0
    2f58:	0f 90       	pop	r0
    2f5a:	0f 90       	pop	r0
    2f5c:	0f 90       	pop	r0
    2f5e:	0f 90       	pop	r0
    2f60:	26 96       	adiw	r28, 0x06	; 6
    2f62:	0f b6       	in	r0, 0x3f	; 63
    2f64:	f8 94       	cli
    2f66:	de bf       	out	0x3e, r29	; 62
    2f68:	0f be       	out	0x3f, r0	; 63
    2f6a:	cd bf       	out	0x3d, r28	; 61
    2f6c:	df 91       	pop	r29
    2f6e:	cf 91       	pop	r28
    2f70:	1f 91       	pop	r17
    2f72:	0f 91       	pop	r16
    2f74:	08 95       	ret

00002f76 <oled_long_int>:
    2f76:	0f 93       	push	r16
    2f78:	1f 93       	push	r17
    2f7a:	cf 93       	push	r28
    2f7c:	df 93       	push	r29
    2f7e:	cd b7       	in	r28, 0x3d	; 61
    2f80:	de b7       	in	r29, 0x3e	; 62
    2f82:	2b 97       	sbiw	r28, 0x0b	; 11
    2f84:	0f b6       	in	r0, 0x3f	; 63
    2f86:	f8 94       	cli
    2f88:	de bf       	out	0x3e, r29	; 62
    2f8a:	0f be       	out	0x3f, r0	; 63
    2f8c:	cd bf       	out	0x3d, r28	; 61
    2f8e:	9f 93       	push	r25
    2f90:	8f 93       	push	r24
    2f92:	7f 93       	push	r23
    2f94:	6f 93       	push	r22
    2f96:	83 e5       	ldi	r24, 0x53	; 83
    2f98:	93 e0       	ldi	r25, 0x03	; 3
    2f9a:	9f 93       	push	r25
    2f9c:	8f 93       	push	r24
    2f9e:	8e 01       	movw	r16, r28
    2fa0:	0f 5f       	subi	r16, 0xFF	; 255
    2fa2:	1f 4f       	sbci	r17, 0xFF	; 255
    2fa4:	1f 93       	push	r17
    2fa6:	0f 93       	push	r16
    2fa8:	0e 94 2f 1a 	call	0x345e	; 0x345e <sprintf>
    2fac:	c8 01       	movw	r24, r16
    2fae:	0e 94 76 17 	call	0x2eec	; 0x2eec <lcd_puts>
    2fb2:	0f b6       	in	r0, 0x3f	; 63
    2fb4:	f8 94       	cli
    2fb6:	de bf       	out	0x3e, r29	; 62
    2fb8:	0f be       	out	0x3f, r0	; 63
    2fba:	cd bf       	out	0x3d, r28	; 61
    2fbc:	2b 96       	adiw	r28, 0x0b	; 11
    2fbe:	0f b6       	in	r0, 0x3f	; 63
    2fc0:	f8 94       	cli
    2fc2:	de bf       	out	0x3e, r29	; 62
    2fc4:	0f be       	out	0x3f, r0	; 63
    2fc6:	cd bf       	out	0x3d, r28	; 61
    2fc8:	df 91       	pop	r29
    2fca:	cf 91       	pop	r28
    2fcc:	1f 91       	pop	r17
    2fce:	0f 91       	pop	r16
    2fd0:	08 95       	ret

00002fd2 <lcd_display>:
    2fd2:	0f 93       	push	r16
    2fd4:	1f 93       	push	r17
    2fd6:	cf 93       	push	r28
    2fd8:	05 e9       	ldi	r16, 0x95	; 149
    2fda:	13 e0       	ldi	r17, 0x03	; 3
    2fdc:	c0 e0       	ldi	r28, 0x00	; 0
    2fde:	6c 2f       	mov	r22, r28
    2fe0:	80 e0       	ldi	r24, 0x00	; 0
    2fe2:	0e 94 72 15 	call	0x2ae4	; 0x2ae4 <lcd_goto_xpix_y>
    2fe6:	60 e8       	ldi	r22, 0x80	; 128
    2fe8:	70 e0       	ldi	r23, 0x00	; 0
    2fea:	c8 01       	movw	r24, r16
    2fec:	0e 94 52 15 	call	0x2aa4	; 0x2aa4 <lcd_data>
    2ff0:	cf 5f       	subi	r28, 0xFF	; 255
    2ff2:	00 58       	subi	r16, 0x80	; 128
    2ff4:	1f 4f       	sbci	r17, 0xFF	; 255
    2ff6:	c8 30       	cpi	r28, 0x08	; 8
    2ff8:	91 f7       	brne	.-28     	; 0x2fde <lcd_display+0xc>
    2ffa:	cf 91       	pop	r28
    2ffc:	1f 91       	pop	r17
    2ffe:	0f 91       	pop	r16
    3000:	08 95       	ret

00003002 <__mulsi3>:
    3002:	db 01       	movw	r26, r22
    3004:	8f 93       	push	r24
    3006:	9f 93       	push	r25
    3008:	0e 94 58 18 	call	0x30b0	; 0x30b0 <__muluhisi3>
    300c:	bf 91       	pop	r27
    300e:	af 91       	pop	r26
    3010:	a2 9f       	mul	r26, r18
    3012:	80 0d       	add	r24, r0
    3014:	91 1d       	adc	r25, r1
    3016:	a3 9f       	mul	r26, r19
    3018:	90 0d       	add	r25, r0
    301a:	b2 9f       	mul	r27, r18
    301c:	90 0d       	add	r25, r0
    301e:	11 24       	eor	r1, r1
    3020:	08 95       	ret

00003022 <__udivmodsi4>:
    3022:	a1 e2       	ldi	r26, 0x21	; 33
    3024:	1a 2e       	mov	r1, r26
    3026:	aa 1b       	sub	r26, r26
    3028:	bb 1b       	sub	r27, r27
    302a:	fd 01       	movw	r30, r26
    302c:	0d c0       	rjmp	.+26     	; 0x3048 <__udivmodsi4_ep>

0000302e <__udivmodsi4_loop>:
    302e:	aa 1f       	adc	r26, r26
    3030:	bb 1f       	adc	r27, r27
    3032:	ee 1f       	adc	r30, r30
    3034:	ff 1f       	adc	r31, r31
    3036:	a2 17       	cp	r26, r18
    3038:	b3 07       	cpc	r27, r19
    303a:	e4 07       	cpc	r30, r20
    303c:	f5 07       	cpc	r31, r21
    303e:	20 f0       	brcs	.+8      	; 0x3048 <__udivmodsi4_ep>
    3040:	a2 1b       	sub	r26, r18
    3042:	b3 0b       	sbc	r27, r19
    3044:	e4 0b       	sbc	r30, r20
    3046:	f5 0b       	sbc	r31, r21

00003048 <__udivmodsi4_ep>:
    3048:	66 1f       	adc	r22, r22
    304a:	77 1f       	adc	r23, r23
    304c:	88 1f       	adc	r24, r24
    304e:	99 1f       	adc	r25, r25
    3050:	1a 94       	dec	r1
    3052:	69 f7       	brne	.-38     	; 0x302e <__udivmodsi4_loop>
    3054:	60 95       	com	r22
    3056:	70 95       	com	r23
    3058:	80 95       	com	r24
    305a:	90 95       	com	r25
    305c:	9b 01       	movw	r18, r22
    305e:	ac 01       	movw	r20, r24
    3060:	bd 01       	movw	r22, r26
    3062:	cf 01       	movw	r24, r30
    3064:	08 95       	ret

00003066 <__divmodsi4>:
    3066:	05 2e       	mov	r0, r21
    3068:	97 fb       	bst	r25, 7
    306a:	1e f4       	brtc	.+6      	; 0x3072 <__divmodsi4+0xc>
    306c:	00 94       	com	r0
    306e:	0e 94 4a 18 	call	0x3094	; 0x3094 <__negsi2>
    3072:	57 fd       	sbrc	r21, 7
    3074:	07 d0       	rcall	.+14     	; 0x3084 <__divmodsi4_neg2>
    3076:	0e 94 11 18 	call	0x3022	; 0x3022 <__udivmodsi4>
    307a:	07 fc       	sbrc	r0, 7
    307c:	03 d0       	rcall	.+6      	; 0x3084 <__divmodsi4_neg2>
    307e:	4e f4       	brtc	.+18     	; 0x3092 <__divmodsi4_exit>
    3080:	0c 94 4a 18 	jmp	0x3094	; 0x3094 <__negsi2>

00003084 <__divmodsi4_neg2>:
    3084:	50 95       	com	r21
    3086:	40 95       	com	r20
    3088:	30 95       	com	r19
    308a:	21 95       	neg	r18
    308c:	3f 4f       	sbci	r19, 0xFF	; 255
    308e:	4f 4f       	sbci	r20, 0xFF	; 255
    3090:	5f 4f       	sbci	r21, 0xFF	; 255

00003092 <__divmodsi4_exit>:
    3092:	08 95       	ret

00003094 <__negsi2>:
    3094:	90 95       	com	r25
    3096:	80 95       	com	r24
    3098:	70 95       	com	r23
    309a:	61 95       	neg	r22
    309c:	7f 4f       	sbci	r23, 0xFF	; 255
    309e:	8f 4f       	sbci	r24, 0xFF	; 255
    30a0:	9f 4f       	sbci	r25, 0xFF	; 255
    30a2:	08 95       	ret

000030a4 <__tablejump2__>:
    30a4:	ee 0f       	add	r30, r30
    30a6:	ff 1f       	adc	r31, r31
    30a8:	05 90       	lpm	r0, Z+
    30aa:	f4 91       	lpm	r31, Z
    30ac:	e0 2d       	mov	r30, r0
    30ae:	09 94       	ijmp

000030b0 <__muluhisi3>:
    30b0:	0e 94 f0 19 	call	0x33e0	; 0x33e0 <__umulhisi3>
    30b4:	a5 9f       	mul	r26, r21
    30b6:	90 0d       	add	r25, r0
    30b8:	b4 9f       	mul	r27, r20
    30ba:	90 0d       	add	r25, r0
    30bc:	a4 9f       	mul	r26, r20
    30be:	80 0d       	add	r24, r0
    30c0:	91 1d       	adc	r25, r1
    30c2:	11 24       	eor	r1, r1
    30c4:	08 95       	ret

000030c6 <__mulshisi3>:
    30c6:	b7 ff       	sbrs	r27, 7
    30c8:	0c 94 58 18 	jmp	0x30b0	; 0x30b0 <__muluhisi3>

000030cc <__mulohisi3>:
    30cc:	0e 94 58 18 	call	0x30b0	; 0x30b0 <__muluhisi3>
    30d0:	82 1b       	sub	r24, r18
    30d2:	93 0b       	sbc	r25, r19
    30d4:	08 95       	ret

000030d6 <__muldi3>:
    30d6:	df 93       	push	r29
    30d8:	cf 93       	push	r28
    30da:	1f 93       	push	r17
    30dc:	0f 93       	push	r16
    30de:	9a 9d       	mul	r25, r10
    30e0:	f0 2d       	mov	r31, r0
    30e2:	21 9f       	mul	r18, r17
    30e4:	f0 0d       	add	r31, r0
    30e6:	8b 9d       	mul	r24, r11
    30e8:	f0 0d       	add	r31, r0
    30ea:	8a 9d       	mul	r24, r10
    30ec:	e0 2d       	mov	r30, r0
    30ee:	f1 0d       	add	r31, r1
    30f0:	03 9f       	mul	r16, r19
    30f2:	f0 0d       	add	r31, r0
    30f4:	02 9f       	mul	r16, r18
    30f6:	e0 0d       	add	r30, r0
    30f8:	f1 1d       	adc	r31, r1
    30fa:	4e 9d       	mul	r20, r14
    30fc:	e0 0d       	add	r30, r0
    30fe:	f1 1d       	adc	r31, r1
    3100:	5e 9d       	mul	r21, r14
    3102:	f0 0d       	add	r31, r0
    3104:	4f 9d       	mul	r20, r15
    3106:	f0 0d       	add	r31, r0
    3108:	7f 93       	push	r23
    310a:	6f 93       	push	r22
    310c:	bf 92       	push	r11
    310e:	af 92       	push	r10
    3110:	5f 93       	push	r21
    3112:	4f 93       	push	r20
    3114:	d5 01       	movw	r26, r10
    3116:	0e 94 f0 19 	call	0x33e0	; 0x33e0 <__umulhisi3>
    311a:	8b 01       	movw	r16, r22
    311c:	ac 01       	movw	r20, r24
    311e:	d7 01       	movw	r26, r14
    3120:	0e 94 f0 19 	call	0x33e0	; 0x33e0 <__umulhisi3>
    3124:	eb 01       	movw	r28, r22
    3126:	e8 0f       	add	r30, r24
    3128:	f9 1f       	adc	r31, r25
    312a:	d6 01       	movw	r26, r12
    312c:	0e 94 bb 18 	call	0x3176	; 0x3176 <__muldi3_6>
    3130:	2f 91       	pop	r18
    3132:	3f 91       	pop	r19
    3134:	d6 01       	movw	r26, r12
    3136:	0e 94 f0 19 	call	0x33e0	; 0x33e0 <__umulhisi3>
    313a:	c6 0f       	add	r28, r22
    313c:	d7 1f       	adc	r29, r23
    313e:	e8 1f       	adc	r30, r24
    3140:	f9 1f       	adc	r31, r25
    3142:	af 91       	pop	r26
    3144:	bf 91       	pop	r27
    3146:	0e 94 bb 18 	call	0x3176	; 0x3176 <__muldi3_6>
    314a:	2f 91       	pop	r18
    314c:	3f 91       	pop	r19
    314e:	0e 94 f0 19 	call	0x33e0	; 0x33e0 <__umulhisi3>
    3152:	c6 0f       	add	r28, r22
    3154:	d7 1f       	adc	r29, r23
    3156:	e8 1f       	adc	r30, r24
    3158:	f9 1f       	adc	r31, r25
    315a:	d6 01       	movw	r26, r12
    315c:	0e 94 f0 19 	call	0x33e0	; 0x33e0 <__umulhisi3>
    3160:	e6 0f       	add	r30, r22
    3162:	f7 1f       	adc	r31, r23
    3164:	98 01       	movw	r18, r16
    3166:	be 01       	movw	r22, r28
    3168:	cf 01       	movw	r24, r30
    316a:	11 24       	eor	r1, r1
    316c:	0f 91       	pop	r16
    316e:	1f 91       	pop	r17
    3170:	cf 91       	pop	r28
    3172:	df 91       	pop	r29
    3174:	08 95       	ret

00003176 <__muldi3_6>:
    3176:	0e 94 f0 19 	call	0x33e0	; 0x33e0 <__umulhisi3>
    317a:	46 0f       	add	r20, r22
    317c:	57 1f       	adc	r21, r23
    317e:	c8 1f       	adc	r28, r24
    3180:	d9 1f       	adc	r29, r25
    3182:	08 f4       	brcc	.+2      	; 0x3186 <__muldi3_6+0x10>
    3184:	31 96       	adiw	r30, 0x01	; 1
    3186:	08 95       	ret

00003188 <__moddi3>:
    3188:	68 94       	set
    318a:	01 c0       	rjmp	.+2      	; 0x318e <__divdi3_moddi3>

0000318c <__divdi3>:
    318c:	e8 94       	clt

0000318e <__divdi3_moddi3>:
    318e:	f9 2f       	mov	r31, r25
    3190:	f1 2b       	or	r31, r17
    3192:	12 f0       	brmi	.+4      	; 0x3198 <__divdi3_moddi3+0xa>
    3194:	0c 94 f8 18 	jmp	0x31f0	; 0x31f0 <__udivdi3_umoddi3>
    3198:	a0 e0       	ldi	r26, 0x00	; 0
    319a:	b0 e0       	ldi	r27, 0x00	; 0
    319c:	e2 ed       	ldi	r30, 0xD2	; 210
    319e:	f8 e1       	ldi	r31, 0x18	; 24
    31a0:	0c 94 6a 19 	jmp	0x32d4	; 0x32d4 <__prologue_saves__+0xc>
    31a4:	09 2e       	mov	r0, r25
    31a6:	05 94       	asr	r0
    31a8:	22 f4       	brpl	.+8      	; 0x31b2 <__divdi3_moddi3+0x24>
    31aa:	0e 94 54 19 	call	0x32a8	; 0x32a8 <__negdi2>
    31ae:	11 23       	and	r17, r17
    31b0:	92 f4       	brpl	.+36     	; 0x31d6 <__divdi3_moddi3+0x48>
    31b2:	f0 e8       	ldi	r31, 0x80	; 128
    31b4:	0f 26       	eor	r0, r31
    31b6:	ff ef       	ldi	r31, 0xFF	; 255
    31b8:	e0 94       	com	r14
    31ba:	f0 94       	com	r15
    31bc:	00 95       	com	r16
    31be:	10 95       	com	r17
    31c0:	b0 94       	com	r11
    31c2:	c0 94       	com	r12
    31c4:	d0 94       	com	r13
    31c6:	a1 94       	neg	r10
    31c8:	bf 0a       	sbc	r11, r31
    31ca:	cf 0a       	sbc	r12, r31
    31cc:	df 0a       	sbc	r13, r31
    31ce:	ef 0a       	sbc	r14, r31
    31d0:	ff 0a       	sbc	r15, r31
    31d2:	0f 0b       	sbc	r16, r31
    31d4:	1f 0b       	sbc	r17, r31
    31d6:	0e 94 03 19 	call	0x3206	; 0x3206 <__udivmod64>
    31da:	07 fc       	sbrc	r0, 7
    31dc:	0e 94 54 19 	call	0x32a8	; 0x32a8 <__negdi2>
    31e0:	cd b7       	in	r28, 0x3d	; 61
    31e2:	de b7       	in	r29, 0x3e	; 62
    31e4:	ec e0       	ldi	r30, 0x0C	; 12
    31e6:	0c 94 86 19 	jmp	0x330c	; 0x330c <__epilogue_restores__+0xc>

000031ea <__umoddi3>:
    31ea:	68 94       	set
    31ec:	01 c0       	rjmp	.+2      	; 0x31f0 <__udivdi3_umoddi3>

000031ee <__udivdi3>:
    31ee:	e8 94       	clt

000031f0 <__udivdi3_umoddi3>:
    31f0:	8f 92       	push	r8
    31f2:	9f 92       	push	r9
    31f4:	cf 93       	push	r28
    31f6:	df 93       	push	r29
    31f8:	0e 94 03 19 	call	0x3206	; 0x3206 <__udivmod64>
    31fc:	df 91       	pop	r29
    31fe:	cf 91       	pop	r28
    3200:	9f 90       	pop	r9
    3202:	8f 90       	pop	r8
    3204:	08 95       	ret

00003206 <__udivmod64>:
    3206:	88 24       	eor	r8, r8
    3208:	99 24       	eor	r9, r9
    320a:	f4 01       	movw	r30, r8
    320c:	e4 01       	movw	r28, r8
    320e:	b0 e4       	ldi	r27, 0x40	; 64
    3210:	9f 93       	push	r25
    3212:	aa 27       	eor	r26, r26
    3214:	9a 15       	cp	r25, r10
    3216:	8b 04       	cpc	r8, r11
    3218:	9c 04       	cpc	r9, r12
    321a:	ed 05       	cpc	r30, r13
    321c:	fe 05       	cpc	r31, r14
    321e:	cf 05       	cpc	r28, r15
    3220:	d0 07       	cpc	r29, r16
    3222:	a1 07       	cpc	r26, r17
    3224:	98 f4       	brcc	.+38     	; 0x324c <__udivmod64+0x46>
    3226:	ad 2f       	mov	r26, r29
    3228:	dc 2f       	mov	r29, r28
    322a:	cf 2f       	mov	r28, r31
    322c:	fe 2f       	mov	r31, r30
    322e:	e9 2d       	mov	r30, r9
    3230:	98 2c       	mov	r9, r8
    3232:	89 2e       	mov	r8, r25
    3234:	98 2f       	mov	r25, r24
    3236:	87 2f       	mov	r24, r23
    3238:	76 2f       	mov	r23, r22
    323a:	65 2f       	mov	r22, r21
    323c:	54 2f       	mov	r21, r20
    323e:	43 2f       	mov	r20, r19
    3240:	32 2f       	mov	r19, r18
    3242:	22 27       	eor	r18, r18
    3244:	b8 50       	subi	r27, 0x08	; 8
    3246:	31 f7       	brne	.-52     	; 0x3214 <__udivmod64+0xe>
    3248:	bf 91       	pop	r27
    324a:	27 c0       	rjmp	.+78     	; 0x329a <__udivmod64+0x94>
    324c:	1b 2e       	mov	r1, r27
    324e:	bf 91       	pop	r27
    3250:	bb 27       	eor	r27, r27
    3252:	22 0f       	add	r18, r18
    3254:	33 1f       	adc	r19, r19
    3256:	44 1f       	adc	r20, r20
    3258:	55 1f       	adc	r21, r21
    325a:	66 1f       	adc	r22, r22
    325c:	77 1f       	adc	r23, r23
    325e:	88 1f       	adc	r24, r24
    3260:	99 1f       	adc	r25, r25
    3262:	88 1c       	adc	r8, r8
    3264:	99 1c       	adc	r9, r9
    3266:	ee 1f       	adc	r30, r30
    3268:	ff 1f       	adc	r31, r31
    326a:	cc 1f       	adc	r28, r28
    326c:	dd 1f       	adc	r29, r29
    326e:	aa 1f       	adc	r26, r26
    3270:	bb 1f       	adc	r27, r27
    3272:	8a 14       	cp	r8, r10
    3274:	9b 04       	cpc	r9, r11
    3276:	ec 05       	cpc	r30, r12
    3278:	fd 05       	cpc	r31, r13
    327a:	ce 05       	cpc	r28, r14
    327c:	df 05       	cpc	r29, r15
    327e:	a0 07       	cpc	r26, r16
    3280:	b1 07       	cpc	r27, r17
    3282:	48 f0       	brcs	.+18     	; 0x3296 <__udivmod64+0x90>
    3284:	8a 18       	sub	r8, r10
    3286:	9b 08       	sbc	r9, r11
    3288:	ec 09       	sbc	r30, r12
    328a:	fd 09       	sbc	r31, r13
    328c:	ce 09       	sbc	r28, r14
    328e:	df 09       	sbc	r29, r15
    3290:	a0 0b       	sbc	r26, r16
    3292:	b1 0b       	sbc	r27, r17
    3294:	21 60       	ori	r18, 0x01	; 1
    3296:	1a 94       	dec	r1
    3298:	e1 f6       	brne	.-72     	; 0x3252 <__udivmod64+0x4c>
    329a:	2e f4       	brtc	.+10     	; 0x32a6 <__udivmod64+0xa0>
    329c:	94 01       	movw	r18, r8
    329e:	af 01       	movw	r20, r30
    32a0:	be 01       	movw	r22, r28
    32a2:	cd 01       	movw	r24, r26
    32a4:	00 0c       	add	r0, r0
    32a6:	08 95       	ret

000032a8 <__negdi2>:
    32a8:	60 95       	com	r22
    32aa:	70 95       	com	r23
    32ac:	80 95       	com	r24
    32ae:	90 95       	com	r25
    32b0:	30 95       	com	r19
    32b2:	40 95       	com	r20
    32b4:	50 95       	com	r21
    32b6:	21 95       	neg	r18
    32b8:	3f 4f       	sbci	r19, 0xFF	; 255
    32ba:	4f 4f       	sbci	r20, 0xFF	; 255
    32bc:	5f 4f       	sbci	r21, 0xFF	; 255
    32be:	6f 4f       	sbci	r22, 0xFF	; 255
    32c0:	7f 4f       	sbci	r23, 0xFF	; 255
    32c2:	8f 4f       	sbci	r24, 0xFF	; 255
    32c4:	9f 4f       	sbci	r25, 0xFF	; 255
    32c6:	08 95       	ret

000032c8 <__prologue_saves__>:
    32c8:	2f 92       	push	r2
    32ca:	3f 92       	push	r3
    32cc:	4f 92       	push	r4
    32ce:	5f 92       	push	r5
    32d0:	6f 92       	push	r6
    32d2:	7f 92       	push	r7
    32d4:	8f 92       	push	r8
    32d6:	9f 92       	push	r9
    32d8:	af 92       	push	r10
    32da:	bf 92       	push	r11
    32dc:	cf 92       	push	r12
    32de:	df 92       	push	r13
    32e0:	ef 92       	push	r14
    32e2:	ff 92       	push	r15
    32e4:	0f 93       	push	r16
    32e6:	1f 93       	push	r17
    32e8:	cf 93       	push	r28
    32ea:	df 93       	push	r29
    32ec:	cd b7       	in	r28, 0x3d	; 61
    32ee:	de b7       	in	r29, 0x3e	; 62
    32f0:	ca 1b       	sub	r28, r26
    32f2:	db 0b       	sbc	r29, r27
    32f4:	0f b6       	in	r0, 0x3f	; 63
    32f6:	f8 94       	cli
    32f8:	de bf       	out	0x3e, r29	; 62
    32fa:	0f be       	out	0x3f, r0	; 63
    32fc:	cd bf       	out	0x3d, r28	; 61
    32fe:	09 94       	ijmp

00003300 <__epilogue_restores__>:
    3300:	2a 88       	ldd	r2, Y+18	; 0x12
    3302:	39 88       	ldd	r3, Y+17	; 0x11
    3304:	48 88       	ldd	r4, Y+16	; 0x10
    3306:	5f 84       	ldd	r5, Y+15	; 0x0f
    3308:	6e 84       	ldd	r6, Y+14	; 0x0e
    330a:	7d 84       	ldd	r7, Y+13	; 0x0d
    330c:	8c 84       	ldd	r8, Y+12	; 0x0c
    330e:	9b 84       	ldd	r9, Y+11	; 0x0b
    3310:	aa 84       	ldd	r10, Y+10	; 0x0a
    3312:	b9 84       	ldd	r11, Y+9	; 0x09
    3314:	c8 84       	ldd	r12, Y+8	; 0x08
    3316:	df 80       	ldd	r13, Y+7	; 0x07
    3318:	ee 80       	ldd	r14, Y+6	; 0x06
    331a:	fd 80       	ldd	r15, Y+5	; 0x05
    331c:	0c 81       	ldd	r16, Y+4	; 0x04
    331e:	1b 81       	ldd	r17, Y+3	; 0x03
    3320:	aa 81       	ldd	r26, Y+2	; 0x02
    3322:	b9 81       	ldd	r27, Y+1	; 0x01
    3324:	ce 0f       	add	r28, r30
    3326:	d1 1d       	adc	r29, r1
    3328:	0f b6       	in	r0, 0x3f	; 63
    332a:	f8 94       	cli
    332c:	de bf       	out	0x3e, r29	; 62
    332e:	0f be       	out	0x3f, r0	; 63
    3330:	cd bf       	out	0x3d, r28	; 61
    3332:	ed 01       	movw	r28, r26
    3334:	08 95       	ret

00003336 <__ashldi3>:
    3336:	0f 93       	push	r16
    3338:	08 30       	cpi	r16, 0x08	; 8
    333a:	90 f0       	brcs	.+36     	; 0x3360 <__ashldi3+0x2a>
    333c:	98 2f       	mov	r25, r24
    333e:	87 2f       	mov	r24, r23
    3340:	76 2f       	mov	r23, r22
    3342:	65 2f       	mov	r22, r21
    3344:	54 2f       	mov	r21, r20
    3346:	43 2f       	mov	r20, r19
    3348:	32 2f       	mov	r19, r18
    334a:	22 27       	eor	r18, r18
    334c:	08 50       	subi	r16, 0x08	; 8
    334e:	f4 cf       	rjmp	.-24     	; 0x3338 <__ashldi3+0x2>
    3350:	22 0f       	add	r18, r18
    3352:	33 1f       	adc	r19, r19
    3354:	44 1f       	adc	r20, r20
    3356:	55 1f       	adc	r21, r21
    3358:	66 1f       	adc	r22, r22
    335a:	77 1f       	adc	r23, r23
    335c:	88 1f       	adc	r24, r24
    335e:	99 1f       	adc	r25, r25
    3360:	0a 95       	dec	r16
    3362:	b2 f7       	brpl	.-20     	; 0x3350 <__ashldi3+0x1a>
    3364:	0f 91       	pop	r16
    3366:	08 95       	ret

00003368 <__ashrdi3>:
    3368:	97 fb       	bst	r25, 7
    336a:	10 f8       	bld	r1, 0

0000336c <__lshrdi3>:
    336c:	16 94       	lsr	r1
    336e:	00 08       	sbc	r0, r0
    3370:	0f 93       	push	r16
    3372:	08 30       	cpi	r16, 0x08	; 8
    3374:	98 f0       	brcs	.+38     	; 0x339c <__lshrdi3+0x30>
    3376:	08 50       	subi	r16, 0x08	; 8
    3378:	23 2f       	mov	r18, r19
    337a:	34 2f       	mov	r19, r20
    337c:	45 2f       	mov	r20, r21
    337e:	56 2f       	mov	r21, r22
    3380:	67 2f       	mov	r22, r23
    3382:	78 2f       	mov	r23, r24
    3384:	89 2f       	mov	r24, r25
    3386:	90 2d       	mov	r25, r0
    3388:	f4 cf       	rjmp	.-24     	; 0x3372 <__lshrdi3+0x6>
    338a:	05 94       	asr	r0
    338c:	97 95       	ror	r25
    338e:	87 95       	ror	r24
    3390:	77 95       	ror	r23
    3392:	67 95       	ror	r22
    3394:	57 95       	ror	r21
    3396:	47 95       	ror	r20
    3398:	37 95       	ror	r19
    339a:	27 95       	ror	r18
    339c:	0a 95       	dec	r16
    339e:	aa f7       	brpl	.-22     	; 0x338a <__lshrdi3+0x1e>
    33a0:	0f 91       	pop	r16
    33a2:	08 95       	ret

000033a4 <__adddi3>:
    33a4:	2a 0d       	add	r18, r10
    33a6:	3b 1d       	adc	r19, r11
    33a8:	4c 1d       	adc	r20, r12
    33aa:	5d 1d       	adc	r21, r13
    33ac:	6e 1d       	adc	r22, r14
    33ae:	7f 1d       	adc	r23, r15
    33b0:	80 1f       	adc	r24, r16
    33b2:	91 1f       	adc	r25, r17
    33b4:	08 95       	ret

000033b6 <__subdi3>:
    33b6:	2a 19       	sub	r18, r10
    33b8:	3b 09       	sbc	r19, r11
    33ba:	4c 09       	sbc	r20, r12
    33bc:	5d 09       	sbc	r21, r13
    33be:	6e 09       	sbc	r22, r14
    33c0:	7f 09       	sbc	r23, r15
    33c2:	80 0b       	sbc	r24, r16
    33c4:	91 0b       	sbc	r25, r17
    33c6:	08 95       	ret

000033c8 <__cmpdi2_s8>:
    33c8:	00 24       	eor	r0, r0
    33ca:	a7 fd       	sbrc	r26, 7
    33cc:	00 94       	com	r0
    33ce:	2a 17       	cp	r18, r26
    33d0:	30 05       	cpc	r19, r0
    33d2:	40 05       	cpc	r20, r0
    33d4:	50 05       	cpc	r21, r0
    33d6:	60 05       	cpc	r22, r0
    33d8:	70 05       	cpc	r23, r0
    33da:	80 05       	cpc	r24, r0
    33dc:	90 05       	cpc	r25, r0
    33de:	08 95       	ret

000033e0 <__umulhisi3>:
    33e0:	a2 9f       	mul	r26, r18
    33e2:	b0 01       	movw	r22, r0
    33e4:	b3 9f       	mul	r27, r19
    33e6:	c0 01       	movw	r24, r0
    33e8:	a3 9f       	mul	r26, r19
    33ea:	70 0d       	add	r23, r0
    33ec:	81 1d       	adc	r24, r1
    33ee:	11 24       	eor	r1, r1
    33f0:	91 1d       	adc	r25, r1
    33f2:	b2 9f       	mul	r27, r18
    33f4:	70 0d       	add	r23, r0
    33f6:	81 1d       	adc	r24, r1
    33f8:	11 24       	eor	r1, r1
    33fa:	91 1d       	adc	r25, r1
    33fc:	08 95       	ret

000033fe <itoa>:
    33fe:	45 32       	cpi	r20, 0x25	; 37
    3400:	51 05       	cpc	r21, r1
    3402:	20 f4       	brcc	.+8      	; 0x340c <itoa+0xe>
    3404:	42 30       	cpi	r20, 0x02	; 2
    3406:	10 f0       	brcs	.+4      	; 0x340c <itoa+0xe>
    3408:	0c 94 0a 1a 	jmp	0x3414	; 0x3414 <__itoa_ncheck>
    340c:	fb 01       	movw	r30, r22
    340e:	10 82       	st	Z, r1
    3410:	cb 01       	movw	r24, r22
    3412:	08 95       	ret

00003414 <__itoa_ncheck>:
    3414:	bb 27       	eor	r27, r27
    3416:	4a 30       	cpi	r20, 0x0A	; 10
    3418:	31 f4       	brne	.+12     	; 0x3426 <__itoa_ncheck+0x12>
    341a:	99 23       	and	r25, r25
    341c:	22 f4       	brpl	.+8      	; 0x3426 <__itoa_ncheck+0x12>
    341e:	bd e2       	ldi	r27, 0x2D	; 45
    3420:	90 95       	com	r25
    3422:	81 95       	neg	r24
    3424:	9f 4f       	sbci	r25, 0xFF	; 255
    3426:	0c 94 16 1a 	jmp	0x342c	; 0x342c <__utoa_common>

0000342a <__utoa_ncheck>:
    342a:	bb 27       	eor	r27, r27

0000342c <__utoa_common>:
    342c:	fb 01       	movw	r30, r22
    342e:	55 27       	eor	r21, r21
    3430:	aa 27       	eor	r26, r26
    3432:	88 0f       	add	r24, r24
    3434:	99 1f       	adc	r25, r25
    3436:	aa 1f       	adc	r26, r26
    3438:	a4 17       	cp	r26, r20
    343a:	10 f0       	brcs	.+4      	; 0x3440 <__utoa_common+0x14>
    343c:	a4 1b       	sub	r26, r20
    343e:	83 95       	inc	r24
    3440:	50 51       	subi	r21, 0x10	; 16
    3442:	b9 f7       	brne	.-18     	; 0x3432 <__utoa_common+0x6>
    3444:	a0 5d       	subi	r26, 0xD0	; 208
    3446:	aa 33       	cpi	r26, 0x3A	; 58
    3448:	08 f0       	brcs	.+2      	; 0x344c <__utoa_common+0x20>
    344a:	a9 5d       	subi	r26, 0xD9	; 217
    344c:	a1 93       	st	Z+, r26
    344e:	00 97       	sbiw	r24, 0x00	; 0
    3450:	79 f7       	brne	.-34     	; 0x3430 <__utoa_common+0x4>
    3452:	b1 11       	cpse	r27, r1
    3454:	b1 93       	st	Z+, r27
    3456:	11 92       	st	Z+, r1
    3458:	cb 01       	movw	r24, r22
    345a:	0c 94 48 1c 	jmp	0x3890	; 0x3890 <strrev>

0000345e <sprintf>:
    345e:	ae e0       	ldi	r26, 0x0E	; 14
    3460:	b0 e0       	ldi	r27, 0x00	; 0
    3462:	e5 e3       	ldi	r30, 0x35	; 53
    3464:	fa e1       	ldi	r31, 0x1A	; 26
    3466:	0c 94 72 19 	jmp	0x32e4	; 0x32e4 <__prologue_saves__+0x1c>
    346a:	0d 89       	ldd	r16, Y+21	; 0x15
    346c:	1e 89       	ldd	r17, Y+22	; 0x16
    346e:	86 e0       	ldi	r24, 0x06	; 6
    3470:	8c 83       	std	Y+4, r24	; 0x04
    3472:	1a 83       	std	Y+2, r17	; 0x02
    3474:	09 83       	std	Y+1, r16	; 0x01
    3476:	8f ef       	ldi	r24, 0xFF	; 255
    3478:	9f e7       	ldi	r25, 0x7F	; 127
    347a:	9e 83       	std	Y+6, r25	; 0x06
    347c:	8d 83       	std	Y+5, r24	; 0x05
    347e:	ae 01       	movw	r20, r28
    3480:	47 5e       	subi	r20, 0xE7	; 231
    3482:	5f 4f       	sbci	r21, 0xFF	; 255
    3484:	6f 89       	ldd	r22, Y+23	; 0x17
    3486:	78 8d       	ldd	r23, Y+24	; 0x18
    3488:	ce 01       	movw	r24, r28
    348a:	01 96       	adiw	r24, 0x01	; 1
    348c:	0e 94 51 1a 	call	0x34a2	; 0x34a2 <vfprintf>
    3490:	ef 81       	ldd	r30, Y+7	; 0x07
    3492:	f8 85       	ldd	r31, Y+8	; 0x08
    3494:	e0 0f       	add	r30, r16
    3496:	f1 1f       	adc	r31, r17
    3498:	10 82       	st	Z, r1
    349a:	2e 96       	adiw	r28, 0x0e	; 14
    349c:	e4 e0       	ldi	r30, 0x04	; 4
    349e:	0c 94 8e 19 	jmp	0x331c	; 0x331c <__epilogue_restores__+0x1c>

000034a2 <vfprintf>:
    34a2:	ab e0       	ldi	r26, 0x0B	; 11
    34a4:	b0 e0       	ldi	r27, 0x00	; 0
    34a6:	e7 e5       	ldi	r30, 0x57	; 87
    34a8:	fa e1       	ldi	r31, 0x1A	; 26
    34aa:	0c 94 64 19 	jmp	0x32c8	; 0x32c8 <__prologue_saves__>
    34ae:	6c 01       	movw	r12, r24
    34b0:	7b 01       	movw	r14, r22
    34b2:	8a 01       	movw	r16, r20
    34b4:	fc 01       	movw	r30, r24
    34b6:	17 82       	std	Z+7, r1	; 0x07
    34b8:	16 82       	std	Z+6, r1	; 0x06
    34ba:	83 81       	ldd	r24, Z+3	; 0x03
    34bc:	81 ff       	sbrs	r24, 1
    34be:	cc c1       	rjmp	.+920    	; 0x3858 <vfprintf+0x3b6>
    34c0:	ce 01       	movw	r24, r28
    34c2:	01 96       	adiw	r24, 0x01	; 1
    34c4:	3c 01       	movw	r6, r24
    34c6:	f6 01       	movw	r30, r12
    34c8:	93 81       	ldd	r25, Z+3	; 0x03
    34ca:	f7 01       	movw	r30, r14
    34cc:	93 fd       	sbrc	r25, 3
    34ce:	85 91       	lpm	r24, Z+
    34d0:	93 ff       	sbrs	r25, 3
    34d2:	81 91       	ld	r24, Z+
    34d4:	7f 01       	movw	r14, r30
    34d6:	88 23       	and	r24, r24
    34d8:	09 f4       	brne	.+2      	; 0x34dc <vfprintf+0x3a>
    34da:	ba c1       	rjmp	.+884    	; 0x3850 <vfprintf+0x3ae>
    34dc:	85 32       	cpi	r24, 0x25	; 37
    34de:	39 f4       	brne	.+14     	; 0x34ee <vfprintf+0x4c>
    34e0:	93 fd       	sbrc	r25, 3
    34e2:	85 91       	lpm	r24, Z+
    34e4:	93 ff       	sbrs	r25, 3
    34e6:	81 91       	ld	r24, Z+
    34e8:	7f 01       	movw	r14, r30
    34ea:	85 32       	cpi	r24, 0x25	; 37
    34ec:	29 f4       	brne	.+10     	; 0x34f8 <vfprintf+0x56>
    34ee:	b6 01       	movw	r22, r12
    34f0:	90 e0       	ldi	r25, 0x00	; 0
    34f2:	0e 94 58 1c 	call	0x38b0	; 0x38b0 <fputc>
    34f6:	e7 cf       	rjmp	.-50     	; 0x34c6 <vfprintf+0x24>
    34f8:	91 2c       	mov	r9, r1
    34fa:	21 2c       	mov	r2, r1
    34fc:	31 2c       	mov	r3, r1
    34fe:	ff e1       	ldi	r31, 0x1F	; 31
    3500:	f3 15       	cp	r31, r3
    3502:	d8 f0       	brcs	.+54     	; 0x353a <vfprintf+0x98>
    3504:	8b 32       	cpi	r24, 0x2B	; 43
    3506:	79 f0       	breq	.+30     	; 0x3526 <vfprintf+0x84>
    3508:	38 f4       	brcc	.+14     	; 0x3518 <vfprintf+0x76>
    350a:	80 32       	cpi	r24, 0x20	; 32
    350c:	79 f0       	breq	.+30     	; 0x352c <vfprintf+0x8a>
    350e:	83 32       	cpi	r24, 0x23	; 35
    3510:	a1 f4       	brne	.+40     	; 0x353a <vfprintf+0x98>
    3512:	23 2d       	mov	r18, r3
    3514:	20 61       	ori	r18, 0x10	; 16
    3516:	1d c0       	rjmp	.+58     	; 0x3552 <vfprintf+0xb0>
    3518:	8d 32       	cpi	r24, 0x2D	; 45
    351a:	61 f0       	breq	.+24     	; 0x3534 <vfprintf+0x92>
    351c:	80 33       	cpi	r24, 0x30	; 48
    351e:	69 f4       	brne	.+26     	; 0x353a <vfprintf+0x98>
    3520:	23 2d       	mov	r18, r3
    3522:	21 60       	ori	r18, 0x01	; 1
    3524:	16 c0       	rjmp	.+44     	; 0x3552 <vfprintf+0xb0>
    3526:	83 2d       	mov	r24, r3
    3528:	82 60       	ori	r24, 0x02	; 2
    352a:	38 2e       	mov	r3, r24
    352c:	e3 2d       	mov	r30, r3
    352e:	e4 60       	ori	r30, 0x04	; 4
    3530:	3e 2e       	mov	r3, r30
    3532:	2a c0       	rjmp	.+84     	; 0x3588 <vfprintf+0xe6>
    3534:	f3 2d       	mov	r31, r3
    3536:	f8 60       	ori	r31, 0x08	; 8
    3538:	1d c0       	rjmp	.+58     	; 0x3574 <vfprintf+0xd2>
    353a:	37 fc       	sbrc	r3, 7
    353c:	2d c0       	rjmp	.+90     	; 0x3598 <vfprintf+0xf6>
    353e:	20 ed       	ldi	r18, 0xD0	; 208
    3540:	28 0f       	add	r18, r24
    3542:	2a 30       	cpi	r18, 0x0A	; 10
    3544:	40 f0       	brcs	.+16     	; 0x3556 <vfprintf+0xb4>
    3546:	8e 32       	cpi	r24, 0x2E	; 46
    3548:	b9 f4       	brne	.+46     	; 0x3578 <vfprintf+0xd6>
    354a:	36 fc       	sbrc	r3, 6
    354c:	81 c1       	rjmp	.+770    	; 0x3850 <vfprintf+0x3ae>
    354e:	23 2d       	mov	r18, r3
    3550:	20 64       	ori	r18, 0x40	; 64
    3552:	32 2e       	mov	r3, r18
    3554:	19 c0       	rjmp	.+50     	; 0x3588 <vfprintf+0xe6>
    3556:	36 fe       	sbrs	r3, 6
    3558:	06 c0       	rjmp	.+12     	; 0x3566 <vfprintf+0xc4>
    355a:	8a e0       	ldi	r24, 0x0A	; 10
    355c:	98 9e       	mul	r9, r24
    355e:	20 0d       	add	r18, r0
    3560:	11 24       	eor	r1, r1
    3562:	92 2e       	mov	r9, r18
    3564:	11 c0       	rjmp	.+34     	; 0x3588 <vfprintf+0xe6>
    3566:	ea e0       	ldi	r30, 0x0A	; 10
    3568:	2e 9e       	mul	r2, r30
    356a:	20 0d       	add	r18, r0
    356c:	11 24       	eor	r1, r1
    356e:	22 2e       	mov	r2, r18
    3570:	f3 2d       	mov	r31, r3
    3572:	f0 62       	ori	r31, 0x20	; 32
    3574:	3f 2e       	mov	r3, r31
    3576:	08 c0       	rjmp	.+16     	; 0x3588 <vfprintf+0xe6>
    3578:	8c 36       	cpi	r24, 0x6C	; 108
    357a:	21 f4       	brne	.+8      	; 0x3584 <vfprintf+0xe2>
    357c:	83 2d       	mov	r24, r3
    357e:	80 68       	ori	r24, 0x80	; 128
    3580:	38 2e       	mov	r3, r24
    3582:	02 c0       	rjmp	.+4      	; 0x3588 <vfprintf+0xe6>
    3584:	88 36       	cpi	r24, 0x68	; 104
    3586:	41 f4       	brne	.+16     	; 0x3598 <vfprintf+0xf6>
    3588:	f7 01       	movw	r30, r14
    358a:	93 fd       	sbrc	r25, 3
    358c:	85 91       	lpm	r24, Z+
    358e:	93 ff       	sbrs	r25, 3
    3590:	81 91       	ld	r24, Z+
    3592:	7f 01       	movw	r14, r30
    3594:	81 11       	cpse	r24, r1
    3596:	b3 cf       	rjmp	.-154    	; 0x34fe <vfprintf+0x5c>
    3598:	98 2f       	mov	r25, r24
    359a:	9f 7d       	andi	r25, 0xDF	; 223
    359c:	95 54       	subi	r25, 0x45	; 69
    359e:	93 30       	cpi	r25, 0x03	; 3
    35a0:	28 f4       	brcc	.+10     	; 0x35ac <vfprintf+0x10a>
    35a2:	0c 5f       	subi	r16, 0xFC	; 252
    35a4:	1f 4f       	sbci	r17, 0xFF	; 255
    35a6:	9f e3       	ldi	r25, 0x3F	; 63
    35a8:	99 83       	std	Y+1, r25	; 0x01
    35aa:	0d c0       	rjmp	.+26     	; 0x35c6 <vfprintf+0x124>
    35ac:	83 36       	cpi	r24, 0x63	; 99
    35ae:	31 f0       	breq	.+12     	; 0x35bc <vfprintf+0x11a>
    35b0:	83 37       	cpi	r24, 0x73	; 115
    35b2:	71 f0       	breq	.+28     	; 0x35d0 <vfprintf+0x12e>
    35b4:	83 35       	cpi	r24, 0x53	; 83
    35b6:	09 f0       	breq	.+2      	; 0x35ba <vfprintf+0x118>
    35b8:	59 c0       	rjmp	.+178    	; 0x366c <vfprintf+0x1ca>
    35ba:	21 c0       	rjmp	.+66     	; 0x35fe <vfprintf+0x15c>
    35bc:	f8 01       	movw	r30, r16
    35be:	80 81       	ld	r24, Z
    35c0:	89 83       	std	Y+1, r24	; 0x01
    35c2:	0e 5f       	subi	r16, 0xFE	; 254
    35c4:	1f 4f       	sbci	r17, 0xFF	; 255
    35c6:	88 24       	eor	r8, r8
    35c8:	83 94       	inc	r8
    35ca:	91 2c       	mov	r9, r1
    35cc:	53 01       	movw	r10, r6
    35ce:	13 c0       	rjmp	.+38     	; 0x35f6 <vfprintf+0x154>
    35d0:	28 01       	movw	r4, r16
    35d2:	f2 e0       	ldi	r31, 0x02	; 2
    35d4:	4f 0e       	add	r4, r31
    35d6:	51 1c       	adc	r5, r1
    35d8:	f8 01       	movw	r30, r16
    35da:	a0 80       	ld	r10, Z
    35dc:	b1 80       	ldd	r11, Z+1	; 0x01
    35de:	36 fe       	sbrs	r3, 6
    35e0:	03 c0       	rjmp	.+6      	; 0x35e8 <vfprintf+0x146>
    35e2:	69 2d       	mov	r22, r9
    35e4:	70 e0       	ldi	r23, 0x00	; 0
    35e6:	02 c0       	rjmp	.+4      	; 0x35ec <vfprintf+0x14a>
    35e8:	6f ef       	ldi	r22, 0xFF	; 255
    35ea:	7f ef       	ldi	r23, 0xFF	; 255
    35ec:	c5 01       	movw	r24, r10
    35ee:	0e 94 3d 1c 	call	0x387a	; 0x387a <strnlen>
    35f2:	4c 01       	movw	r8, r24
    35f4:	82 01       	movw	r16, r4
    35f6:	f3 2d       	mov	r31, r3
    35f8:	ff 77       	andi	r31, 0x7F	; 127
    35fa:	3f 2e       	mov	r3, r31
    35fc:	16 c0       	rjmp	.+44     	; 0x362a <vfprintf+0x188>
    35fe:	28 01       	movw	r4, r16
    3600:	22 e0       	ldi	r18, 0x02	; 2
    3602:	42 0e       	add	r4, r18
    3604:	51 1c       	adc	r5, r1
    3606:	f8 01       	movw	r30, r16
    3608:	a0 80       	ld	r10, Z
    360a:	b1 80       	ldd	r11, Z+1	; 0x01
    360c:	36 fe       	sbrs	r3, 6
    360e:	03 c0       	rjmp	.+6      	; 0x3616 <vfprintf+0x174>
    3610:	69 2d       	mov	r22, r9
    3612:	70 e0       	ldi	r23, 0x00	; 0
    3614:	02 c0       	rjmp	.+4      	; 0x361a <vfprintf+0x178>
    3616:	6f ef       	ldi	r22, 0xFF	; 255
    3618:	7f ef       	ldi	r23, 0xFF	; 255
    361a:	c5 01       	movw	r24, r10
    361c:	0e 94 32 1c 	call	0x3864	; 0x3864 <strnlen_P>
    3620:	4c 01       	movw	r8, r24
    3622:	f3 2d       	mov	r31, r3
    3624:	f0 68       	ori	r31, 0x80	; 128
    3626:	3f 2e       	mov	r3, r31
    3628:	82 01       	movw	r16, r4
    362a:	33 fc       	sbrc	r3, 3
    362c:	1b c0       	rjmp	.+54     	; 0x3664 <vfprintf+0x1c2>
    362e:	82 2d       	mov	r24, r2
    3630:	90 e0       	ldi	r25, 0x00	; 0
    3632:	88 16       	cp	r8, r24
    3634:	99 06       	cpc	r9, r25
    3636:	b0 f4       	brcc	.+44     	; 0x3664 <vfprintf+0x1c2>
    3638:	b6 01       	movw	r22, r12
    363a:	80 e2       	ldi	r24, 0x20	; 32
    363c:	90 e0       	ldi	r25, 0x00	; 0
    363e:	0e 94 58 1c 	call	0x38b0	; 0x38b0 <fputc>
    3642:	2a 94       	dec	r2
    3644:	f4 cf       	rjmp	.-24     	; 0x362e <vfprintf+0x18c>
    3646:	f5 01       	movw	r30, r10
    3648:	37 fc       	sbrc	r3, 7
    364a:	85 91       	lpm	r24, Z+
    364c:	37 fe       	sbrs	r3, 7
    364e:	81 91       	ld	r24, Z+
    3650:	5f 01       	movw	r10, r30
    3652:	b6 01       	movw	r22, r12
    3654:	90 e0       	ldi	r25, 0x00	; 0
    3656:	0e 94 58 1c 	call	0x38b0	; 0x38b0 <fputc>
    365a:	21 10       	cpse	r2, r1
    365c:	2a 94       	dec	r2
    365e:	21 e0       	ldi	r18, 0x01	; 1
    3660:	82 1a       	sub	r8, r18
    3662:	91 08       	sbc	r9, r1
    3664:	81 14       	cp	r8, r1
    3666:	91 04       	cpc	r9, r1
    3668:	71 f7       	brne	.-36     	; 0x3646 <vfprintf+0x1a4>
    366a:	e8 c0       	rjmp	.+464    	; 0x383c <vfprintf+0x39a>
    366c:	84 36       	cpi	r24, 0x64	; 100
    366e:	11 f0       	breq	.+4      	; 0x3674 <vfprintf+0x1d2>
    3670:	89 36       	cpi	r24, 0x69	; 105
    3672:	41 f5       	brne	.+80     	; 0x36c4 <vfprintf+0x222>
    3674:	f8 01       	movw	r30, r16
    3676:	37 fe       	sbrs	r3, 7
    3678:	07 c0       	rjmp	.+14     	; 0x3688 <vfprintf+0x1e6>
    367a:	60 81       	ld	r22, Z
    367c:	71 81       	ldd	r23, Z+1	; 0x01
    367e:	82 81       	ldd	r24, Z+2	; 0x02
    3680:	93 81       	ldd	r25, Z+3	; 0x03
    3682:	0c 5f       	subi	r16, 0xFC	; 252
    3684:	1f 4f       	sbci	r17, 0xFF	; 255
    3686:	08 c0       	rjmp	.+16     	; 0x3698 <vfprintf+0x1f6>
    3688:	60 81       	ld	r22, Z
    368a:	71 81       	ldd	r23, Z+1	; 0x01
    368c:	07 2e       	mov	r0, r23
    368e:	00 0c       	add	r0, r0
    3690:	88 0b       	sbc	r24, r24
    3692:	99 0b       	sbc	r25, r25
    3694:	0e 5f       	subi	r16, 0xFE	; 254
    3696:	1f 4f       	sbci	r17, 0xFF	; 255
    3698:	f3 2d       	mov	r31, r3
    369a:	ff 76       	andi	r31, 0x6F	; 111
    369c:	3f 2e       	mov	r3, r31
    369e:	97 ff       	sbrs	r25, 7
    36a0:	09 c0       	rjmp	.+18     	; 0x36b4 <vfprintf+0x212>
    36a2:	90 95       	com	r25
    36a4:	80 95       	com	r24
    36a6:	70 95       	com	r23
    36a8:	61 95       	neg	r22
    36aa:	7f 4f       	sbci	r23, 0xFF	; 255
    36ac:	8f 4f       	sbci	r24, 0xFF	; 255
    36ae:	9f 4f       	sbci	r25, 0xFF	; 255
    36b0:	f0 68       	ori	r31, 0x80	; 128
    36b2:	3f 2e       	mov	r3, r31
    36b4:	2a e0       	ldi	r18, 0x0A	; 10
    36b6:	30 e0       	ldi	r19, 0x00	; 0
    36b8:	a3 01       	movw	r20, r6
    36ba:	0e 94 94 1c 	call	0x3928	; 0x3928 <__ultoa_invert>
    36be:	88 2e       	mov	r8, r24
    36c0:	86 18       	sub	r8, r6
    36c2:	45 c0       	rjmp	.+138    	; 0x374e <vfprintf+0x2ac>
    36c4:	85 37       	cpi	r24, 0x75	; 117
    36c6:	31 f4       	brne	.+12     	; 0x36d4 <vfprintf+0x232>
    36c8:	23 2d       	mov	r18, r3
    36ca:	2f 7e       	andi	r18, 0xEF	; 239
    36cc:	b2 2e       	mov	r11, r18
    36ce:	2a e0       	ldi	r18, 0x0A	; 10
    36d0:	30 e0       	ldi	r19, 0x00	; 0
    36d2:	25 c0       	rjmp	.+74     	; 0x371e <vfprintf+0x27c>
    36d4:	93 2d       	mov	r25, r3
    36d6:	99 7f       	andi	r25, 0xF9	; 249
    36d8:	b9 2e       	mov	r11, r25
    36da:	8f 36       	cpi	r24, 0x6F	; 111
    36dc:	c1 f0       	breq	.+48     	; 0x370e <vfprintf+0x26c>
    36de:	18 f4       	brcc	.+6      	; 0x36e6 <vfprintf+0x244>
    36e0:	88 35       	cpi	r24, 0x58	; 88
    36e2:	79 f0       	breq	.+30     	; 0x3702 <vfprintf+0x260>
    36e4:	b5 c0       	rjmp	.+362    	; 0x3850 <vfprintf+0x3ae>
    36e6:	80 37       	cpi	r24, 0x70	; 112
    36e8:	19 f0       	breq	.+6      	; 0x36f0 <vfprintf+0x24e>
    36ea:	88 37       	cpi	r24, 0x78	; 120
    36ec:	21 f0       	breq	.+8      	; 0x36f6 <vfprintf+0x254>
    36ee:	b0 c0       	rjmp	.+352    	; 0x3850 <vfprintf+0x3ae>
    36f0:	e9 2f       	mov	r30, r25
    36f2:	e0 61       	ori	r30, 0x10	; 16
    36f4:	be 2e       	mov	r11, r30
    36f6:	b4 fe       	sbrs	r11, 4
    36f8:	0d c0       	rjmp	.+26     	; 0x3714 <vfprintf+0x272>
    36fa:	fb 2d       	mov	r31, r11
    36fc:	f4 60       	ori	r31, 0x04	; 4
    36fe:	bf 2e       	mov	r11, r31
    3700:	09 c0       	rjmp	.+18     	; 0x3714 <vfprintf+0x272>
    3702:	34 fe       	sbrs	r3, 4
    3704:	0a c0       	rjmp	.+20     	; 0x371a <vfprintf+0x278>
    3706:	29 2f       	mov	r18, r25
    3708:	26 60       	ori	r18, 0x06	; 6
    370a:	b2 2e       	mov	r11, r18
    370c:	06 c0       	rjmp	.+12     	; 0x371a <vfprintf+0x278>
    370e:	28 e0       	ldi	r18, 0x08	; 8
    3710:	30 e0       	ldi	r19, 0x00	; 0
    3712:	05 c0       	rjmp	.+10     	; 0x371e <vfprintf+0x27c>
    3714:	20 e1       	ldi	r18, 0x10	; 16
    3716:	30 e0       	ldi	r19, 0x00	; 0
    3718:	02 c0       	rjmp	.+4      	; 0x371e <vfprintf+0x27c>
    371a:	20 e1       	ldi	r18, 0x10	; 16
    371c:	32 e0       	ldi	r19, 0x02	; 2
    371e:	f8 01       	movw	r30, r16
    3720:	b7 fe       	sbrs	r11, 7
    3722:	07 c0       	rjmp	.+14     	; 0x3732 <vfprintf+0x290>
    3724:	60 81       	ld	r22, Z
    3726:	71 81       	ldd	r23, Z+1	; 0x01
    3728:	82 81       	ldd	r24, Z+2	; 0x02
    372a:	93 81       	ldd	r25, Z+3	; 0x03
    372c:	0c 5f       	subi	r16, 0xFC	; 252
    372e:	1f 4f       	sbci	r17, 0xFF	; 255
    3730:	06 c0       	rjmp	.+12     	; 0x373e <vfprintf+0x29c>
    3732:	60 81       	ld	r22, Z
    3734:	71 81       	ldd	r23, Z+1	; 0x01
    3736:	80 e0       	ldi	r24, 0x00	; 0
    3738:	90 e0       	ldi	r25, 0x00	; 0
    373a:	0e 5f       	subi	r16, 0xFE	; 254
    373c:	1f 4f       	sbci	r17, 0xFF	; 255
    373e:	a3 01       	movw	r20, r6
    3740:	0e 94 94 1c 	call	0x3928	; 0x3928 <__ultoa_invert>
    3744:	88 2e       	mov	r8, r24
    3746:	86 18       	sub	r8, r6
    3748:	fb 2d       	mov	r31, r11
    374a:	ff 77       	andi	r31, 0x7F	; 127
    374c:	3f 2e       	mov	r3, r31
    374e:	36 fe       	sbrs	r3, 6
    3750:	0d c0       	rjmp	.+26     	; 0x376c <vfprintf+0x2ca>
    3752:	23 2d       	mov	r18, r3
    3754:	2e 7f       	andi	r18, 0xFE	; 254
    3756:	a2 2e       	mov	r10, r18
    3758:	89 14       	cp	r8, r9
    375a:	58 f4       	brcc	.+22     	; 0x3772 <vfprintf+0x2d0>
    375c:	34 fe       	sbrs	r3, 4
    375e:	0b c0       	rjmp	.+22     	; 0x3776 <vfprintf+0x2d4>
    3760:	32 fc       	sbrc	r3, 2
    3762:	09 c0       	rjmp	.+18     	; 0x3776 <vfprintf+0x2d4>
    3764:	83 2d       	mov	r24, r3
    3766:	8e 7e       	andi	r24, 0xEE	; 238
    3768:	a8 2e       	mov	r10, r24
    376a:	05 c0       	rjmp	.+10     	; 0x3776 <vfprintf+0x2d4>
    376c:	b8 2c       	mov	r11, r8
    376e:	a3 2c       	mov	r10, r3
    3770:	03 c0       	rjmp	.+6      	; 0x3778 <vfprintf+0x2d6>
    3772:	b8 2c       	mov	r11, r8
    3774:	01 c0       	rjmp	.+2      	; 0x3778 <vfprintf+0x2d6>
    3776:	b9 2c       	mov	r11, r9
    3778:	a4 fe       	sbrs	r10, 4
    377a:	0f c0       	rjmp	.+30     	; 0x379a <vfprintf+0x2f8>
    377c:	fe 01       	movw	r30, r28
    377e:	e8 0d       	add	r30, r8
    3780:	f1 1d       	adc	r31, r1
    3782:	80 81       	ld	r24, Z
    3784:	80 33       	cpi	r24, 0x30	; 48
    3786:	21 f4       	brne	.+8      	; 0x3790 <vfprintf+0x2ee>
    3788:	9a 2d       	mov	r25, r10
    378a:	99 7e       	andi	r25, 0xE9	; 233
    378c:	a9 2e       	mov	r10, r25
    378e:	09 c0       	rjmp	.+18     	; 0x37a2 <vfprintf+0x300>
    3790:	a2 fe       	sbrs	r10, 2
    3792:	06 c0       	rjmp	.+12     	; 0x37a0 <vfprintf+0x2fe>
    3794:	b3 94       	inc	r11
    3796:	b3 94       	inc	r11
    3798:	04 c0       	rjmp	.+8      	; 0x37a2 <vfprintf+0x300>
    379a:	8a 2d       	mov	r24, r10
    379c:	86 78       	andi	r24, 0x86	; 134
    379e:	09 f0       	breq	.+2      	; 0x37a2 <vfprintf+0x300>
    37a0:	b3 94       	inc	r11
    37a2:	a3 fc       	sbrc	r10, 3
    37a4:	11 c0       	rjmp	.+34     	; 0x37c8 <vfprintf+0x326>
    37a6:	a0 fe       	sbrs	r10, 0
    37a8:	06 c0       	rjmp	.+12     	; 0x37b6 <vfprintf+0x314>
    37aa:	b2 14       	cp	r11, r2
    37ac:	88 f4       	brcc	.+34     	; 0x37d0 <vfprintf+0x32e>
    37ae:	28 0c       	add	r2, r8
    37b0:	92 2c       	mov	r9, r2
    37b2:	9b 18       	sub	r9, r11
    37b4:	0e c0       	rjmp	.+28     	; 0x37d2 <vfprintf+0x330>
    37b6:	b2 14       	cp	r11, r2
    37b8:	60 f4       	brcc	.+24     	; 0x37d2 <vfprintf+0x330>
    37ba:	b6 01       	movw	r22, r12
    37bc:	80 e2       	ldi	r24, 0x20	; 32
    37be:	90 e0       	ldi	r25, 0x00	; 0
    37c0:	0e 94 58 1c 	call	0x38b0	; 0x38b0 <fputc>
    37c4:	b3 94       	inc	r11
    37c6:	f7 cf       	rjmp	.-18     	; 0x37b6 <vfprintf+0x314>
    37c8:	b2 14       	cp	r11, r2
    37ca:	18 f4       	brcc	.+6      	; 0x37d2 <vfprintf+0x330>
    37cc:	2b 18       	sub	r2, r11
    37ce:	02 c0       	rjmp	.+4      	; 0x37d4 <vfprintf+0x332>
    37d0:	98 2c       	mov	r9, r8
    37d2:	21 2c       	mov	r2, r1
    37d4:	a4 fe       	sbrs	r10, 4
    37d6:	10 c0       	rjmp	.+32     	; 0x37f8 <vfprintf+0x356>
    37d8:	b6 01       	movw	r22, r12
    37da:	80 e3       	ldi	r24, 0x30	; 48
    37dc:	90 e0       	ldi	r25, 0x00	; 0
    37de:	0e 94 58 1c 	call	0x38b0	; 0x38b0 <fputc>
    37e2:	a2 fe       	sbrs	r10, 2
    37e4:	17 c0       	rjmp	.+46     	; 0x3814 <vfprintf+0x372>
    37e6:	a1 fc       	sbrc	r10, 1
    37e8:	03 c0       	rjmp	.+6      	; 0x37f0 <vfprintf+0x34e>
    37ea:	88 e7       	ldi	r24, 0x78	; 120
    37ec:	90 e0       	ldi	r25, 0x00	; 0
    37ee:	02 c0       	rjmp	.+4      	; 0x37f4 <vfprintf+0x352>
    37f0:	88 e5       	ldi	r24, 0x58	; 88
    37f2:	90 e0       	ldi	r25, 0x00	; 0
    37f4:	b6 01       	movw	r22, r12
    37f6:	0c c0       	rjmp	.+24     	; 0x3810 <vfprintf+0x36e>
    37f8:	8a 2d       	mov	r24, r10
    37fa:	86 78       	andi	r24, 0x86	; 134
    37fc:	59 f0       	breq	.+22     	; 0x3814 <vfprintf+0x372>
    37fe:	a1 fe       	sbrs	r10, 1
    3800:	02 c0       	rjmp	.+4      	; 0x3806 <vfprintf+0x364>
    3802:	8b e2       	ldi	r24, 0x2B	; 43
    3804:	01 c0       	rjmp	.+2      	; 0x3808 <vfprintf+0x366>
    3806:	80 e2       	ldi	r24, 0x20	; 32
    3808:	a7 fc       	sbrc	r10, 7
    380a:	8d e2       	ldi	r24, 0x2D	; 45
    380c:	b6 01       	movw	r22, r12
    380e:	90 e0       	ldi	r25, 0x00	; 0
    3810:	0e 94 58 1c 	call	0x38b0	; 0x38b0 <fputc>
    3814:	89 14       	cp	r8, r9
    3816:	38 f4       	brcc	.+14     	; 0x3826 <vfprintf+0x384>
    3818:	b6 01       	movw	r22, r12
    381a:	80 e3       	ldi	r24, 0x30	; 48
    381c:	90 e0       	ldi	r25, 0x00	; 0
    381e:	0e 94 58 1c 	call	0x38b0	; 0x38b0 <fputc>
    3822:	9a 94       	dec	r9
    3824:	f7 cf       	rjmp	.-18     	; 0x3814 <vfprintf+0x372>
    3826:	8a 94       	dec	r8
    3828:	f3 01       	movw	r30, r6
    382a:	e8 0d       	add	r30, r8
    382c:	f1 1d       	adc	r31, r1
    382e:	80 81       	ld	r24, Z
    3830:	b6 01       	movw	r22, r12
    3832:	90 e0       	ldi	r25, 0x00	; 0
    3834:	0e 94 58 1c 	call	0x38b0	; 0x38b0 <fputc>
    3838:	81 10       	cpse	r8, r1
    383a:	f5 cf       	rjmp	.-22     	; 0x3826 <vfprintf+0x384>
    383c:	22 20       	and	r2, r2
    383e:	09 f4       	brne	.+2      	; 0x3842 <vfprintf+0x3a0>
    3840:	42 ce       	rjmp	.-892    	; 0x34c6 <vfprintf+0x24>
    3842:	b6 01       	movw	r22, r12
    3844:	80 e2       	ldi	r24, 0x20	; 32
    3846:	90 e0       	ldi	r25, 0x00	; 0
    3848:	0e 94 58 1c 	call	0x38b0	; 0x38b0 <fputc>
    384c:	2a 94       	dec	r2
    384e:	f6 cf       	rjmp	.-20     	; 0x383c <vfprintf+0x39a>
    3850:	f6 01       	movw	r30, r12
    3852:	86 81       	ldd	r24, Z+6	; 0x06
    3854:	97 81       	ldd	r25, Z+7	; 0x07
    3856:	02 c0       	rjmp	.+4      	; 0x385c <vfprintf+0x3ba>
    3858:	8f ef       	ldi	r24, 0xFF	; 255
    385a:	9f ef       	ldi	r25, 0xFF	; 255
    385c:	2b 96       	adiw	r28, 0x0b	; 11
    385e:	e2 e1       	ldi	r30, 0x12	; 18
    3860:	0c 94 80 19 	jmp	0x3300	; 0x3300 <__epilogue_restores__>

00003864 <strnlen_P>:
    3864:	fc 01       	movw	r30, r24
    3866:	05 90       	lpm	r0, Z+
    3868:	61 50       	subi	r22, 0x01	; 1
    386a:	70 40       	sbci	r23, 0x00	; 0
    386c:	01 10       	cpse	r0, r1
    386e:	d8 f7       	brcc	.-10     	; 0x3866 <strnlen_P+0x2>
    3870:	80 95       	com	r24
    3872:	90 95       	com	r25
    3874:	8e 0f       	add	r24, r30
    3876:	9f 1f       	adc	r25, r31
    3878:	08 95       	ret

0000387a <strnlen>:
    387a:	fc 01       	movw	r30, r24
    387c:	61 50       	subi	r22, 0x01	; 1
    387e:	70 40       	sbci	r23, 0x00	; 0
    3880:	01 90       	ld	r0, Z+
    3882:	01 10       	cpse	r0, r1
    3884:	d8 f7       	brcc	.-10     	; 0x387c <strnlen+0x2>
    3886:	80 95       	com	r24
    3888:	90 95       	com	r25
    388a:	8e 0f       	add	r24, r30
    388c:	9f 1f       	adc	r25, r31
    388e:	08 95       	ret

00003890 <strrev>:
    3890:	dc 01       	movw	r26, r24
    3892:	fc 01       	movw	r30, r24
    3894:	67 2f       	mov	r22, r23
    3896:	71 91       	ld	r23, Z+
    3898:	77 23       	and	r23, r23
    389a:	e1 f7       	brne	.-8      	; 0x3894 <strrev+0x4>
    389c:	32 97       	sbiw	r30, 0x02	; 2
    389e:	04 c0       	rjmp	.+8      	; 0x38a8 <strrev+0x18>
    38a0:	7c 91       	ld	r23, X
    38a2:	6d 93       	st	X+, r22
    38a4:	70 83       	st	Z, r23
    38a6:	62 91       	ld	r22, -Z
    38a8:	ae 17       	cp	r26, r30
    38aa:	bf 07       	cpc	r27, r31
    38ac:	c8 f3       	brcs	.-14     	; 0x38a0 <strrev+0x10>
    38ae:	08 95       	ret

000038b0 <fputc>:
    38b0:	0f 93       	push	r16
    38b2:	1f 93       	push	r17
    38b4:	cf 93       	push	r28
    38b6:	df 93       	push	r29
    38b8:	fb 01       	movw	r30, r22
    38ba:	23 81       	ldd	r18, Z+3	; 0x03
    38bc:	21 fd       	sbrc	r18, 1
    38be:	03 c0       	rjmp	.+6      	; 0x38c6 <fputc+0x16>
    38c0:	8f ef       	ldi	r24, 0xFF	; 255
    38c2:	9f ef       	ldi	r25, 0xFF	; 255
    38c4:	2c c0       	rjmp	.+88     	; 0x391e <fputc+0x6e>
    38c6:	22 ff       	sbrs	r18, 2
    38c8:	16 c0       	rjmp	.+44     	; 0x38f6 <fputc+0x46>
    38ca:	46 81       	ldd	r20, Z+6	; 0x06
    38cc:	57 81       	ldd	r21, Z+7	; 0x07
    38ce:	24 81       	ldd	r18, Z+4	; 0x04
    38d0:	35 81       	ldd	r19, Z+5	; 0x05
    38d2:	42 17       	cp	r20, r18
    38d4:	53 07       	cpc	r21, r19
    38d6:	44 f4       	brge	.+16     	; 0x38e8 <fputc+0x38>
    38d8:	a0 81       	ld	r26, Z
    38da:	b1 81       	ldd	r27, Z+1	; 0x01
    38dc:	9d 01       	movw	r18, r26
    38de:	2f 5f       	subi	r18, 0xFF	; 255
    38e0:	3f 4f       	sbci	r19, 0xFF	; 255
    38e2:	31 83       	std	Z+1, r19	; 0x01
    38e4:	20 83       	st	Z, r18
    38e6:	8c 93       	st	X, r24
    38e8:	26 81       	ldd	r18, Z+6	; 0x06
    38ea:	37 81       	ldd	r19, Z+7	; 0x07
    38ec:	2f 5f       	subi	r18, 0xFF	; 255
    38ee:	3f 4f       	sbci	r19, 0xFF	; 255
    38f0:	37 83       	std	Z+7, r19	; 0x07
    38f2:	26 83       	std	Z+6, r18	; 0x06
    38f4:	14 c0       	rjmp	.+40     	; 0x391e <fputc+0x6e>
    38f6:	8b 01       	movw	r16, r22
    38f8:	ec 01       	movw	r28, r24
    38fa:	fb 01       	movw	r30, r22
    38fc:	00 84       	ldd	r0, Z+8	; 0x08
    38fe:	f1 85       	ldd	r31, Z+9	; 0x09
    3900:	e0 2d       	mov	r30, r0
    3902:	09 95       	icall
    3904:	89 2b       	or	r24, r25
    3906:	e1 f6       	brne	.-72     	; 0x38c0 <fputc+0x10>
    3908:	d8 01       	movw	r26, r16
    390a:	16 96       	adiw	r26, 0x06	; 6
    390c:	8d 91       	ld	r24, X+
    390e:	9c 91       	ld	r25, X
    3910:	17 97       	sbiw	r26, 0x07	; 7
    3912:	01 96       	adiw	r24, 0x01	; 1
    3914:	17 96       	adiw	r26, 0x07	; 7
    3916:	9c 93       	st	X, r25
    3918:	8e 93       	st	-X, r24
    391a:	16 97       	sbiw	r26, 0x06	; 6
    391c:	ce 01       	movw	r24, r28
    391e:	df 91       	pop	r29
    3920:	cf 91       	pop	r28
    3922:	1f 91       	pop	r17
    3924:	0f 91       	pop	r16
    3926:	08 95       	ret

00003928 <__ultoa_invert>:
    3928:	fa 01       	movw	r30, r20
    392a:	aa 27       	eor	r26, r26
    392c:	28 30       	cpi	r18, 0x08	; 8
    392e:	51 f1       	breq	.+84     	; 0x3984 <__ultoa_invert+0x5c>
    3930:	20 31       	cpi	r18, 0x10	; 16
    3932:	81 f1       	breq	.+96     	; 0x3994 <__ultoa_invert+0x6c>
    3934:	e8 94       	clt
    3936:	6f 93       	push	r22
    3938:	6e 7f       	andi	r22, 0xFE	; 254
    393a:	6e 5f       	subi	r22, 0xFE	; 254
    393c:	7f 4f       	sbci	r23, 0xFF	; 255
    393e:	8f 4f       	sbci	r24, 0xFF	; 255
    3940:	9f 4f       	sbci	r25, 0xFF	; 255
    3942:	af 4f       	sbci	r26, 0xFF	; 255
    3944:	b1 e0       	ldi	r27, 0x01	; 1
    3946:	3e d0       	rcall	.+124    	; 0x39c4 <__ultoa_invert+0x9c>
    3948:	b4 e0       	ldi	r27, 0x04	; 4
    394a:	3c d0       	rcall	.+120    	; 0x39c4 <__ultoa_invert+0x9c>
    394c:	67 0f       	add	r22, r23
    394e:	78 1f       	adc	r23, r24
    3950:	89 1f       	adc	r24, r25
    3952:	9a 1f       	adc	r25, r26
    3954:	a1 1d       	adc	r26, r1
    3956:	68 0f       	add	r22, r24
    3958:	79 1f       	adc	r23, r25
    395a:	8a 1f       	adc	r24, r26
    395c:	91 1d       	adc	r25, r1
    395e:	a1 1d       	adc	r26, r1
    3960:	6a 0f       	add	r22, r26
    3962:	71 1d       	adc	r23, r1
    3964:	81 1d       	adc	r24, r1
    3966:	91 1d       	adc	r25, r1
    3968:	a1 1d       	adc	r26, r1
    396a:	20 d0       	rcall	.+64     	; 0x39ac <__ultoa_invert+0x84>
    396c:	09 f4       	brne	.+2      	; 0x3970 <__ultoa_invert+0x48>
    396e:	68 94       	set
    3970:	3f 91       	pop	r19
    3972:	2a e0       	ldi	r18, 0x0A	; 10
    3974:	26 9f       	mul	r18, r22
    3976:	11 24       	eor	r1, r1
    3978:	30 19       	sub	r19, r0
    397a:	30 5d       	subi	r19, 0xD0	; 208
    397c:	31 93       	st	Z+, r19
    397e:	de f6       	brtc	.-74     	; 0x3936 <__ultoa_invert+0xe>
    3980:	cf 01       	movw	r24, r30
    3982:	08 95       	ret
    3984:	46 2f       	mov	r20, r22
    3986:	47 70       	andi	r20, 0x07	; 7
    3988:	40 5d       	subi	r20, 0xD0	; 208
    398a:	41 93       	st	Z+, r20
    398c:	b3 e0       	ldi	r27, 0x03	; 3
    398e:	0f d0       	rcall	.+30     	; 0x39ae <__ultoa_invert+0x86>
    3990:	c9 f7       	brne	.-14     	; 0x3984 <__ultoa_invert+0x5c>
    3992:	f6 cf       	rjmp	.-20     	; 0x3980 <__ultoa_invert+0x58>
    3994:	46 2f       	mov	r20, r22
    3996:	4f 70       	andi	r20, 0x0F	; 15
    3998:	40 5d       	subi	r20, 0xD0	; 208
    399a:	4a 33       	cpi	r20, 0x3A	; 58
    399c:	18 f0       	brcs	.+6      	; 0x39a4 <__ultoa_invert+0x7c>
    399e:	49 5d       	subi	r20, 0xD9	; 217
    39a0:	31 fd       	sbrc	r19, 1
    39a2:	40 52       	subi	r20, 0x20	; 32
    39a4:	41 93       	st	Z+, r20
    39a6:	02 d0       	rcall	.+4      	; 0x39ac <__ultoa_invert+0x84>
    39a8:	a9 f7       	brne	.-22     	; 0x3994 <__ultoa_invert+0x6c>
    39aa:	ea cf       	rjmp	.-44     	; 0x3980 <__ultoa_invert+0x58>
    39ac:	b4 e0       	ldi	r27, 0x04	; 4
    39ae:	a6 95       	lsr	r26
    39b0:	97 95       	ror	r25
    39b2:	87 95       	ror	r24
    39b4:	77 95       	ror	r23
    39b6:	67 95       	ror	r22
    39b8:	ba 95       	dec	r27
    39ba:	c9 f7       	brne	.-14     	; 0x39ae <__ultoa_invert+0x86>
    39bc:	00 97       	sbiw	r24, 0x00	; 0
    39be:	61 05       	cpc	r22, r1
    39c0:	71 05       	cpc	r23, r1
    39c2:	08 95       	ret
    39c4:	9b 01       	movw	r18, r22
    39c6:	ac 01       	movw	r20, r24
    39c8:	0a 2e       	mov	r0, r26
    39ca:	06 94       	lsr	r0
    39cc:	57 95       	ror	r21
    39ce:	47 95       	ror	r20
    39d0:	37 95       	ror	r19
    39d2:	27 95       	ror	r18
    39d4:	ba 95       	dec	r27
    39d6:	c9 f7       	brne	.-14     	; 0x39ca <__ultoa_invert+0xa2>
    39d8:	62 0f       	add	r22, r18
    39da:	73 1f       	adc	r23, r19
    39dc:	84 1f       	adc	r24, r20
    39de:	95 1f       	adc	r25, r21
    39e0:	a0 1d       	adc	r26, r0
    39e2:	08 95       	ret

000039e4 <_exit>:
    39e4:	f8 94       	cli

000039e6 <__stop_program>:
    39e6:	ff cf       	rjmp	.-2      	; 0x39e6 <__stop_program>
